CCS PCH C Compiler, Version 5.070, 56587               25-oct.-23 23:08

               Filename:   d:\Users\pc-cx\Desktop\REFLOW\REFLOW.lst

               ROM used:   30120 bytes (92%)
                           Largest free fragment is 2644
               RAM used:   456 (22%) at main() level
                           560 (27%) worst case
               Stack used: 11 locations (9 in main + 2 for interrupts)
               Stack size: 31

*
0000:  GOTO   6F56
*
0008:  MOVWF  04
000A:  MOVFF  FD8,05
000E:  MOVFF  FE0,06
0012:  MOVLB  0
0014:  MOVFF  FE9,0C
0018:  MOVFF  FEA,07
001C:  MOVFF  FE1,08
0020:  MOVFF  FE2,09
0024:  MOVFF  FD9,0A
0028:  MOVFF  FDA,0B
002C:  MOVFF  FF3,12
0030:  MOVFF  FF4,13
0034:  MOVFF  FFA,14
0038:  MOVFF  FF5,15
003C:  MOVFF  FF6,16
0040:  MOVFF  FF7,17
0044:  MOVFF  00,0E
0048:  MOVFF  01,0F
004C:  MOVFF  02,10
0050:  MOVFF  03,11
0054:  BTFSS  FF2.5
0056:  GOTO   0060
005A:  BTFSC  FF2.2
005C:  GOTO   0204
0060:  BTFSS  F9D.0
0062:  GOTO   006C
0066:  BTFSC  F9E.0
0068:  GOTO   09F4
006C:  BTFSS  FF0.4
006E:  GOTO   0078
0072:  BTFSC  FF0.1
0074:  GOTO   00FA
0078:  BTFSS  FF2.3
007A:  GOTO   0084
007E:  BTFSC  FF2.0
0080:  GOTO   016C
0084:  MOVFF  0E,00
0088:  MOVFF  0F,01
008C:  MOVFF  10,02
0090:  MOVFF  11,03
0094:  MOVFF  0C,FE9
0098:  MOVFF  07,FEA
009C:  BSF    07.7
009E:  MOVFF  08,FE1
00A2:  MOVFF  09,FE2
00A6:  MOVFF  0A,FD9
00AA:  MOVFF  0B,FDA
00AE:  MOVFF  12,FF3
00B2:  MOVFF  13,FF4
00B6:  MOVFF  14,FFA
00BA:  MOVFF  15,FF5
00BE:  MOVFF  16,FF6
00C2:  MOVFF  17,FF7
00C6:  MOVF   04,W
00C8:  MOVFF  06,FE0
00CC:  MOVFF  05,FD8
00D0:  RETFIE 0
.................... #include <18f25K50.h> 
.................... //////////// Standard Header file for the PIC18F25K50 device //////////////// 
.................... /////////////////////////////////////////////////////////////////////////// 
.................... ////        (C) Copyright 1996, 2014 Custom Computer Services          //// 
.................... //// This source code may only be used by licensed users of the CCS C  //// 
.................... //// compiler.  This source code may only be distributed to other      //// 
.................... //// licensed users of the CCS C compiler.  No other use, reproduction //// 
.................... //// or distribution is permitted without written permission.          //// 
.................... //// Derivative programs created using this software in object code    //// 
.................... //// form are not restricted in any way.                               //// 
.................... /////////////////////////////////////////////////////////////////////////// 
.................... #device PIC18F25K50 
*
0294:  DATA 20,20
0296:  DATA 0A,20
0298:  DATA 20,20
029A:  DATA 00,00
029C:  DATA 20,20
029E:  DATA 20,20
02A0:  DATA 20,00
02A2:  DATA 56,41
02A4:  DATA 43,49
02A6:  DATA 4F,00
02A8:  DATA 45,4D
02AA:  DATA 50,54
02AC:  DATA 59,00
02AE:  DATA 56,49
02B0:  DATA 44,45
02B2:  DATA 00,00
02B4:  DATA CF,59
02B6:  DATA 43,54
02B8:  DATA 4F,5D
02BA:  DATA 00,00
02BC:  DATA 20,00
02BE:  DATA 45,52
02C0:  DATA 52,4F
02C2:  DATA 52,00
02C4:  DATA 41,42
02C6:  DATA 4E,4F
02C8:  DATA 52,4D
02CA:  DATA 41,4C
02CC:  DATA 00,00
02CE:  DATA 0C,44
02D0:  DATA 49,53
02D2:  DATA 50,4C
02D4:  DATA 41,59
02D6:  DATA 20,54
02D8:  DATA 46,54
02DA:  DATA 3A,20
02DC:  DATA 00,00
02DE:  DATA 0A,49
02E0:  DATA 4E,49
02E2:  DATA 43,49
02E4:  DATA 41,4E
02E6:  DATA 44,4F
02E8:  DATA 20,54
02EA:  DATA 45,43
02EC:  DATA 4C,41
02EE:  DATA 44,4F
02F0:  DATA 00,00
02F2:  DATA 0A,54
02F4:  DATA 45,43
02F6:  DATA 4C,41
02F8:  DATA 44,4F
02FA:  DATA 3A,20
02FC:  DATA 00,00
02FE:  DATA 0A,49
0300:  DATA 4E,49
0302:  DATA 43,49
0304:  DATA 41,4E
0306:  DATA 44,4F
0308:  DATA 20,54
030A:  DATA 43,37
030C:  DATA 37,00
030E:  DATA 0A,54
0310:  DATA 45,4D
0312:  DATA 50,3A
0314:  DATA 25,66
0316:  DATA 0A,4D
0318:  DATA 5F,49
031A:  DATA 44,3A
031C:  DATA 25,78
031E:  DATA 0A,4D
0320:  DATA 41,4E
0322:  DATA 55,46
0324:  DATA 41,43
0326:  DATA 54,55
0328:  DATA 52,45
032A:  DATA 52,3A
032C:  DATA 20,00
032E:  DATA 4D,49
0330:  DATA 43,52
0332:  DATA 4F,43
0334:  DATA 48,49
0336:  DATA 50,00
0338:  DATA 55,4E
033A:  DATA 4B,4E
033C:  DATA 4F,57
033E:  DATA 4E,00
0340:  DATA 0A,54
0342:  DATA 43,37
0344:  DATA 37,3A
0346:  DATA 20,00
0348:  DATA 48,4F
034A:  DATA 52,4E
034C:  DATA 4F,20
034E:  DATA 4C,49
0350:  DATA 53,54
0352:  DATA 4F,00
0354:  DATA 54,43
0356:  DATA 37,37
0358:  DATA 20,41
035A:  DATA 42,4F
035C:  DATA 4E,4F
035E:  DATA 52,4D
0360:  DATA 41,4C
0362:  DATA 00,00
0364:  DATA 54,43
0366:  DATA 37,37
0368:  DATA 20,45
036A:  DATA 52,52
036C:  DATA 4F,52
036E:  DATA 00,00
0370:  DATA 54,45
0372:  DATA 43,4C
0374:  DATA 41,44
0376:  DATA 4F,20
0378:  DATA 41,42
037A:  DATA 4F,4E
037C:  DATA 4F,52
037E:  DATA 4D,41
0380:  DATA 4C,00
0382:  DATA 54,45
0384:  DATA 43,4C
0386:  DATA 41,44
0388:  DATA 4F,20
038A:  DATA 45,52
038C:  DATA 52,4F
038E:  DATA 52,00
0390:  DATA 44,49
0392:  DATA 53,50
0394:  DATA 4C,41
0396:  DATA 59,20
0398:  DATA 54,46
039A:  DATA 54,20
039C:  DATA 41,42
039E:  DATA 4F,4E
03A0:  DATA 4F,52
03A2:  DATA 4D,41
03A4:  DATA 4C,00
03A6:  DATA 44,49
03A8:  DATA 53,50
03AA:  DATA 4C,41
03AC:  DATA 59,20
03AE:  DATA 54,46
03B0:  DATA 54,20
03B2:  DATA 45,52
03B4:  DATA 52,4F
03B6:  DATA 52,00
03B8:  DATA 4F,43
03BA:  DATA 55,52
03BC:  DATA 52,49
03BE:  DATA 45,52
03C0:  DATA 4F,4E
03C2:  DATA 20,45
03C4:  DATA 52,52
03C6:  DATA 4F,52
03C8:  DATA 45,53
03CA:  DATA 0A,50
03CC:  DATA 52,45
03CE:  DATA 53,49
03D0:  DATA 4F,4E
03D2:  DATA 45,20
03D4:  DATA 43,55
03D6:  DATA 41,4C
03D8:  DATA 51,55
03DA:  DATA 49,45
03DC:  DATA 52,20
03DE:  DATA 54,45
03E0:  DATA 43,4C
03E2:  DATA 41,20
03E4:  DATA 50,41
03E6:  DATA 52,41
03E8:  DATA 20,52
03EA:  DATA 45,49
03EC:  DATA 4E,49
03EE:  DATA 43,49
03F0:  DATA 41,52
03F2:  DATA 0A,20
03F4:  DATA 4F,20
03F6:  DATA 41,50
03F8:  DATA 41,47
03FA:  DATA 45,20
03FC:  DATA 59,20
03FE:  DATA 50,52
0400:  DATA 45,4E
0402:  DATA 44,41
0404:  DATA 20,45
0406:  DATA 4C,20
0408:  DATA 45,51
040A:  DATA 55,49
040C:  DATA 50,4F
040E:  DATA 00,00
0410:  DATA 44,49
0412:  DATA 53,50
0414:  DATA 4F,53
0416:  DATA 49,54
0418:  DATA 49,56
041A:  DATA 4F,53
041C:  DATA 20,43
041E:  DATA 4F,4E
0420:  DATA 20,41
0422:  DATA 42,4E
0424:  DATA 4F,52
0426:  DATA 4D,41
0428:  DATA 4C,49
042A:  DATA 44,41
042C:  DATA 44,45
042E:  DATA 53,0A
0430:  DATA 50,52
0432:  DATA 45,53
0434:  DATA 49,4F
0436:  DATA 4E,45
0438:  DATA 3A,20
043A:  DATA 53,49
043C:  DATA 20,50
043E:  DATA 41,52
0440:  DATA 41,20
0442:  DATA 43,4F
0444:  DATA 4E,54
0446:  DATA 49,4E
0448:  DATA 55,41
044A:  DATA 52,0A
044C:  DATA 4F,20
044E:  DATA 4E,4F
0450:  DATA 20,50
0452:  DATA 41,52
0454:  DATA 41,20
0456:  DATA 52,45
0458:  DATA 49,4E
045A:  DATA 49,43
045C:  DATA 49,41
045E:  DATA 52,0A
0460:  DATA 4F,20
0462:  DATA 41,50
0464:  DATA 41,47
0466:  DATA 45,20
0468:  DATA 59,20
046A:  DATA 50,52
046C:  DATA 45,4E
046E:  DATA 44,41
0470:  DATA 20,45
0472:  DATA 4C,20
0474:  DATA 45,51
0476:  DATA 55,49
0478:  DATA 50,4F
047A:  DATA 00,00
047C:  DATA 50,45
047E:  DATA 52,46
0480:  DATA 49,4C
0482:  DATA 45,53
0484:  DATA 00,00
0486:  DATA 50,52
0488:  DATA 4F,46
048A:  DATA 49,4C
048C:  DATA 45,53
048E:  DATA 00,00
0490:  DATA 50,52
0492:  DATA 4F,46
0494:  DATA 49,4C
0496:  DATA 53,00
0498:  DATA CF,50
049A:  DATA 4F,D4
049C:  DATA 5C,CB
049E:  DATA 5C,00
04A0:  DATA 43,4F
04A2:  DATA 4E,46
04A4:  DATA 49,47
04A6:  DATA 55,52
04A8:  DATA 41,43
04AA:  DATA 49,D3
04AC:  DATA 4E,00
04AE:  DATA 53,45
04B0:  DATA 54,54
04B2:  DATA 49,4E
04B4:  DATA 47,53
04B6:  DATA 00,00
04B8:  DATA 50,41
04BA:  DATA 52,41
04BC:  DATA 4D,C8
04BE:  DATA 54,52
04C0:  DATA 45,53
04C2:  DATA 00,00
04C4:  DATA CF,41
04C6:  DATA 50,41
04C8:  DATA 4D,45
04CA:  DATA 54,50
04CC:  DATA 00,00
04CE:  DATA 54,49
04D0:  DATA 45,4D
04D2:  DATA 50,4F
04D4:  DATA 00,00
04D6:  DATA 54,49
04D8:  DATA 4D,45
04DA:  DATA 00,00
04DC:  DATA 54,45
04DE:  DATA 4D,50
04E0:  DATA 53,00
04E2:  DATA CF,4F
04E4:  DATA C3,4F
04E6:  DATA C4,41
04E8:  DATA 00,00
04EA:  DATA 54,45
04EC:  DATA 4D,50
04EE:  DATA 45,52
04F0:  DATA 41,54
04F2:  DATA 55,52
04F4:  DATA 41,00
04F6:  DATA 54,49
04F8:  DATA 4D,45
04FA:  DATA 00,00
04FC:  DATA 54,45
04FE:  DATA 4D,50
0500:  DATA 53,00
0502:  DATA CF,4F
0504:  DATA C3,4F
0506:  DATA C4,41
0508:  DATA 00,00
050A:  DATA 49,44
050C:  DATA 49,4F
050E:  DATA 4D,41
0510:  DATA 00,00
0512:  DATA 4C,41
0514:  DATA 4E,47
0516:  DATA 55,41
0518:  DATA 47,45
051A:  DATA 00,00
051C:  DATA 4C,41
051E:  DATA 4E,47
0520:  DATA 41,47
0522:  DATA 45,00
0524:  DATA 5C,C4
0526:  DATA 5C,4F
0528:  DATA 4D,41
052A:  DATA 00,00
052C:  DATA 46,4F
052E:  DATA 52,4D
0530:  DATA 41,54
0532:  DATA 4F,00
0534:  DATA 46,4F
0536:  DATA 52,4D
0538:  DATA 41,54
053A:  DATA 00,00
053C:  DATA 46,4F
053E:  DATA 52,4D
0540:  DATA 41,54
0542:  DATA 00,00
0544:  DATA D4,4F
0546:  DATA 52,4D
0548:  DATA 41,54
054A:  DATA 00,00
054C:  DATA 4F,52
054E:  DATA 49,47
0550:  DATA 45,4E
0552:  DATA 00,00
0554:  DATA 52,45
0556:  DATA 46,45
0558:  DATA 52,45
055A:  DATA 4E,43
055C:  DATA 45,00
055E:  DATA 4F,52
0560:  DATA 49,47
0562:  DATA 49,4E
0564:  DATA 45,00
0566:  DATA 5C,43
0568:  DATA 54,4F
056A:  DATA D7,48
056C:  DATA 5C,4B
056E:  DATA 00,00
0570:  DATA 56,4F
0572:  DATA 4C,56
0574:  DATA 45,52
0576:  DATA 20,00
0578:  DATA 52,45
057A:  DATA 54,55
057C:  DATA 52,4E
057E:  DATA 20,00
0580:  DATA 52,45
0582:  DATA 56,45
0584:  DATA 4E,49
0586:  DATA 52,20
0588:  DATA 00,00
058A:  DATA 42,4F
058C:  DATA 5B,42
058E:  DATA 50,41
0590:  DATA D9,41
0592:  DATA 54,DC
0594:  DATA 43,DF
0596:  DATA 20,00
0598:  DATA 0C,0A
059A:  DATA 20,00
059C:  DATA 3A,00
059E:  DATA 4D,45
05A0:  DATA 4E,55
05A2:  DATA 20,50
05A4:  DATA 52,49
05A6:  DATA 4E,43
05A8:  DATA 49,50
05AA:  DATA 41,4C
05AC:  DATA 00,00
05AE:  DATA 4D,41
05B0:  DATA 49,4E
05B2:  DATA 20,4D
05B4:  DATA 45,4E
05B6:  DATA 55,00
05B8:  DATA 4D,45
05BA:  DATA 4E,55
05BC:  DATA 20,50
05BE:  DATA 52,49
05C0:  DATA 4E,43
05C2:  DATA 49,50
05C4:  DATA 41,4C
05C6:  DATA 00,00
05C8:  DATA C3,CB
05CA:  DATA 41,42
05CC:  DATA 48,4F
05CE:  DATA 45,20
05D0:  DATA 4D,45
05D2:  DATA 48,DE
05D4:  DATA 00,00
05D6:  DATA 43,41
05D8:  DATA 52,47
05DA:  DATA 41,52
05DC:  DATA 20,56
05DE:  DATA 41,4C
05E0:  DATA 4F,52
05E2:  DATA 45,53
05E4:  DATA 00,00
05E6:  DATA 4C,4F
05E8:  DATA 41,44
05EA:  DATA 20,56
05EC:  DATA 41,4C
05EE:  DATA 55,45
05F0:  DATA 53,00
05F2:  DATA 43,48
05F4:  DATA 41,52
05F6:  DATA 47,45
05F8:  DATA 52,20
05FA:  DATA 56,41
05FC:  DATA 4C,45
05FE:  DATA 55,52
0600:  DATA 53,00
0602:  DATA 5B,48
0604:  DATA 41,D7
0606:  DATA 45,48
0608:  DATA 5C,DF
060A:  DATA 20,48
060C:  DATA 41,C3
060E:  DATA 50,59
0610:  DATA 5B,4B
0612:  DATA 5C,00
0614:  DATA 20,20
0616:  DATA 31,20
0618:  DATA 20,32
061A:  DATA 20,20
061C:  DATA 33,20
061E:  DATA 20,34
0620:  DATA 20,20
0622:  DATA 35,20
0624:  DATA 20,00
0626:  DATA 43,43
0628:  DATA 43,43
062A:  DATA 00,00
062C:  DATA 53,53
062E:  DATA 53,53
0630:  DATA 00,00
0632:  DATA 4D,4D
0634:  DATA 3A,00
0636:  DATA 52,45
0638:  DATA 4C,41
063A:  DATA 54,49
063C:  DATA 56,4F
063E:  DATA 00,00
0640:  DATA 52,45
0642:  DATA 4C,41
0644:  DATA 54,49
0646:  DATA 56,45
0648:  DATA 00,00
064A:  DATA 52,45
064C:  DATA 4C,41
064E:  DATA 54,49
0650:  DATA 46,00
0652:  DATA 50,4F
0654:  DATA C4,43
0656:  DATA 54,42
0658:  DATA 45,48
065A:  DATA 48,5C
065C:  DATA 4B,00
065E:  DATA 41,42
0660:  DATA 53,4F
0662:  DATA 4C,55
0664:  DATA 54,4F
0666:  DATA 00,00
0668:  DATA 41,42
066A:  DATA 53,4F
066C:  DATA 4C,55
066E:  DATA 54,00
0670:  DATA 41,42
0672:  DATA 53,4F
0674:  DATA 4C,55
0676:  DATA 00,00
0678:  DATA 41,C1
067A:  DATA 43,4F
067C:  DATA CB,DE
067E:  DATA 54,48
0680:  DATA DB,5D
0682:  DATA 00,00
0684:  DATA 45,53
0686:  DATA 50,41
0688:  DATA D1,4F
068A:  DATA 4C,00
068C:  DATA 45,4E
068E:  DATA 47,4C
0690:  DATA 49,53
0692:  DATA 48,00
0694:  DATA 46,52
0696:  DATA 41,4E
0698:  DATA C7,41
069A:  DATA 49,53
069C:  DATA 00,00
069E:  DATA 50,59
06A0:  DATA 43,43
06A2:  DATA 4B,5C
06A4:  DATA 5D,00
06A6:  DATA 53,4F
06A8:  DATA 4C,44
06AA:  DATA 41,4E
06AC:  DATA 44,4F
06AE:  DATA 00,00
06B0:  DATA 52,45
06B2:  DATA 46,4C
06B4:  DATA 4F,57
06B6:  DATA 49,4E
06B8:  DATA 47,00
06BA:  DATA 53,4F
06BC:  DATA 4C,44
06BE:  DATA 55,52
06C0:  DATA 45,00
06C2:  DATA CF,41
06C4:  DATA 5D,4B
06C6:  DATA 41,00
06C8:  DATA 2E,2E
06CA:  DATA 2E,00
06CC:  DATA BF,43
06CE:  DATA 41,4E
06D0:  DATA 43,45
06D2:  DATA 4C,41
06D4:  DATA 52,00
06D6:  DATA 43,41
06D8:  DATA 4E,43
06DA:  DATA 45,4C
06DC:  DATA 00,00
06DE:  DATA 41,4E
06E0:  DATA 4E,55
06E2:  DATA 4C,45
06E4:  DATA 52,00
06E6:  DATA 4F,54
06E8:  DATA 4D,45
06EA:  DATA 48,5C
06EC:  DATA 54,DC
06EE:  DATA 00,00
06F0:  DATA 3F,00
06F2:  DATA 54,45
06F4:  DATA 52,4D
06F6:  DATA 49,4E
06F8:  DATA 41,44
06FA:  DATA 4F,00
06FC:  DATA 45,4E
06FE:  DATA 44,45
0700:  DATA 44,00
0702:  DATA 46,49
0704:  DATA 4E,41
0706:  DATA 4C,49
0708:  DATA 53,45
070A:  DATA 00,00
070C:  DATA 5B,41
070E:  DATA 4B,4F
0710:  DATA 48,D7
0712:  DATA 45,48
0714:  DATA 48,DB
0716:  DATA 5D,00
0718:  DATA BF,49
071A:  DATA 4E,49
071C:  DATA 43,49
071E:  DATA 41,52
0720:  DATA 00,00
0722:  DATA 53,54
0724:  DATA 41,52
0726:  DATA 54,00
0728:  DATA 43,4F
072A:  DATA 4D,4D
072C:  DATA 45,4E
072E:  DATA 43,45
0730:  DATA 52,00
0732:  DATA 48,41
0734:  DATA D7,5C
0736:  DATA 48,41
0738:  DATA 54,DC
073A:  DATA 00,00
073C:  DATA 3F,00
073E:  DATA BF,4F
0740:  DATA 54,52
0742:  DATA 4F,20
0744:  DATA 50,55
0746:  DATA 4E,54
0748:  DATA 4F,00
074A:  DATA 41,4E
074C:  DATA 4F,54
074E:  DATA 48,45
0750:  DATA 52,20
0752:  DATA 50,4F
0754:  DATA 49,4E
0756:  DATA 54,00
0758:  DATA 41,55
075A:  DATA 54,52
075C:  DATA 45,20
075E:  DATA 50,4F
0760:  DATA 49,4E
0762:  DATA 54,00
0764:  DATA C4,50
0766:  DATA 59,C3
0768:  DATA 41,DF
076A:  DATA 20,54
076C:  DATA 4F,D7
076E:  DATA 4B,41
0770:  DATA 00,00
0772:  DATA 3F,00
0774:  DATA 4D,41
0776:  DATA 58,00
0778:  DATA 4D,49
077A:  DATA 4E,00
077C:  MOVLW  80
077E:  BTFSS  FD8.1
0780:  BRA    0786
0782:  MOVLB  2
0784:  XORWF  x25,F
0786:  MOVLB  2
0788:  CLRF   x2A
078A:  CLRF   x2B
078C:  MOVFF  221,229
0790:  MOVF   x25,W
0792:  XORWF  x29,F
0794:  MOVF   x20,W
0796:  BTFSC  FD8.2
0798:  BRA    0958
079A:  MOVWF  x28
079C:  MOVWF  00
079E:  MOVF   x24,W
07A0:  BTFSC  FD8.2
07A2:  BRA    096A
07A4:  SUBWF  x28,F
07A6:  BTFSC  FD8.2
07A8:  BRA    08B0
07AA:  BNC   0828
07AC:  MOVFF  225,22E
07B0:  BSF    x2E.7
07B2:  MOVFF  226,22D
07B6:  MOVFF  227,22C
07BA:  CLRF   x2B
07BC:  BCF    FD8.0
07BE:  RRCF   x2E,F
07C0:  RRCF   x2D,F
07C2:  RRCF   x2C,F
07C4:  RRCF   x2B,F
07C6:  DECFSZ x28,F
07C8:  BRA    07BA
07CA:  BTFSS  x29.7
07CC:  BRA    07D4
07CE:  BSF    x2A.0
07D0:  BRA    0992
07D2:  BCF    x2A.0
07D4:  BCF    x28.0
07D6:  BSF    x2A.4
07D8:  MOVLW  02
07DA:  MOVWF  FEA
07DC:  MOVLW  23
07DE:  MOVWF  FE9
07E0:  BRA    09B8
07E2:  BCF    x2A.4
07E4:  BTFSC  x29.7
07E6:  BRA    07FC
07E8:  BTFSS  x28.0
07EA:  BRA    0812
07EC:  RRCF   x2E,F
07EE:  RRCF   x2D,F
07F0:  RRCF   x2C,F
07F2:  RRCF   x2B,F
07F4:  INCF   00,F
07F6:  BTFSC  FD8.2
07F8:  BRA    0988
07FA:  BRA    0812
07FC:  BTFSC  x2E.7
07FE:  BRA    0818
0800:  BCF    FD8.0
0802:  RLCF   x2B,F
0804:  RLCF   x2C,F
0806:  RLCF   x2D,F
0808:  RLCF   x2E,F
080A:  DECF   00,F
080C:  BTFSC  FD8.2
080E:  BRA    0988
0810:  BRA    07FC
0812:  BSF    x2A.6
0814:  BRA    08F0
0816:  BCF    x2A.6
0818:  MOVFF  221,229
081C:  BTFSS  x21.7
081E:  BRA    0824
0820:  BSF    x2E.7
0822:  BRA    097A
0824:  BCF    x2E.7
0826:  BRA    097A
0828:  MOVFF  224,228
082C:  MOVFF  224,00
0830:  MOVF   x20,W
0832:  SUBWF  x28,F
0834:  MOVFF  221,22E
0838:  BSF    x2E.7
083A:  MOVFF  222,22D
083E:  MOVFF  223,22C
0842:  CLRF   x2B
0844:  BCF    FD8.0
0846:  RRCF   x2E,F
0848:  RRCF   x2D,F
084A:  RRCF   x2C,F
084C:  RRCF   x2B,F
084E:  DECFSZ x28,F
0850:  BRA    0842
0852:  BTFSS  x29.7
0854:  BRA    085C
0856:  BSF    x2A.1
0858:  BRA    0992
085A:  BCF    x2A.1
085C:  BCF    x28.0
085E:  BSF    x2A.5
0860:  MOVLW  02
0862:  MOVWF  FEA
0864:  MOVLW  27
0866:  MOVWF  FE9
0868:  BRA    09B8
086A:  BCF    x2A.5
086C:  BTFSC  x29.7
086E:  BRA    0884
0870:  BTFSS  x28.0
0872:  BRA    089A
0874:  RRCF   x2E,F
0876:  RRCF   x2D,F
0878:  RRCF   x2C,F
087A:  RRCF   x2B,F
087C:  INCF   00,F
087E:  BTFSC  FD8.2
0880:  BRA    0988
0882:  BRA    089A
0884:  BTFSC  x2E.7
0886:  BRA    08A0
0888:  BCF    FD8.0
088A:  RLCF   x2B,F
088C:  RLCF   x2C,F
088E:  RLCF   x2D,F
0890:  RLCF   x2E,F
0892:  DECF   00,F
0894:  BTFSC  FD8.2
0896:  BRA    0988
0898:  BRA    0884
089A:  BSF    x2A.7
089C:  BRA    08F0
089E:  BCF    x2A.7
08A0:  MOVFF  225,229
08A4:  BTFSS  x25.7
08A6:  BRA    08AC
08A8:  BSF    x2E.7
08AA:  BRA    097A
08AC:  BCF    x2E.7
08AE:  BRA    097A
08B0:  MOVFF  225,22E
08B4:  BSF    x2E.7
08B6:  MOVFF  226,22D
08BA:  MOVFF  227,22C
08BE:  BTFSS  x29.7
08C0:  BRA    08CA
08C2:  BCF    x2E.7
08C4:  BSF    x2A.2
08C6:  BRA    0992
08C8:  BCF    x2A.2
08CA:  CLRF   x2B
08CC:  BCF    x28.0
08CE:  MOVLW  02
08D0:  MOVWF  FEA
08D2:  MOVLW  23
08D4:  MOVWF  FE9
08D6:  BRA    09B8
08D8:  BTFSC  x29.7
08DA:  BRA    0914
08DC:  MOVFF  221,229
08E0:  BTFSS  x28.0
08E2:  BRA    08F0
08E4:  RRCF   x2E,F
08E6:  RRCF   x2D,F
08E8:  RRCF   x2C,F
08EA:  RRCF   x2B,F
08EC:  INCF   00,F
08EE:  BZ    0988
08F0:  BTFSS  x2B.7
08F2:  BRA    090A
08F4:  INCF   x2C,F
08F6:  BNZ   090A
08F8:  INCF   x2D,F
08FA:  BNZ   090A
08FC:  INCF   x2E,F
08FE:  BNZ   090A
0900:  RRCF   x2E,F
0902:  RRCF   x2D,F
0904:  RRCF   x2C,F
0906:  INCF   00,F
0908:  BZ    0988
090A:  BTFSC  x2A.6
090C:  BRA    0816
090E:  BTFSC  x2A.7
0910:  BRA    089E
0912:  BRA    094C
0914:  MOVLW  80
0916:  XORWF  x2E,F
0918:  BTFSS  x2E.7
091A:  BRA    0924
091C:  BRA    0992
091E:  MOVFF  225,229
0922:  BRA    0938
0924:  MOVFF  221,229
0928:  MOVF   x2E,F
092A:  BNZ   0938
092C:  MOVF   x2D,F
092E:  BNZ   0938
0930:  MOVF   x2C,F
0932:  BNZ   0938
0934:  CLRF   00
0936:  BRA    097A
0938:  BTFSC  x2E.7
093A:  BRA    094C
093C:  BCF    FD8.0
093E:  RLCF   x2B,F
0940:  RLCF   x2C,F
0942:  RLCF   x2D,F
0944:  RLCF   x2E,F
0946:  DECFSZ 00,F
0948:  BRA    0938
094A:  BRA    0988
094C:  BTFSS  x29.7
094E:  BRA    0954
0950:  BSF    x2E.7
0952:  BRA    097A
0954:  BCF    x2E.7
0956:  BRA    097A
0958:  MOVFF  224,00
095C:  MOVFF  225,22E
0960:  MOVFF  226,22D
0964:  MOVFF  227,22C
0968:  BRA    097A
096A:  MOVFF  220,00
096E:  MOVFF  221,22E
0972:  MOVFF  222,22D
0976:  MOVFF  223,22C
097A:  MOVFF  22E,01
097E:  MOVFF  22D,02
0982:  MOVFF  22C,03
0986:  BRA    09F0
0988:  CLRF   00
098A:  CLRF   01
098C:  CLRF   02
098E:  CLRF   03
0990:  BRA    09F0
0992:  CLRF   x2B
0994:  COMF   x2C,F
0996:  COMF   x2D,F
0998:  COMF   x2E,F
099A:  COMF   x2B,F
099C:  INCF   x2B,F
099E:  BNZ   09AA
09A0:  INCF   x2C,F
09A2:  BNZ   09AA
09A4:  INCF   x2D,F
09A6:  BNZ   09AA
09A8:  INCF   x2E,F
09AA:  BTFSC  x2A.0
09AC:  BRA    07D2
09AE:  BTFSC  x2A.1
09B0:  BRA    085A
09B2:  BTFSC  x2A.2
09B4:  BRA    08C8
09B6:  BRA    091E
09B8:  MOVF   FEF,W
09BA:  ADDWF  x2C,F
09BC:  BNC   09C8
09BE:  INCF   x2D,F
09C0:  BNZ   09C8
09C2:  INCF   x2E,F
09C4:  BTFSC  FD8.2
09C6:  BSF    x28.0
09C8:  MOVF   FED,F
09CA:  MOVF   FEF,W
09CC:  ADDWF  x2D,F
09CE:  BNC   09D6
09D0:  INCF   x2E,F
09D2:  BTFSC  FD8.2
09D4:  BSF    x28.0
09D6:  MOVF   FED,F
09D8:  MOVF   FEF,W
09DA:  BTFSC  FEF.7
09DC:  BRA    09E0
09DE:  XORLW  80
09E0:  ADDWF  x2E,F
09E2:  BTFSC  FD8.0
09E4:  BSF    x28.0
09E6:  BTFSC  x2A.4
09E8:  BRA    07E2
09EA:  BTFSC  x2A.5
09EC:  BRA    086A
09EE:  BRA    08D8
09F0:  MOVLB  0
09F2:  RETURN 0
*
0A3E:  DATA 50,45
0A40:  DATA 52,46
0A42:  DATA 49,4C
0A44:  DATA 00,00
0A46:  DATA 50,52
0A48:  DATA 4F,46
0A4A:  DATA 49,4C
0A4C:  DATA 45,00
0A4E:  DATA 50,52
0A50:  DATA 4F,46
0A52:  DATA 49,4C
0A54:  DATA 00,00
0A56:  DATA CF,50
0A58:  DATA 4F,D4
0A5A:  DATA 5C,CB
0A5C:  DATA 00,00
0A5E:  DATA 43,52
0A60:  DATA 45,41
0A62:  DATA 52,00
0A64:  DATA 43,52
0A66:  DATA 45,41
0A68:  DATA 54,45
0A6A:  DATA 00,00
0A6C:  DATA 43,52
0A6E:  DATA C9,45
0A70:  DATA 52,00
0A72:  DATA 43,4F
0A74:  DATA 5B,C4
0A76:  DATA 41,42
0A78:  DATA 41,54
0A7A:  DATA DC,00
0A7C:  DATA 43,41
0A7E:  DATA 52,47
0A80:  DATA 41,52
0A82:  DATA 00,00
0A84:  DATA 4C,4F
0A86:  DATA 41,44
0A88:  DATA 00,00
0A8A:  DATA 43,48
0A8C:  DATA 41,52
0A8E:  DATA 47,45
0A90:  DATA 52,00
0A92:  DATA 48,41
0A94:  DATA C3,50
0A96:  DATA 59,5B
0A98:  DATA 4B,41
0A9A:  DATA 00,00
0A9C:  DATA 45,44
0A9E:  DATA 49,54
0AA0:  DATA 41,52
0AA2:  DATA 00,00
0AA4:  DATA 45,44
0AA6:  DATA 49,54
0AA8:  DATA 00,00
0AAA:  DATA C9,44
0AAC:  DATA 49,54
0AAE:  DATA 45,52
0AB0:  DATA 00,00
0AB2:  DATA 50,45
0AB4:  DATA C4,41
0AB6:  DATA 4B,54
0AB8:  DATA 5C,50
0ABA:  DATA 4F,42
0ABC:  DATA 41,54
0ABE:  DATA DC,00
0AC0:  DATA 0C,43
0AC2:  DATA 41,52
0AC4:  DATA 47,41
0AC6:  DATA 52,20
0AC8:  DATA 56,41
0ACA:  DATA 4C,4F
0ACC:  DATA 52,45
0ACE:  DATA 53,3A
0AD0:  DATA 00,00
0AD2:  DATA 50,55
0AD4:  DATA 4E,54
0AD6:  DATA 4F,00
0AD8:  DATA 50,4F
0ADA:  DATA 49,4E
0ADC:  DATA 54,00
0ADE:  DATA 50,4F
0AE0:  DATA 49,4E
0AE2:  DATA 54,00
0AE4:  DATA 54,4F
0AE6:  DATA D7,4B
0AE8:  DATA 41,00
0AEA:  DATA 50,55
0AEC:  DATA 4E,54
0AEE:  DATA 4F,20
0AF0:  DATA 4E,4F
0AF2:  DATA 20,56
0AF4:  DATA 41,4C
0AF6:  DATA 49,44
0AF8:  DATA 4F,00
0AFA:  DATA 50,4F
0AFC:  DATA 49,4E
0AFE:  DATA 54,20
0B00:  DATA 4E,4F
0B02:  DATA 54,20
0B04:  DATA 56,41
0B06:  DATA 4C,49
0B08:  DATA 44,00
0B0A:  DATA 50,4F
0B0C:  DATA 49,4E
0B0E:  DATA 54,20
0B10:  DATA 4E,4F
0B12:  DATA 4E,20
0B14:  DATA 56,41
0B16:  DATA 4C,49
0B18:  DATA 44,45
0B1A:  DATA 00,00
0B1C:  DATA 54,4F
0B1E:  DATA D7,4B
0B20:  DATA 41,20
0B22:  DATA 48,45
0B24:  DATA 0A,C4
0B26:  DATA 45,5D
0B28:  DATA 43,54
0B2A:  DATA 42,5C
0B2C:  DATA 54,45
0B2E:  DATA CB,DC
0B30:  DATA 48,41
0B32:  DATA 00,00
*
0B3A:  MOVFF  1D4,01
0B3E:  MOVFF  1D3,00
0B42:  TSTFSZ 00
0B44:  INCF   01,F
0B46:  TBLRD*+
0B48:  MOVFF  FF5,FEE
0B4C:  DECFSZ 00,F
0B4E:  BRA    0B46
0B50:  DECFSZ 01,F
0B52:  BRA    0B46
0B54:  CLRF   FF8
0B56:  RETURN 0
*
0CE0:  MOVLB  1
0CE2:  MOVF   xF9,W
0CE4:  CLRF   01
0CE6:  SUBWF  xF8,W
0CE8:  BC    0CF0
0CEA:  MOVFF  1F8,00
0CEE:  BRA    0D08
0CF0:  CLRF   00
0CF2:  MOVLW  08
0CF4:  MOVWF  xFA
0CF6:  RLCF   xF8,F
0CF8:  RLCF   00,F
0CFA:  MOVF   xF9,W
0CFC:  SUBWF  00,W
0CFE:  BTFSC  FD8.0
0D00:  MOVWF  00
0D02:  RLCF   01,F
0D04:  DECFSZ xFA,F
0D06:  BRA    0CF6
0D08:  MOVLB  0
0D0A:  RETURN 0
*
0DE2:  ADDWF  FE8,W
0DE4:  CLRF   FF7
0DE6:  RLCF   FF7,F
0DE8:  ADDLW  FD
0DEA:  MOVWF  FF6
0DEC:  MOVLW  0D
0DEE:  ADDWFC FF7,F
0DF0:  TBLRD*-
0DF2:  MOVF   FF5,W
0DF4:  MOVWF  FFA
0DF6:  TBLRD*
0DF8:  MOVF   FF5,W
0DFA:  MOVWF  FF9
0DFC:  DATA 24,0D
0DFE:  DATA 3A,0D
0E00:  DATA 50,0D
0E02:  DATA 60,0D
*
0E8E:  MOVLB  2
0E90:  CLRF   x1A
0E92:  CLRF   x1B
0E94:  MOVLW  01
0E96:  MOVWF  x1C
0E98:  CLRF   FDA
0E9A:  CLRF   FD9
0E9C:  MOVLW  02
0E9E:  MOVWF  x1F
0EA0:  MOVLW  12
0EA2:  MOVWF  x1E
0EA4:  MOVLW  02
0EA6:  MOVWF  FEA
0EA8:  MOVLW  16
0EAA:  MOVWF  FE9
0EAC:  MOVFF  21F,FE2
0EB0:  MOVFF  21E,FE1
0EB4:  MOVFF  21C,21D
0EB8:  BCF    FD8.0
0EBA:  MOVF   FE5,W
0EBC:  MULWF  FEE
0EBE:  MOVF   FF3,W
0EC0:  ADDWFC x1A,F
0EC2:  MOVF   FF4,W
0EC4:  ADDWFC x1B,F
0EC6:  DECFSZ x1D,F
0EC8:  BRA    0EB8
0ECA:  MOVFF  21A,FDE
0ECE:  MOVFF  21B,21A
0ED2:  CLRF   x1B
0ED4:  BTFSC  FD8.0
0ED6:  INCF   x1B,F
0ED8:  INCF   x1E,F
0EDA:  BTFSC  FD8.2
0EDC:  INCF   x1F,F
0EDE:  INCF   x1C,F
0EE0:  MOVF   x1C,W
0EE2:  SUBLW  05
0EE4:  BNZ   0EA4
0EE6:  MOVLB  0
0EE8:  GOTO   0FA6 (RETURN)
*
10F8:  MOVLB  2
10FA:  MOVF   x06,W
10FC:  MULWF  x08
10FE:  MOVFF  FF3,01
1102:  MOVFF  FF4,00
1106:  MULWF  x09
1108:  MOVF   FF3,W
110A:  ADDWF  00,F
110C:  MOVF   x07,W
110E:  MULWF  x08
1110:  MOVF   FF3,W
1112:  ADDWFC 00,W
1114:  MOVWF  02
1116:  MOVLB  0
1118:  RETURN 0
*
1398:  TBLRD*+
139A:  MOVF   FF5,F
139C:  BZ    13B6
139E:  MOVFF  FF6,1F3
13A2:  MOVFF  FF7,1F4
13A6:  MOVFF  FF5,1F5
13AA:  RCALL  121A
13AC:  MOVFF  1F3,FF6
13B0:  MOVFF  1F4,FF7
13B4:  BRA    1398
13B6:  RETURN 0
*
147E:  MOVLW  8E
1480:  MOVWF  00
1482:  MOVFF  206,01
1486:  MOVFF  205,02
148A:  CLRF   03
148C:  MOVF   01,F
148E:  BNZ   14A2
1490:  MOVFF  02,01
1494:  CLRF   02
1496:  MOVLW  08
1498:  SUBWF  00,F
149A:  MOVF   01,F
149C:  BNZ   14A2
149E:  CLRF   00
14A0:  BRA    14B2
14A2:  BCF    FD8.0
14A4:  BTFSC  01.7
14A6:  BRA    14B0
14A8:  RLCF   02,F
14AA:  RLCF   01,F
14AC:  DECF   00,F
14AE:  BRA    14A2
14B0:  BCF    01.7
14B2:  RETURN 0
14B4:  MOVLB  2
14B6:  MOVF   x03,W
14B8:  BTFSC  FD8.2
14BA:  BRA    1606
14BC:  MOVWF  x0F
14BE:  MOVF   x07,W
14C0:  BTFSC  FD8.2
14C2:  BRA    1606
14C4:  SUBWF  x0F,F
14C6:  BNC   14D2
14C8:  MOVLW  7F
14CA:  ADDWF  x0F,F
14CC:  BTFSC  FD8.0
14CE:  BRA    1606
14D0:  BRA    14DE
14D2:  MOVLW  81
14D4:  SUBWF  x0F,F
14D6:  BTFSS  FD8.0
14D8:  BRA    1606
14DA:  BTFSC  FD8.2
14DC:  BRA    1606
14DE:  MOVFF  20F,00
14E2:  CLRF   01
14E4:  CLRF   02
14E6:  CLRF   03
14E8:  CLRF   x0E
14EA:  MOVFF  204,20D
14EE:  BSF    x0D.7
14F0:  MOVFF  205,20C
14F4:  MOVFF  206,20B
14F8:  MOVLW  19
14FA:  MOVWF  x0F
14FC:  MOVF   x0A,W
14FE:  SUBWF  x0B,F
1500:  BC    151C
1502:  MOVLW  01
1504:  SUBWF  x0C,F
1506:  BC    151C
1508:  SUBWF  x0D,F
150A:  BC    151C
150C:  SUBWF  x0E,F
150E:  BC    151C
1510:  INCF   x0E,F
1512:  INCF   x0D,F
1514:  INCF   x0C,F
1516:  MOVF   x0A,W
1518:  ADDWF  x0B,F
151A:  BRA    156C
151C:  MOVF   x09,W
151E:  SUBWF  x0C,F
1520:  BC    1546
1522:  MOVLW  01
1524:  SUBWF  x0D,F
1526:  BC    1546
1528:  SUBWF  x0E,F
152A:  BC    1546
152C:  INCF   x0E,F
152E:  INCF   x0D,F
1530:  MOVF   x09,W
1532:  ADDWF  x0C,F
1534:  MOVF   x0A,W
1536:  ADDWF  x0B,F
1538:  BNC   156C
153A:  INCF   x0C,F
153C:  BNZ   156C
153E:  INCF   x0D,F
1540:  BNZ   156C
1542:  INCF   x0E,F
1544:  BRA    156C
1546:  MOVF   x08,W
1548:  IORLW  80
154A:  SUBWF  x0D,F
154C:  BC    156A
154E:  MOVLW  01
1550:  SUBWF  x0E,F
1552:  BC    156A
1554:  INCF   x0E,F
1556:  MOVF   x08,W
1558:  IORLW  80
155A:  ADDWF  x0D,F
155C:  MOVF   x09,W
155E:  ADDWF  x0C,F
1560:  BNC   1534
1562:  INCF   x0D,F
1564:  BNZ   1534
1566:  INCF   x0E,F
1568:  BRA    1534
156A:  BSF    03.0
156C:  DECFSZ x0F,F
156E:  BRA    1572
1570:  BRA    1588
1572:  BCF    FD8.0
1574:  RLCF   x0B,F
1576:  RLCF   x0C,F
1578:  RLCF   x0D,F
157A:  RLCF   x0E,F
157C:  BCF    FD8.0
157E:  RLCF   03,F
1580:  RLCF   02,F
1582:  RLCF   01,F
1584:  RLCF   x10,F
1586:  BRA    14FC
1588:  BTFSS  x10.0
158A:  BRA    1598
158C:  BCF    FD8.0
158E:  RRCF   01,F
1590:  RRCF   02,F
1592:  RRCF   03,F
1594:  RRCF   x10,F
1596:  BRA    159C
1598:  DECF   00,F
159A:  BZ    1606
159C:  BTFSC  x10.7
159E:  BRA    15DC
15A0:  BCF    FD8.0
15A2:  RLCF   x0B,F
15A4:  RLCF   x0C,F
15A6:  RLCF   x0D,F
15A8:  RLCF   x0E,F
15AA:  MOVF   x0A,W
15AC:  SUBWF  x0B,F
15AE:  BC    15BE
15B0:  MOVLW  01
15B2:  SUBWF  x0C,F
15B4:  BC    15BE
15B6:  SUBWF  x0D,F
15B8:  BC    15BE
15BA:  SUBWF  x0E,F
15BC:  BNC   15F2
15BE:  MOVF   x09,W
15C0:  SUBWF  x0C,F
15C2:  BC    15CE
15C4:  MOVLW  01
15C6:  SUBWF  x0D,F
15C8:  BC    15CE
15CA:  SUBWF  x0E,F
15CC:  BNC   15F2
15CE:  MOVF   x08,W
15D0:  IORLW  80
15D2:  SUBWF  x0D,F
15D4:  BC    15DC
15D6:  MOVLW  01
15D8:  SUBWF  x0E,F
15DA:  BNC   15F2
15DC:  INCF   03,F
15DE:  BNZ   15F2
15E0:  INCF   02,F
15E2:  BNZ   15F2
15E4:  INCF   01,F
15E6:  BNZ   15F2
15E8:  INCF   00,F
15EA:  BZ    1606
15EC:  RRCF   01,F
15EE:  RRCF   02,F
15F0:  RRCF   03,F
15F2:  MOVFF  204,20F
15F6:  MOVF   x08,W
15F8:  XORWF  x0F,F
15FA:  BTFSS  x0F.7
15FC:  BRA    1602
15FE:  BSF    01.7
1600:  BRA    160E
1602:  BCF    01.7
1604:  BRA    160E
1606:  CLRF   00
1608:  CLRF   01
160A:  CLRF   02
160C:  CLRF   03
160E:  MOVLB  0
1610:  RETURN 0
*
1730:  TBLRD*+
1732:  MOVFF  FF6,1CD
1736:  MOVFF  FF7,1CE
173A:  MOVFF  FF5,1F5
173E:  RCALL  121A
1740:  MOVFF  1CD,FF6
1744:  MOVFF  1CE,FF7
1748:  MOVLB  1
174A:  DECFSZ xCC,F
174C:  BRA    1750
174E:  BRA    1754
1750:  MOVLB  0
1752:  BRA    1730
1754:  MOVLB  0
1756:  RETURN 0
1758:  MOVLB  2
175A:  MOVF   x05,W
175C:  BTFSC  FD8.2
175E:  BRA    1842
1760:  MOVWF  00
1762:  MOVF   x09,W
1764:  BTFSC  FD8.2
1766:  BRA    1842
1768:  ADDWF  00,F
176A:  BNC   1774
176C:  MOVLW  81
176E:  ADDWF  00,F
1770:  BC    1842
1772:  BRA    177C
1774:  MOVLW  7F
1776:  SUBWF  00,F
1778:  BNC   1842
177A:  BZ    1842
177C:  MOVFF  206,20D
1780:  MOVF   x0A,W
1782:  XORWF  x0D,F
1784:  BSF    x06.7
1786:  BSF    x0A.7
1788:  MOVF   x08,W
178A:  MULWF  x0C
178C:  MOVFF  FF4,20F
1790:  MOVF   x07,W
1792:  MULWF  x0B
1794:  MOVFF  FF4,03
1798:  MOVFF  FF3,20E
179C:  MULWF  x0C
179E:  MOVF   FF3,W
17A0:  ADDWF  x0F,F
17A2:  MOVF   FF4,W
17A4:  ADDWFC x0E,F
17A6:  MOVLW  00
17A8:  ADDWFC 03,F
17AA:  MOVF   x08,W
17AC:  MULWF  x0B
17AE:  MOVF   FF3,W
17B0:  ADDWF  x0F,F
17B2:  MOVF   FF4,W
17B4:  ADDWFC x0E,F
17B6:  MOVLW  00
17B8:  CLRF   02
17BA:  ADDWFC 03,F
17BC:  ADDWFC 02,F
17BE:  MOVF   x06,W
17C0:  MULWF  x0C
17C2:  MOVF   FF3,W
17C4:  ADDWF  x0E,F
17C6:  MOVF   FF4,W
17C8:  ADDWFC 03,F
17CA:  MOVLW  00
17CC:  ADDWFC 02,F
17CE:  MOVF   x06,W
17D0:  MULWF  x0B
17D2:  MOVF   FF3,W
17D4:  ADDWF  03,F
17D6:  MOVF   FF4,W
17D8:  ADDWFC 02,F
17DA:  MOVLW  00
17DC:  CLRF   01
17DE:  ADDWFC 01,F
17E0:  MOVF   x08,W
17E2:  MULWF  x0A
17E4:  MOVF   FF3,W
17E6:  ADDWF  x0E,F
17E8:  MOVF   FF4,W
17EA:  ADDWFC 03,F
17EC:  MOVLW  00
17EE:  ADDWFC 02,F
17F0:  ADDWFC 01,F
17F2:  MOVF   x07,W
17F4:  MULWF  x0A
17F6:  MOVF   FF3,W
17F8:  ADDWF  03,F
17FA:  MOVF   FF4,W
17FC:  ADDWFC 02,F
17FE:  MOVLW  00
1800:  ADDWFC 01,F
1802:  MOVF   x06,W
1804:  MULWF  x0A
1806:  MOVF   FF3,W
1808:  ADDWF  02,F
180A:  MOVF   FF4,W
180C:  ADDWFC 01,F
180E:  INCF   00,F
1810:  BTFSC  01.7
1812:  BRA    181E
1814:  RLCF   x0E,F
1816:  RLCF   03,F
1818:  RLCF   02,F
181A:  RLCF   01,F
181C:  DECF   00,F
181E:  MOVLW  00
1820:  BTFSS  x0E.7
1822:  BRA    1838
1824:  INCF   03,F
1826:  ADDWFC 02,F
1828:  ADDWFC 01,F
182A:  MOVF   01,W
182C:  BNZ   1838
182E:  MOVF   02,W
1830:  BNZ   1838
1832:  MOVF   03,W
1834:  BNZ   1838
1836:  INCF   00,F
1838:  BTFSC  x0D.7
183A:  BSF    01.7
183C:  BTFSS  x0D.7
183E:  BCF    01.7
1840:  BRA    184A
1842:  CLRF   00
1844:  CLRF   01
1846:  CLRF   02
1848:  CLRF   03
184A:  MOVLB  0
184C:  RETURN 0
184E:  MOVLB  1
1850:  MOVF   xD9,W
1852:  SUBLW  B6
1854:  MOVWF  xD9
1856:  CLRF   03
1858:  MOVFF  1DA,1DD
185C:  BSF    xDA.7
185E:  BCF    FD8.0
1860:  RRCF   xDA,F
1862:  RRCF   xDB,F
1864:  RRCF   xDC,F
1866:  RRCF   03,F
1868:  RRCF   02,F
186A:  RRCF   01,F
186C:  RRCF   00,F
186E:  DECFSZ xD9,F
1870:  BRA    185E
1872:  BTFSS  xDD.7
1874:  BRA    188C
1876:  COMF   00,F
1878:  COMF   01,F
187A:  COMF   02,F
187C:  COMF   03,F
187E:  INCF   00,F
1880:  BTFSC  FD8.2
1882:  INCF   01,F
1884:  BTFSC  FD8.2
1886:  INCF   02,F
1888:  BTFSC  FD8.2
188A:  INCF   03,F
188C:  MOVLB  0
188E:  GOTO   197E (RETURN)
1892:  BTFSC  FD8.1
1894:  BRA    189E
1896:  MOVLW  01
1898:  MOVWF  FEA
189A:  MOVLW  E1
189C:  MOVWF  FE9
189E:  CLRF   00
18A0:  CLRF   01
18A2:  CLRF   02
18A4:  CLRF   03
18A6:  MOVLB  1
18A8:  CLRF   xE1
18AA:  CLRF   xE2
18AC:  CLRF   xE3
18AE:  CLRF   xE4
18B0:  MOVF   xE0,W
18B2:  IORWF  xDF,W
18B4:  IORWF  xDE,W
18B6:  IORWF  xDD,W
18B8:  BZ    1912
18BA:  MOVLW  20
18BC:  MOVWF  xE5
18BE:  BCF    FD8.0
18C0:  RLCF   xD9,F
18C2:  RLCF   xDA,F
18C4:  RLCF   xDB,F
18C6:  RLCF   xDC,F
18C8:  RLCF   xE1,F
18CA:  RLCF   xE2,F
18CC:  RLCF   xE3,F
18CE:  RLCF   xE4,F
18D0:  MOVF   xE0,W
18D2:  SUBWF  xE4,W
18D4:  BNZ   18E6
18D6:  MOVF   xDF,W
18D8:  SUBWF  xE3,W
18DA:  BNZ   18E6
18DC:  MOVF   xDE,W
18DE:  SUBWF  xE2,W
18E0:  BNZ   18E6
18E2:  MOVF   xDD,W
18E4:  SUBWF  xE1,W
18E6:  BNC   1906
18E8:  MOVF   xDD,W
18EA:  SUBWF  xE1,F
18EC:  MOVF   xDE,W
18EE:  BTFSS  FD8.0
18F0:  INCFSZ xDE,W
18F2:  SUBWF  xE2,F
18F4:  MOVF   xDF,W
18F6:  BTFSS  FD8.0
18F8:  INCFSZ xDF,W
18FA:  SUBWF  xE3,F
18FC:  MOVF   xE0,W
18FE:  BTFSS  FD8.0
1900:  INCFSZ xE0,W
1902:  SUBWF  xE4,F
1904:  BSF    FD8.0
1906:  RLCF   00,F
1908:  RLCF   01,F
190A:  RLCF   02,F
190C:  RLCF   03,F
190E:  DECFSZ xE5,F
1910:  BRA    18BE
1912:  MOVFF  1E1,FEF
1916:  MOVFF  1E2,FEC
191A:  MOVFF  1E3,FEC
191E:  MOVFF  1E4,FEC
1922:  MOVLB  0
1924:  RETURN 0
1926:  MOVF   FE9,W
1928:  MOVLB  1
192A:  MOVWF  xD1
192C:  MOVF   xD0,W
192E:  MOVWF  xD3
1930:  BZ    196A
1932:  MOVFF  1CF,208
1936:  MOVFF  1CE,207
193A:  MOVFF  1CD,206
193E:  MOVFF  1CC,205
1942:  MOVLB  2
1944:  CLRF   x0C
1946:  CLRF   x0B
1948:  MOVLW  20
194A:  MOVWF  x0A
194C:  MOVLW  82
194E:  MOVWF  x09
1950:  MOVLB  0
1952:  RCALL  1758
1954:  MOVFF  03,1CF
1958:  MOVFF  02,1CE
195C:  MOVFF  01,1CD
1960:  MOVFF  00,1CC
1964:  MOVLB  1
1966:  DECFSZ xD3,F
1968:  BRA    1932
196A:  MOVFF  1CF,1DC
196E:  MOVFF  1CE,1DB
1972:  MOVFF  1CD,1DA
1976:  MOVFF  1CC,1D9
197A:  MOVLB  0
197C:  BRA    184E
197E:  MOVFF  03,1CF
1982:  MOVFF  02,1CE
1986:  MOVFF  01,1CD
198A:  MOVFF  00,1CC
198E:  MOVLB  1
1990:  BTFSS  xCF.7
1992:  BRA    19AE
1994:  DECF   xD1,F
1996:  BSF    xD1.5
1998:  COMF   xCC,F
199A:  COMF   xCD,F
199C:  COMF   xCE,F
199E:  COMF   xCF,F
19A0:  INCF   xCC,F
19A2:  BTFSC  FD8.2
19A4:  INCF   xCD,F
19A6:  BTFSC  FD8.2
19A8:  INCF   xCE,F
19AA:  BTFSC  FD8.2
19AC:  INCF   xCF,F
19AE:  MOVLW  3B
19B0:  MOVWF  xD8
19B2:  MOVLW  9A
19B4:  MOVWF  xD7
19B6:  MOVLW  CA
19B8:  MOVWF  xD6
19BA:  CLRF   xD5
19BC:  MOVLW  0A
19BE:  MOVWF  xD3
19C0:  MOVF   xD0,W
19C2:  BTFSC  FD8.2
19C4:  INCF   xD1,F
19C6:  BSF    FD8.1
19C8:  MOVLW  01
19CA:  MOVWF  FEA
19CC:  MOVLW  CC
19CE:  MOVWF  FE9
19D0:  MOVFF  1CF,1DC
19D4:  MOVFF  1CE,1DB
19D8:  MOVFF  1CD,1DA
19DC:  MOVFF  1CC,1D9
19E0:  MOVFF  1D8,1E0
19E4:  MOVFF  1D7,1DF
19E8:  MOVFF  1D6,1DE
19EC:  MOVFF  1D5,1DD
19F0:  MOVLB  0
19F2:  RCALL  1892
19F4:  MOVF   01,W
19F6:  MOVF   00,F
19F8:  BNZ   1A20
19FA:  MOVLB  1
19FC:  INCF   xD0,W
19FE:  SUBWF  xD3,W
1A00:  BTFSS  FD8.2
1A02:  BRA    1A08
1A04:  MOVLB  0
1A06:  BRA    1A20
1A08:  MOVF   xD1,W
1A0A:  BZ    1A26
1A0C:  ANDLW  0F
1A0E:  SUBWF  xD3,W
1A10:  BZ    1A14
1A12:  BC    1A9C
1A14:  BTFSC  xD1.7
1A16:  BRA    1A9C
1A18:  BTFSC  xD1.6
1A1A:  BRA    1A26
1A1C:  MOVLW  20
1A1E:  BRA    1A8E
1A20:  MOVLW  20
1A22:  MOVLB  1
1A24:  ANDWF  xD1,F
1A26:  BTFSS  xD1.5
1A28:  BRA    1A48
1A2A:  BCF    xD1.5
1A2C:  MOVF   xD0,W
1A2E:  BTFSS  FD8.2
1A30:  DECF   xD1,F
1A32:  MOVF   00,W
1A34:  MOVWF  xD1
1A36:  MOVLW  2D
1A38:  MOVWF  xF5
1A3A:  MOVLB  0
1A3C:  CALL   121A
1A40:  MOVLB  1
1A42:  MOVF   xD1,W
1A44:  MOVWF  00
1A46:  CLRF   xD1
1A48:  MOVF   xD0,W
1A4A:  SUBWF  xD3,W
1A4C:  BNZ   1A68
1A4E:  MOVF   00,W
1A50:  MOVWF  xD1
1A52:  MOVLW  2E
1A54:  MOVWF  xF5
1A56:  MOVLB  0
1A58:  CALL   121A
1A5C:  MOVLB  1
1A5E:  MOVF   xD1,W
1A60:  MOVWF  00
1A62:  MOVLW  20
1A64:  ANDWF  xD1,F
1A66:  MOVLW  00
1A68:  MOVLW  30
1A6A:  BTFSS  xD1.5
1A6C:  BRA    1A8E
1A6E:  BCF    xD1.5
1A70:  MOVF   xD0,W
1A72:  BTFSS  FD8.2
1A74:  DECF   xD1,F
1A76:  MOVF   00,W
1A78:  MOVWF  xD1
1A7A:  MOVLW  2D
1A7C:  MOVWF  xF5
1A7E:  MOVLB  0
1A80:  CALL   121A
1A84:  MOVLB  1
1A86:  MOVF   xD1,W
1A88:  MOVWF  00
1A8A:  CLRF   xD1
1A8C:  MOVLW  30
1A8E:  ADDWF  00,F
1A90:  MOVFF  00,1F5
1A94:  MOVLB  0
1A96:  CALL   121A
1A9A:  MOVLB  1
1A9C:  BCF    FD8.1
1A9E:  MOVFF  1D8,1DC
1AA2:  MOVFF  1D7,1DB
1AA6:  MOVFF  1D6,1DA
1AAA:  MOVFF  1D5,1D9
1AAE:  CLRF   xE0
1AB0:  CLRF   xDF
1AB2:  CLRF   xDE
1AB4:  MOVLW  0A
1AB6:  MOVWF  xDD
1AB8:  MOVLB  0
1ABA:  RCALL  1892
1ABC:  MOVFF  03,1D8
1AC0:  MOVFF  02,1D7
1AC4:  MOVFF  01,1D6
1AC8:  MOVFF  00,1D5
1ACC:  MOVLB  1
1ACE:  DECFSZ xD3,F
1AD0:  BRA    19C6
1AD2:  MOVLB  0
1AD4:  RETURN 0
1AD6:  MOVLB  1
1AD8:  BTFSC  xCD.7
1ADA:  BRA    1B00
1ADC:  MOVLW  0F
1ADE:  MOVWF  00
1AE0:  SWAPF  xCC,W
1AE2:  ANDWF  00,F
1AE4:  MOVLW  0A
1AE6:  SUBWF  00,W
1AE8:  BC    1AF0
1AEA:  MOVLW  30
1AEC:  ADDWF  00,F
1AEE:  BRA    1AF4
1AF0:  MOVF   xCD,W
1AF2:  ADDWF  00,F
1AF4:  MOVFF  00,1F5
1AF8:  MOVLB  0
1AFA:  CALL   121A
1AFE:  MOVLB  1
1B00:  MOVLW  0F
1B02:  ANDWF  xCC,F
1B04:  MOVLW  0A
1B06:  SUBWF  xCC,W
1B08:  BC    1B0E
1B0A:  MOVLW  30
1B0C:  BRA    1B12
1B0E:  BCF    xCD.7
1B10:  MOVF   xCD,W
1B12:  ADDWF  xCC,F
1B14:  MOVFF  1CC,1F5
1B18:  MOVLB  0
1B1A:  CALL   121A
1B1E:  GOTO   1CB0 (RETURN)
1B22:  MOVFF  202,209
1B26:  MOVLB  2
1B28:  MOVF   x06,W
1B2A:  XORWF  x09,F
1B2C:  BTFSS  x09.7
1B2E:  BRA    1B3A
1B30:  BCF    FD8.2
1B32:  BCF    FD8.0
1B34:  BTFSC  x02.7
1B36:  BSF    FD8.0
1B38:  BRA    1B98
1B3A:  MOVFF  202,209
1B3E:  MOVFF  205,20A
1B42:  MOVF   x01,W
1B44:  SUBWF  x0A,F
1B46:  BZ    1B54
1B48:  BTFSS  x09.7
1B4A:  BRA    1B98
1B4C:  MOVF   FD8,W
1B4E:  XORLW  01
1B50:  MOVWF  FD8
1B52:  BRA    1B98
1B54:  MOVFF  206,20A
1B58:  MOVF   x02,W
1B5A:  SUBWF  x0A,F
1B5C:  BZ    1B6A
1B5E:  BTFSS  x09.7
1B60:  BRA    1B98
1B62:  MOVF   FD8,W
1B64:  XORLW  01
1B66:  MOVWF  FD8
1B68:  BRA    1B98
1B6A:  MOVFF  207,20A
1B6E:  MOVF   x03,W
1B70:  SUBWF  x0A,F
1B72:  BZ    1B80
1B74:  BTFSS  x09.7
1B76:  BRA    1B98
1B78:  MOVF   FD8,W
1B7A:  XORLW  01
1B7C:  MOVWF  FD8
1B7E:  BRA    1B98
1B80:  MOVFF  208,20A
1B84:  MOVF   x04,W
1B86:  SUBWF  x0A,F
1B88:  BZ    1B96
1B8A:  BTFSS  x09.7
1B8C:  BRA    1B98
1B8E:  MOVF   FD8,W
1B90:  XORLW  01
1B92:  MOVWF  FD8
1B94:  BRA    1B98
1B96:  BCF    FD8.0
1B98:  MOVLB  0
1B9A:  RETURN 0
*
20DE:  ADDWF  FE8,W
20E0:  CLRF   FF7
20E2:  RLCF   FF7,F
20E4:  ADDLW  F9
20E6:  MOVWF  FF6
20E8:  MOVLW  20
20EA:  ADDWFC FF7,F
20EC:  TBLRD*-
20EE:  MOVF   FF5,W
20F0:  MOVWF  FFA
20F2:  TBLRD*
20F4:  MOVF   FF5,W
20F6:  MOVWF  FF9
20F8:  DATA A6,20
20FA:  DATA B4,20
20FC:  DATA C2,20
20FE:  DATA D0,20
*
2146:  ADDWF  FE8,W
2148:  CLRF   FF7
214A:  RLCF   FF7,F
214C:  ADDLW  61
214E:  MOVWF  FF6
2150:  MOVLW  21
2152:  ADDWFC FF7,F
2154:  TBLRD*-
2156:  MOVF   FF5,W
2158:  MOVWF  FFA
215A:  TBLRD*
215C:  MOVF   FF5,W
215E:  MOVWF  FF9
2160:  DATA 0E,21
2162:  DATA 1C,21
2164:  DATA 2A,21
2166:  DATA 38,21
*
223C:  ADDWF  FE8,W
223E:  CLRF   FF7
2240:  RLCF   FF7,F
2242:  ADDLW  57
2244:  MOVWF  FF6
2246:  MOVLW  22
2248:  ADDWFC FF7,F
224A:  TBLRD*-
224C:  MOVF   FF5,W
224E:  MOVWF  FFA
2250:  TBLRD*
2252:  MOVF   FF5,W
2254:  MOVWF  FF9
2256:  DATA 78,21
2258:  DATA 86,21
225A:  DATA 94,21
225C:  DATA A2,21
225E:  ADDWF  FE8,W
2260:  CLRF   FF7
2262:  RLCF   FF7,F
2264:  ADDLW  79
2266:  MOVWF  FF6
2268:  MOVLW  22
226A:  ADDWFC FF7,F
226C:  TBLRD*-
226E:  MOVF   FF5,W
2270:  MOVWF  FFA
2272:  TBLRD*
2274:  MOVF   FF5,W
2276:  MOVWF  FF9
2278:  DATA E4,21
227A:  DATA F2,21
227C:  DATA 00,22
227E:  DATA 0E,22
*
2330:  ADDWF  FE8,W
2332:  CLRF   FF7
2334:  RLCF   FF7,F
2336:  ADDLW  4B
2338:  MOVWF  FF6
233A:  MOVLW  23
233C:  ADDWFC FF7,F
233E:  TBLRD*-
2340:  MOVF   FF5,W
2342:  MOVWF  FFA
2344:  TBLRD*
2346:  MOVF   FF5,W
2348:  MOVWF  FF9
234A:  DATA F4,22
234C:  DATA 02,23
234E:  DATA 10,23
2350:  DATA 1E,23
*
263C:  ADDWF  FE8,W
263E:  CLRF   FF7
2640:  RLCF   FF7,F
2642:  ADDLW  57
2644:  MOVWF  FF6
2646:  MOVLW  26
2648:  ADDWFC FF7,F
264A:  TBLRD*-
264C:  MOVF   FF5,W
264E:  MOVWF  FFA
2650:  TBLRD*
2652:  MOVF   FF5,W
2654:  MOVWF  FF9
2656:  DATA F8,25
2658:  DATA 06,26
265A:  DATA 14,26
265C:  DATA 22,26
*
26DE:  MOVLW  8E
26E0:  MOVWF  00
26E2:  MOVLB  1
26E4:  MOVF   xFF,W
26E6:  SUBWF  00,F
26E8:  MOVFF  200,02
26EC:  MOVFF  201,01
26F0:  BSF    02.7
26F2:  MOVF   00,F
26F4:  BZ    2708
26F6:  BCF    FD8.0
26F8:  MOVF   02,F
26FA:  BNZ   2700
26FC:  MOVF   01,F
26FE:  BZ    2708
2700:  RRCF   02,F
2702:  RRCF   01,F
2704:  DECFSZ 00,F
2706:  BRA    26F6
2708:  MOVLB  2
270A:  BTFSS  x00.7
270C:  BRA    2718
270E:  COMF   01,F
2710:  COMF   02,F
2712:  INCF   01,F
2714:  BTFSC  FD8.2
2716:  INCF   02,F
2718:  MOVLB  0
271A:  RETURN 0
271C:  CLRF   01
271E:  CLRF   02
2720:  CLRF   00
2722:  CLRF   03
2724:  MOVLB  2
2726:  MOVF   x0C,W
2728:  BNZ   272E
272A:  MOVF   x0B,W
272C:  BZ    275E
272E:  MOVLW  10
2730:  MOVWF  x0D
2732:  BCF    FD8.0
2734:  RLCF   x09,F
2736:  RLCF   x0A,F
2738:  RLCF   00,F
273A:  RLCF   03,F
273C:  MOVF   x0C,W
273E:  SUBWF  03,W
2740:  BNZ   2746
2742:  MOVF   x0B,W
2744:  SUBWF  00,W
2746:  BNC   2756
2748:  MOVF   x0B,W
274A:  SUBWF  00,F
274C:  BTFSS  FD8.0
274E:  DECF   03,F
2750:  MOVF   x0C,W
2752:  SUBWF  03,F
2754:  BSF    FD8.0
2756:  RLCF   01,F
2758:  RLCF   02,F
275A:  DECFSZ x0D,F
275C:  BRA    2732
275E:  MOVLB  0
2760:  RETURN 0
*
33BA:  MOVFF  FEA,1F2
33BE:  MOVFF  FE9,1F1
33C2:  MOVLB  1
33C4:  SWAPF  xEB,W
33C6:  IORLW  F0
33C8:  MOVWF  xED
33CA:  ADDWF  xED,F
33CC:  ADDLW  E2
33CE:  MOVWF  xEE
33D0:  ADDLW  32
33D2:  MOVWF  xF0
33D4:  MOVF   xEB,W
33D6:  ANDLW  0F
33D8:  ADDWF  xEE,F
33DA:  ADDWF  xEE,F
33DC:  ADDWF  xF0,F
33DE:  ADDLW  E9
33E0:  MOVWF  xEF
33E2:  ADDWF  xEF,F
33E4:  ADDWF  xEF,F
33E6:  SWAPF  xEA,W
33E8:  ANDLW  0F
33EA:  ADDWF  xEF,F
33EC:  ADDWF  xF0,F
33EE:  RLCF   xEF,F
33F0:  RLCF   xF0,F
33F2:  COMF   xF0,F
33F4:  RLCF   xF0,F
33F6:  MOVF   xEA,W
33F8:  ANDLW  0F
33FA:  ADDWF  xF0,F
33FC:  RLCF   xED,F
33FE:  MOVLW  07
3400:  MOVWF  xEC
3402:  MOVLW  0A
3404:  DECF   xEF,F
3406:  ADDWF  xF0,F
3408:  BNC   3404
340A:  DECF   xEE,F
340C:  ADDWF  xEF,F
340E:  BNC   340A
3410:  DECF   xED,F
3412:  ADDWF  xEE,F
3414:  BNC   3410
3416:  DECF   xEC,F
3418:  ADDWF  xED,F
341A:  BNC   3416
341C:  MOVLW  01
341E:  MOVWF  FEA
3420:  MOVLW  EC
3422:  MOVWF  FE9
3424:  MOVLW  07
3426:  ANDWF  xF1,W
3428:  BCF    xF1.6
342A:  ADDWF  FE9,F
342C:  MOVLW  00
342E:  ADDWFC FEA,F
3430:  MOVF   FE9,W
3432:  SUBLW  F0
3434:  BNZ   343C
3436:  DECFSZ FEA,W
3438:  BRA    343C
343A:  BSF    xF1.6
343C:  MOVF   FEF,W
343E:  MOVWF  00
3440:  BNZ   3452
3442:  BTFSC  xF1.6
3444:  BRA    3452
3446:  BTFSC  xF1.4
3448:  BRA    3476
344A:  BTFSC  xF1.3
344C:  BRA    3452
344E:  MOVLW  20
3450:  BRA    3458
3452:  BSF    xF1.3
3454:  BCF    xF1.4
3456:  MOVLW  30
3458:  ADDWF  00,F
345A:  MOVFF  FEA,1EB
345E:  MOVFF  FE9,1EA
3462:  MOVFF  00,1F5
3466:  MOVLB  0
3468:  CALL   121A
346C:  MOVFF  1EB,FEA
3470:  MOVFF  1EA,FE9
3474:  MOVLB  1
3476:  MOVF   FEE,W
3478:  BTFSS  xF1.6
347A:  BRA    3430
347C:  MOVLB  0
347E:  RETURN 0
*
38CE:  MOVLW  20
38D0:  MOVLB  1
38D2:  BTFSS  xD1.4
38D4:  MOVLW  30
38D6:  MOVWF  xD2
38D8:  MOVFF  1D0,00
38DC:  BTFSS  xD0.7
38DE:  BRA    38F0
38E0:  COMF   00,F
38E2:  INCF   00,F
38E4:  MOVFF  00,1D0
38E8:  MOVLW  2D
38EA:  MOVWF  xD2
38EC:  BSF    xD1.7
38EE:  BSF    xD1.0
38F0:  MOVF   01,W
38F2:  MOVFF  1D0,1F8
38F6:  MOVLW  64
38F8:  MOVWF  xF9
38FA:  MOVLB  0
38FC:  CALL   0CE0
3900:  MOVFF  00,1D0
3904:  MOVLW  30
3906:  ADDWF  01,W
3908:  MOVLB  1
390A:  MOVWF  xD3
390C:  MOVFF  1D0,1F8
3910:  MOVLW  0A
3912:  MOVWF  xF9
3914:  MOVLB  0
3916:  CALL   0CE0
391A:  MOVLW  30
391C:  ADDWF  00,W
391E:  MOVLB  1
3920:  MOVWF  xD5
3922:  MOVLW  30
3924:  ADDWF  01,W
3926:  MOVWF  xD4
3928:  MOVFF  1D2,00
392C:  MOVLW  30
392E:  SUBWF  xD3,W
3930:  BZ    393A
3932:  BSF    xD1.1
3934:  BTFSC  xD1.7
3936:  BSF    xD1.2
3938:  BRA    395E
393A:  MOVFF  1D2,1D3
393E:  MOVLW  20
3940:  MOVWF  xD2
3942:  MOVLW  30
3944:  SUBWF  xD4,W
3946:  BZ    3950
3948:  BSF    xD1.0
394A:  BTFSC  xD1.7
394C:  BSF    xD1.1
394E:  BRA    395E
3950:  BTFSS  FD8.2
3952:  BSF    xD1.0
3954:  BNZ   395E
3956:  MOVFF  1D3,1D4
395A:  MOVLW  20
395C:  MOVWF  xD3
395E:  BTFSC  xD1.2
3960:  BRA    396C
3962:  BTFSC  xD1.1
3964:  BRA    3976
3966:  BTFSC  xD1.0
3968:  BRA    3980
396A:  BRA    398A
396C:  MOVFF  1D2,1F5
3970:  MOVLB  0
3972:  CALL   121A
3976:  MOVFF  1D3,1F5
397A:  MOVLB  0
397C:  CALL   121A
3980:  MOVFF  1D4,1F5
3984:  MOVLB  0
3986:  CALL   121A
398A:  MOVFF  1D5,1F5
398E:  MOVLB  0
3990:  CALL   121A
3994:  RETURN 0
*
3C82:  ADDWF  FE8,W
3C84:  CLRF   FF7
3C86:  RLCF   FF7,F
3C88:  ADDLW  9D
3C8A:  MOVWF  FF6
3C8C:  MOVLW  3C
3C8E:  ADDWFC FF7,F
3C90:  TBLRD*-
3C92:  MOVF   FF5,W
3C94:  MOVWF  FFA
3C96:  TBLRD*
3C98:  MOVF   FF5,W
3C9A:  MOVWF  FF9
3C9C:  DATA B0,3A
3C9E:  DATA BE,3A
3CA0:  DATA CC,3A
3CA2:  DATA DA,3A
3CA4:  ADDWF  FE8,W
3CA6:  CLRF   FF7
3CA8:  RLCF   FF7,F
3CAA:  ADDLW  BF
3CAC:  MOVWF  FF6
3CAE:  MOVLW  3C
3CB0:  ADDWFC FF7,F
3CB2:  TBLRD*-
3CB4:  MOVF   FF5,W
3CB6:  MOVWF  FFA
3CB8:  TBLRD*
3CBA:  MOVF   FF5,W
3CBC:  MOVWF  FF9
3CBE:  DATA 4A,3B
3CC0:  DATA 58,3B
3CC2:  DATA 66,3B
3CC4:  DATA 74,3B
3CC6:  ADDWF  FE8,W
3CC8:  CLRF   FF7
3CCA:  RLCF   FF7,F
3CCC:  ADDLW  E1
3CCE:  MOVWF  FF6
3CD0:  MOVLW  3C
3CD2:  ADDWFC FF7,F
3CD4:  TBLRD*-
3CD6:  MOVF   FF5,W
3CD8:  MOVWF  FFA
3CDA:  TBLRD*
3CDC:  MOVF   FF5,W
3CDE:  MOVWF  FF9
3CE0:  DATA E0,3B
3CE2:  DATA EE,3B
3CE4:  DATA FC,3B
3CE6:  DATA 0A,3C
3CE8:  ADDWF  FE8,W
3CEA:  CLRF   FF7
3CEC:  RLCF   FF7,F
3CEE:  ADDLW  03
3CF0:  MOVWF  FF6
3CF2:  MOVLW  3D
3CF4:  ADDWFC FF7,F
3CF6:  TBLRD*-
3CF8:  MOVF   FF5,W
3CFA:  MOVWF  FFA
3CFC:  TBLRD*
3CFE:  MOVF   FF5,W
3D00:  MOVWF  FF9
3D02:  DATA 30,3C
3D04:  DATA 3E,3C
3D06:  DATA 4C,3C
3D08:  DATA 5A,3C
*
3E80:  ADDWF  FE8,W
3E82:  CLRF   FF7
3E84:  RLCF   FF7,F
3E86:  ADDLW  9B
3E88:  MOVWF  FF6
3E8A:  MOVLW  3E
3E8C:  ADDWFC FF7,F
3E8E:  TBLRD*-
3E90:  MOVF   FF5,W
3E92:  MOVWF  FFA
3E94:  TBLRD*
3E96:  MOVF   FF5,W
3E98:  MOVWF  FF9
3E9A:  DATA 48,3E
3E9C:  DATA 56,3E
3E9E:  DATA 64,3E
3EA0:  DATA 72,3E
*
3EF4:  ADDWF  FE8,W
3EF6:  CLRF   FF7
3EF8:  RLCF   FF7,F
3EFA:  ADDLW  0F
3EFC:  MOVWF  FF6
3EFE:  MOVLW  3F
3F00:  ADDWFC FF7,F
3F02:  TBLRD*-
3F04:  MOVF   FF5,W
3F06:  MOVWF  FFA
3F08:  TBLRD*
3F0A:  MOVF   FF5,W
3F0C:  MOVWF  FF9
3F0E:  DATA BC,3E
3F10:  DATA CA,3E
3F12:  DATA D8,3E
3F14:  DATA E6,3E
*
3F68:  ADDWF  FE8,W
3F6A:  CLRF   FF7
3F6C:  RLCF   FF7,F
3F6E:  ADDLW  83
3F70:  MOVWF  FF6
3F72:  MOVLW  3F
3F74:  ADDWFC FF7,F
3F76:  TBLRD*-
3F78:  MOVF   FF5,W
3F7A:  MOVWF  FFA
3F7C:  TBLRD*
3F7E:  MOVF   FF5,W
3F80:  MOVWF  FF9
3F82:  DATA 30,3F
3F84:  DATA 3E,3F
3F86:  DATA 4C,3F
3F88:  DATA 5A,3F
*
4066:  ADDWF  FE8,W
4068:  CLRF   FF7
406A:  RLCF   FF7,F
406C:  ADDLW  81
406E:  MOVWF  FF6
4070:  MOVLW  40
4072:  ADDWFC FF7,F
4074:  TBLRD*-
4076:  MOVF   FF5,W
4078:  MOVWF  FFA
407A:  TBLRD*
407C:  MOVF   FF5,W
407E:  MOVWF  FF9
4080:  DATA 2E,40
4082:  DATA 3C,40
4084:  DATA 4A,40
4086:  DATA 58,40
*
40DA:  ADDWF  FE8,W
40DC:  CLRF   FF7
40DE:  RLCF   FF7,F
40E0:  ADDLW  F5
40E2:  MOVWF  FF6
40E4:  MOVLW  40
40E6:  ADDWFC FF7,F
40E8:  TBLRD*-
40EA:  MOVF   FF5,W
40EC:  MOVWF  FFA
40EE:  TBLRD*
40F0:  MOVF   FF5,W
40F2:  MOVWF  FF9
40F4:  DATA A2,40
40F6:  DATA B0,40
40F8:  DATA BE,40
40FA:  DATA CC,40
*
44E6:  ADDWF  FE8,W
44E8:  CLRF   FF7
44EA:  RLCF   FF7,F
44EC:  ADDLW  01
44EE:  MOVWF  FF6
44F0:  MOVLW  45
44F2:  ADDWFC FF7,F
44F4:  TBLRD*-
44F6:  MOVF   FF5,W
44F8:  MOVWF  FFA
44FA:  TBLRD*
44FC:  MOVF   FF5,W
44FE:  MOVWF  FF9
4500:  DATA 38,44
4502:  DATA 46,44
4504:  DATA 54,44
4506:  DATA 62,44
4508:  ADDWF  FE8,W
450A:  CLRF   FF7
450C:  RLCF   FF7,F
450E:  ADDLW  23
4510:  MOVWF  FF6
4512:  MOVLW  45
4514:  ADDWFC FF7,F
4516:  TBLRD*-
4518:  MOVF   FF5,W
451A:  MOVWF  FFA
451C:  TBLRD*
451E:  MOVF   FF5,W
4520:  MOVWF  FF9
4522:  DATA 92,44
4524:  DATA A0,44
4526:  DATA AE,44
4528:  DATA BC,44
*
4D90:  MOVLW  20
4D92:  MOVLB  1
4D94:  BTFSS  xDB.4
4D96:  MOVLW  30
4D98:  MOVWF  xDC
4D9A:  MOVFF  1DA,00
4D9E:  BTFSS  xDA.7
4DA0:  BRA    4DB2
4DA2:  COMF   00,F
4DA4:  INCF   00,F
4DA6:  MOVFF  00,1DA
4DAA:  MOVLW  2D
4DAC:  MOVWF  xDC
4DAE:  BSF    xDB.7
4DB0:  BSF    xDB.0
4DB2:  MOVF   01,W
4DB4:  MOVFF  1DA,1F8
4DB8:  MOVLW  64
4DBA:  MOVWF  xF9
4DBC:  MOVLB  0
4DBE:  CALL   0CE0
4DC2:  MOVFF  00,1DA
4DC6:  MOVLW  30
4DC8:  ADDWF  01,W
4DCA:  MOVLB  1
4DCC:  MOVWF  xDD
4DCE:  MOVFF  1DA,1F8
4DD2:  MOVLW  0A
4DD4:  MOVWF  xF9
4DD6:  MOVLB  0
4DD8:  CALL   0CE0
4DDC:  MOVLW  30
4DDE:  ADDWF  00,W
4DE0:  MOVLB  1
4DE2:  MOVWF  xDF
4DE4:  MOVLW  30
4DE6:  ADDWF  01,W
4DE8:  MOVWF  xDE
4DEA:  MOVFF  1DC,00
4DEE:  MOVLW  30
4DF0:  SUBWF  xDD,W
4DF2:  BZ    4DFC
4DF4:  BSF    xDB.1
4DF6:  BTFSC  xDB.7
4DF8:  BSF    xDB.2
4DFA:  BRA    4E20
4DFC:  BTFSC  xDB.2
4DFE:  BRA    4E20
4E00:  MOVFF  1DC,1DD
4E04:  BTFSC  xDB.1
4E06:  BRA    4E10
4E08:  MOVLW  30
4E0A:  SUBWF  xDE,W
4E0C:  BZ    4E16
4E0E:  BSF    xDB.0
4E10:  BTFSC  xDB.7
4E12:  BSF    xDB.1
4E14:  BRA    4E20
4E16:  BTFSS  FD8.2
4E18:  BSF    xDB.0
4E1A:  BTFSC  FD8.2
4E1C:  MOVFF  1DD,1DE
4E20:  BTFSC  xDB.2
4E22:  BRA    4E2E
4E24:  BTFSC  xDB.1
4E26:  BRA    4E38
4E28:  BTFSC  xDB.0
4E2A:  BRA    4E42
4E2C:  BRA    4E4C
4E2E:  MOVFF  1DC,1F5
4E32:  MOVLB  0
4E34:  CALL   121A
4E38:  MOVFF  1DD,1F5
4E3C:  MOVLB  0
4E3E:  CALL   121A
4E42:  MOVFF  1DE,1F5
4E46:  MOVLB  0
4E48:  CALL   121A
4E4C:  MOVFF  1DF,1F5
4E50:  MOVLB  0
4E52:  CALL   121A
4E56:  RETURN 0
*
5CC8:  ADDWF  FE8,W
5CCA:  CLRF   FF7
5CCC:  RLCF   FF7,F
5CCE:  ADDLW  E3
5CD0:  MOVWF  FF6
5CD2:  MOVLW  5C
5CD4:  ADDWFC FF7,F
5CD6:  TBLRD*-
5CD8:  MOVF   FF5,W
5CDA:  MOVWF  FFA
5CDC:  TBLRD*
5CDE:  MOVF   FF5,W
5CE0:  MOVWF  FF9
5CE2:  DATA 24,5B
5CE4:  DATA 32,5B
5CE6:  DATA 40,5B
5CE8:  DATA 4E,5B
*
5D3E:  ADDWF  FE8,W
5D40:  CLRF   FF7
5D42:  RLCF   FF7,F
5D44:  ADDLW  59
5D46:  MOVWF  FF6
5D48:  MOVLW  5D
5D4A:  ADDWFC FF7,F
5D4C:  TBLRD*-
5D4E:  MOVF   FF5,W
5D50:  MOVWF  FFA
5D52:  TBLRD*
5D54:  MOVF   FF5,W
5D56:  MOVWF  FF9
5D58:  DATA F8,5C
5D5A:  DATA 06,5D
5D5C:  DATA 14,5D
5D5E:  DATA 22,5D
*
5F0E:  ADDWF  FE8,W
5F10:  CLRF   FF7
5F12:  RLCF   FF7,F
5F14:  ADDLW  29
5F16:  MOVWF  FF6
5F18:  MOVLW  5F
5F1A:  ADDWFC FF7,F
5F1C:  TBLRD*-
5F1E:  MOVF   FF5,W
5F20:  MOVWF  FFA
5F22:  TBLRD*
5F24:  MOVF   FF5,W
5F26:  MOVWF  FF9
5F28:  DATA 96,5E
5F2A:  DATA A4,5E
5F2C:  DATA B2,5E
5F2E:  DATA C0,5E
*
5F9C:  ADDWF  FE8,W
5F9E:  CLRF   FF7
5FA0:  RLCF   FF7,F
5FA2:  ADDLW  B7
5FA4:  MOVWF  FF6
5FA6:  MOVLW  5F
5FA8:  ADDWFC FF7,F
5FAA:  TBLRD*-
5FAC:  MOVF   FF5,W
5FAE:  MOVWF  FFA
5FB0:  TBLRD*
5FB2:  MOVF   FF5,W
5FB4:  MOVWF  FF9
5FB6:  DATA 56,5F
5FB8:  DATA 64,5F
5FBA:  DATA 72,5F
5FBC:  DATA 80,5F
*
60E4:  ADDWF  FE8,W
60E6:  CLRF   FF7
60E8:  RLCF   FF7,F
60EA:  ADDLW  FF
60EC:  MOVWF  FF6
60EE:  MOVLW  60
60F0:  ADDWFC FF7,F
60F2:  TBLRD*-
60F4:  MOVF   FF5,W
60F6:  MOVWF  FFA
60F8:  TBLRD*
60FA:  MOVF   FF5,W
60FC:  MOVWF  FF9
60FE:  DATA 9C,60
6100:  DATA AA,60
6102:  DATA B8,60
6104:  DATA C6,60
*
631C:  MOVLW  B6
631E:  MOVWF  00
6320:  CLRF   03
6322:  CLRF   02
6324:  CLRF   01
6326:  MOVLB  1
6328:  MOVF   xEA,W
632A:  IORWF  xEB,W
632C:  IORWF  xEC,W
632E:  IORWF  xED,W
6330:  BNZ   6336
6332:  CLRF   00
6334:  BRA    6350
6336:  BCF    FD8.0
6338:  BTFSC  01.7
633A:  BRA    634E
633C:  RLCF   xEA,F
633E:  RLCF   xEB,F
6340:  RLCF   xEC,F
6342:  RLCF   xED,F
6344:  RLCF   03,F
6346:  RLCF   02,F
6348:  RLCF   01,F
634A:  DECFSZ 00,F
634C:  BRA    6336
634E:  BCF    01.7
6350:  MOVLB  0
6352:  GOTO   67AA (RETURN)
*
63EE:  ADDWF  FE8,W
63F0:  CLRF   FF7
63F2:  RLCF   FF7,F
63F4:  ADDLW  09
63F6:  MOVWF  FF6
63F8:  MOVLW  64
63FA:  ADDWFC FF7,F
63FC:  TBLRD*-
63FE:  MOVF   FF5,W
6400:  MOVWF  FFA
6402:  TBLRD*
6404:  MOVF   FF5,W
6406:  MOVWF  FF9
6408:  DATA A0,63
640A:  DATA AE,63
640C:  DATA BC,63
640E:  DATA CA,63
*
6ECE:  ADDWF  FE8,W
6ED0:  CLRF   FF7
6ED2:  RLCF   FF7,F
6ED4:  ADDLW  E9
6ED6:  MOVWF  FF6
6ED8:  MOVLW  6E
6EDA:  ADDWFC FF7,F
6EDC:  TBLRD*-
6EDE:  MOVF   FF5,W
6EE0:  MOVWF  FFA
6EE2:  TBLRD*
6EE4:  MOVF   FF5,W
6EE6:  MOVWF  FF9
6EE8:  DATA 90,6E
6EEA:  DATA 9E,6E
6EEC:  DATA AC,6E
6EEE:  DATA BA,6E
*
7528:  ADDWF  FE8,W
752A:  CLRF   FF7
752C:  RLCF   FF7,F
752E:  ADDLW  43
7530:  MOVWF  FF6
7532:  MOVLW  75
7534:  ADDWFC FF7,F
7536:  TBLRD*-
7538:  MOVF   FF5,W
753A:  MOVWF  FFA
753C:  TBLRD*
753E:  MOVF   FF5,W
7540:  MOVWF  FF9
7542:  DATA 08,73
7544:  DATA 14,73
7546:  DATA 34,73
7548:  DATA 40,73
754A:  DATA 4C,73
754C:  DATA 58,73
754E:  DATA 64,73
7550:  DATA 7C,73
7552:  DATA 88,73
7554:  DATA 94,73
7556:  DATA A0,73
7558:  DATA AC,73
755A:  DATA B8,73
755C:  DATA C4,73
755E:  DATA D0,73
7560:  DATA DC,73
7562:  DATA E8,73
7564:  DATA F4,73
7566:  DATA 00,74
7568:  DATA 0C,74
756A:  DATA 18,74
756C:  DATA 24,74
756E:  DATA 30,74
7570:  DATA 3C,74
7572:  DATA 48,74
7574:  DATA 54,74
7576:  DATA 60,74
7578:  DATA 6C,74
757A:  DATA 78,74
757C:  DATA 84,74
757E:  DATA A4,74
7580:  DATA C4,74
7582:  DATA D0,74
7584:  DATA F0,74
7586:  DATA 0C,75
....................  
.................... #list 
....................  
.................... #device ADC=10 
.................... #fuses nowdt, nolvp, NOPROTECT, NOPUT,NOBROWNOUT, NOWRT,NOWRTC, NOMCLR 
.................... #define freq 8000000 
.................... #use delay(int=freq) 
*
00D2:  MOVLW  02
00D4:  MOVWF  FEA
00D6:  MOVLW  22
00D8:  MOVWF  FE9
00DA:  MOVF   FEF,W
00DC:  BZ    00F8
00DE:  MOVLW  02
00E0:  MOVWF  01
00E2:  CLRF   00
00E4:  DECFSZ 00,F
00E6:  BRA    00E4
00E8:  DECFSZ 01,F
00EA:  BRA    00E2
00EC:  MOVLW  97
00EE:  MOVWF  00
00F0:  DECFSZ 00,F
00F2:  BRA    00F0
00F4:  DECFSZ FEF,F
00F6:  BRA    00DE
00F8:  RETURN 0
.................... #define presc 4 
.................... #use SPI(SPI1, MODE = 2, BITS = 8, STREAM = ST7789, BAUD = 4000000, FORCE_HW) 
*
0B58:  MOVF   FC9,W
0B5A:  MOVFF  21C,FC9
0B5E:  RRCF   FC7,W
0B60:  BNC   0B5E
0B62:  MOVFF  FC9,00
0B66:  RETURN 0
.................... #include "Globales_y_defs.c" 
.................... #ifndef _GLOBS_DEFS 
.................... #define _GLOBS_DEFS 
.................... struct Punto{ 
....................    unsigned int Temperatura; 
....................    unsigned long Tiempo; 
.................... }; 
.................... register int config=~read_eeprom(0x00); 
....................  
.................... //                         CONFIGURATION WORD 
.................... // _________________________________________________________________ 
.................... // | Bit 7 | Bit 6 | Bit 5 | Bit 4 | Bit 3 | Bit 2 | Bit 1 | Bit 0 | 
.................... // |_____Ultimo perfil_____|____Tiempo_____|_C/F_|____Idioma_____| 
....................  
.................... //TECLADO 
....................    //Filas 
....................    #define F0 PIN_C0 
....................    #define F1 PIN_C1 
....................    #define F2 PIN_B6 
....................    #define F3 PIN_B7 
....................    //Columnas 
....................    #define C0 PIN_B2 
....................    #define C1 PIN_B4 
....................    #define C2 PIN_B5 
....................    //Modos 
....................    #define Escaneo 1 
....................    #define Estatico 0 
....................    //Teclas 
....................    enum{_X=10,_TICK,_VISTO}; 
....................    int ultimaTecla; 
....................    //aux irs 
....................    int _ultimo = 0x30; 
.................... //HORNO 
....................    #define port_adc sAN0 
....................    #define SALIDA PIN_A6 
....................    //Variacion de histeresis 
....................    #define _H 2  
....................    //Constantes de calibracion 
....................    #define ESCALADO 0.30583152697 
....................    #define OFFSET 0 
....................    //Temperatura Minima 
....................    #define MINTEMP 32 
....................    //Chip select sensor de temperatura 
....................    #define CS2 PIN_A4 
....................    //Variables 
....................    float          dt;      //-> Diferencial de temperatura: Diferencia de temperatura entre la medida al inicio de la etapa y la deseada al final de la etapa, sobre el Num de saturaciones del timer1 hasta la proxima seccion de la curva 
....................    float          Setpoint;//-> Temperatura deseada 
....................    unsigned int32 cont;    //-> Numero de veces que saturo el timer1 
.................... //COMODIDAD 
....................    #define ON output_high 
....................    #define OFF output_low 
....................    #define FLT output_float  
.................... //LCD 
....................    #define TFT_DC    PIN_C6   // data/command pin 
....................    #define TFT_CS    PIN_A5   // chip select pin, use it if the display has CS pin 
....................    #define TFT_RST   PIN_C2   // display reset pin 
....................  
....................     
....................    int letra[65][5] = { 
....................       {0x00, 0x00, 0x00, 0x00, 0x00}, // Espacio 
....................       {0x00, 0x02, 0x05, 0x02, 0x00}, // ! ->  
....................       {0x3E, 0x41, 0xC1, 0x41, 0x22}, // " ->  
....................       {0x7C, 0x55, 0x56, 0x54, 0x54}, // # ->  ( con el tilde a la izq `) 
....................       {0x7C, 0x54, 0x56, 0x55, 0x54}, // $ ->  
....................       {0x30, 0x48, 0x45, 0x40, 0x20}, // % ->  (? invertido) 
....................       {0x20, 0x41, 0x3F, 0x01, 0x7F}, // & ->  (Lambda ruso) 
....................       {0x7F, 0x49, 0x49, 0x49, 0x73}, // ' ->  (B ruso) 
....................       {0x7F, 0x40, 0x7F, 0x40, 0xFF}, // ( ->  (Sh rusa) 
....................       {0x7F, 0x01, 0x01, 0x01, 0x03}, // ) ->  (Gama ruso) 
....................       {0x70, 0x29, 0x27, 0x21, 0x7f}, // * ->  (Delta ruso) 
....................       {0x7F, 0x48, 0x30, 0x00, 0x7F}, // + ->  (Bi ruso) 
....................       {0x00, 0x50, 0x30, 0x00, 0x00}, // , 
....................       {0x7F, 0x48, 0x48, 0x48, 0x38}, // - ->  (Mini b rusa) 
....................       {0x00, 0x30, 0x30, 0x00, 0x00}, // . 
....................       {0x7F, 0x08, 0x3E, 0x41, 0x3E}, // / ->  (Iu ruso) 
....................       {0x3E, 0x51, 0x49, 0x45, 0x3E}, // 0 
....................       {0x00, 0x42, 0x7F, 0x40, 0x00}, // 1 
....................       {0x42, 0x61, 0x51, 0x49, 0x46}, // 2 
....................       {0x21, 0x41, 0x45, 0x4B, 0x31}, // 3 
....................       {0x18, 0x14, 0x12, 0x7F, 0x10}, // 4 
....................       {0x27, 0x45, 0x45, 0x45, 0x39}, // 5 
....................       {0x3C, 0x4A, 0x49, 0x49, 0x30}, // 6 
....................       {0x01, 0x71, 0x09, 0x05, 0x03}, // 7 
....................       {0x36, 0x49, 0x49, 0x49, 0x36}, // 8 
....................       {0x06, 0x49, 0x49, 0x29, 0x1E}, // 9 
....................       {0x00, 0x36, 0x36, 0x00, 0x00}, // : 
....................       {0x7F, 0x01, 0x01, 0x01, 0x7F}, // ; ->  (Pi ruso) 
....................       {0x38, 0x44, 0x46, 0x45, 0x38}, // < ->  
....................       {0x7D, 0x0A, 0x12, 0x21, 0x7D}, // = ->  (Ee ~ + N) 
....................       {0x00, 0x41, 0x22, 0x14, 0x08}, // > 
....................       {0x02, 0x01, 0x51, 0x09, 0x06}, // ? 
....................       {0x46, 0x29, 0x19, 0x09, 0x7F}, // @ ->  (Ia ruso) 
....................       {0x7E, 0x11, 0x11, 0x11, 0x7E}, // A 
....................       {0x7F, 0x49, 0x49, 0x49, 0x36}, // B 
....................       {0x3E, 0x41, 0x41, 0x41, 0x22}, // C 
....................       {0x7F, 0x41, 0x41, 0x41, 0x3E}, // D 
....................       {0x7F, 0x49, 0x49, 0x49, 0X41}, // E 
....................       {0x7F, 0x09, 0x09, 0x09, 0x01}, // F 
....................       {0x3E, 0x41, 0x49, 0x49, 0x7A}, // G 
....................       {0x7F, 0x08, 0x08, 0x08, 0x7F}, // H 
....................       {0x00, 0x41, 0x7F, 0x41, 0x00}, // I 
....................       {0x20, 0x40, 0x41, 0x3F, 0x01}, // J 
....................       {0x7F, 0x08, 0x14, 0x22, 0x41}, // K 
....................       {0x7F, 0x40, 0x40, 0x40, 0x40}, // L 
....................       {0x7F, 0x02, 0x04, 0x02, 0x7F}, // M 
....................       {0x7F, 0x04, 0x08, 0x10, 0x7F}, // N 
....................       {0x3E, 0x41, 0x41, 0x41, 0x3E}, // O 
....................       {0x7F, 0x09, 0x09, 0x09, 0x06}, // P 
....................       {0x3E, 0x41, 0x51, 0x21, 0x5E}, // Q 
....................       {0x7F, 0x09, 0x19, 0x29, 0x46}, // R 
....................       {0x46, 0x49, 0x49, 0x49, 0x31}, // S 
....................       {0x01, 0x01, 0x7F, 0x01, 0x01}, // T 
....................       {0x3F, 0x40, 0x40, 0x40, 0x3F}, // U 
....................       {0x1F, 0x20, 0x40, 0x20, 0x1F}, // V 
....................       {0x3F, 0x40, 0x38, 0x40, 0x3F}, // W 
....................       {0x63, 0x14, 0x08, 0x14, 0x63}, // X 
....................       {0x07, 0x08, 0x70, 0x08, 0x07}, // Y 
....................       {0x61, 0x51, 0x49, 0x45, 0x43}, // Z 
....................       {0x41, 0x49, 0x49, 0x49, 0x36}, // [ ->  (Zeta ruso) 
....................       {0x7F, 0x10, 0x08, 0x04, 0x7F}, // \ ->  (I ruso) 
....................       {0x7C, 0x21, 0x12, 0x09, 0x7C}, // ] ->  (Ij ruso) 
....................       {0x1C, 0x22, 0x7F, 0x22, 0x1C}, // ^ ->  (Fi ruso) 
....................       {0x40, 0x40, 0x40, 0x40, 0x40}, // _  
....................       {0x07, 0x08, 0x08, 0x08, 0x7F}  // ` ->  (Ch ruso) 
....................    }; 
.................... #endif 
....................  
.................... #include "ST7789.c" 
.................... /////////////////////////////////////////////////////////////////////////// 
.................... ////                                                                   //// 
.................... ////                              ST7789.c                             //// 
.................... ////                                                                   //// 
.................... ////               ST7789 display driver for CCS C compiler            //// 
.................... ////                                                                   //// 
.................... /////////////////////////////////////////////////////////////////////////// 
.................... ////                                                                   //// 
.................... ////               This is a free software with NO WARRANTY.           //// 
.................... ////                     https://simple-circuit.com/                   //// 
.................... ////                                                                   //// 
.................... /////////////////////////////////////////////////////////////////////////// 
.................... /************************************************************************** 
....................   This is a library for several Adafruit displays based on ST77* drivers. 
....................  
....................   Works with the Adafruit 1.8" TFT Breakout w/SD card 
....................     ----> http://www.adafruit.com/products/358 
....................   The 1.8" TFT shield 
....................     ----> https://www.adafruit.com/product/802 
....................   The 1.44" TFT breakout 
....................     ----> https://www.adafruit.com/product/2088 
....................   as well as Adafruit raw 1.8" TFT display 
....................     ----> http://www.adafruit.com/products/618 
....................  
....................   Check out the links above for our tutorials and wiring diagrams. 
....................   These displays use SPI to communicate, 4 or 5 pins are required to 
....................   interface (RST is optional). 
....................  
....................   Adafruit invests time and resources providing this open source code, 
....................   please support Adafruit and open-source hardware by purchasing 
....................   products from Adafruit! 
....................  
....................   Written by Limor Fried/Ladyada for Adafruit Industries. 
....................   MIT license, all text above must be included in any redistribution 
....................  **************************************************************************/ 
....................  
.................... #include <stdint.h> 
.................... /////////////////////////////////////////////////////////////////////////// 
.................... ////                                                                   //// 
.................... ////                           stdint.h                                //// 
.................... ////                                                                   //// 
.................... //// Standard integer definitions.                                     //// 
.................... ////                                                                   //// 
.................... /////////////////////////////////////////////////////////////////////////// 
.................... ////        (C) Copyright 1996,2008 Custom Computer Services           //// 
.................... //// This source code may only be used by licensed users of the CCS C  //// 
.................... //// compiler.  This source code may only be distributed to other      //// 
.................... //// licensed users of the CCS C compiler.  No other use, reproduction //// 
.................... //// or distribution is permitted without written permission.          //// 
.................... //// Derivative programs created using this software in object code    //// 
.................... //// form are not restricted in any way.                               //// 
.................... /////////////////////////////////////////////////////////////////////////// 
....................  
.................... #ifndef _STDINT 
....................  
.................... #define _STDINT 
....................  
.................... //////////// exact width 
....................  
.................... typedef signed int8 int8_t; 
.................... typedef unsigned int8 uint8_t; 
.................... typedef signed int16 int16_t; 
.................... typedef unsigned int16 uint16_t; 
.................... typedef signed int32 int32_t; 
.................... typedef unsigned int32 uint32_t; 
....................  
.................... #if defined(__PCD__) 
.................... //typedef signed int24 int24_t; 
.................... //typedef unsigned int24 uint24_t; 
.................... typedef signed int64 int64_t; 
.................... typedef unsigned int64 uint64_t; 
.................... #endif 
....................  
.................... #define INT8_MAX  (127) 
.................... #define INT8_MIN  (-128) 
.................... #define UINT8_MAX (255) 
....................  
.................... #define INT16_MAX  (32767) 
.................... #define INT16_MIN  (-32768) 
.................... #define UINT16_MAX (65535) 
....................  
.................... #define INT32_MAX  (2147483647) 
.................... #define INT32_MIN  (-2147483648) 
.................... #define UINT32_MAX (4294967295) 
....................  
.................... #if defined(__PCD__) 
.................... //#define INT24_MAX  (8388607) 
.................... //#define INT24_MIN  (-8388608) 
.................... //#define UINT24_MAX (16777215) 
....................  
.................... #define INT64_MAX  (9223372036854775807) 
.................... #define INT64_MIN  (-9223372036854775808) 
.................... #define UINT64_MAX (18446744073709551615) 
.................... #endif 
....................  
.................... ///////// minimum width 
....................  
.................... typedef signed int8 int_least8_t; 
.................... typedef unsigned int8 uint_least8_t; 
.................... typedef signed int16 int_least16_t; 
.................... typedef unsigned int16 uint_least16_t; 
.................... typedef signed int32 int_least32_t; 
.................... typedef unsigned int32 uint_least32_t; 
....................  
.................... #if defined(__PCD__) 
.................... //typedef signed int24 int_least24_t; 
.................... //typedef unsigned int24 uint_least24_t; 
.................... typedef signed int64 int_least64_t; 
.................... typedef unsigned int64 uint_least64_t; 
.................... #endif 
....................  
.................... #define INT_LEAST8_MAX  (127) 
.................... #define INT_LEAST8_MIN  (-128) 
.................... #define UINT_LEAST8_MAX (255) 
....................  
.................... #define INT_LEAST16_MAX  (32767) 
.................... #define INT_LEAST16_MIN  (-32768) 
.................... #define UINT_LEAST16_MAX (65535) 
....................  
.................... #define INT_LEAST32_MAX  (2147483647) 
.................... #define INT_LEAST32_MIN  (-2147483648) 
.................... #define UINT_LEAST32_MAX (4294967295) 
....................  
.................... #if defined(__PCD__) 
.................... //#define INT_LEAST24_MAX  (8388607) 
.................... //#define INT_LEAST24_MIN  (-8388608) 
.................... //#define UINT_LEAST24_MAX (16777215) 
....................  
.................... #define INT_LEAST64_MAX  (9223372036854775807) 
.................... #define INT_LEAST64_MIN  (-9223372036854775808) 
.................... #define UINT_LEAST64_MAX (18446744073709551615) 
.................... #endif 
....................  
.................... ///////// fastest width 
....................  
.................... #if defined(__PCD__) 
.................... typedef signed int16 int_fast8_t; 
.................... typedef unsigned int16 uint_fast8_t; 
.................... #define INT_FAST8_MAX  (32767) 
.................... #define INT_FAST8_MIN  (-32768) 
.................... #define UINT_FAST8_MAX (65535) 
.................... typedef signed int16 int_fast16_t; 
.................... typedef unsigned int16 uint_fast16_t; 
.................... //typedef signed int24 int_fast24_t; 
.................... //typedef unsigned int24 uint_fast24_t; 
.................... typedef signed int64 int_fast64_t; 
.................... typedef unsigned int64 uint_fast64_t; 
.................... #else 
.................... typedef signed int8 int_fast8_t; 
.................... typedef unsigned int8 uint_fast8_t; 
.................... #define INT_FAST8_MAX  (127) 
.................... #define INT_FAST8_MIN  (-128) 
.................... #define UINT_FAST8_MAX (255) 
.................... typedef signed int16 int_fast16_t; 
.................... typedef unsigned int16 uint_fast16_t; 
.................... #endif 
....................  
.................... typedef signed int32 int_fast32_t; 
.................... typedef unsigned int32 uint_fast32_t; 
....................  
.................... #define INT_FAST16_MAX  (32767) 
.................... #define INT_FAST16_MIN  (-32768) 
.................... #define UINT_FAST16_MAX (65535) 
....................  
.................... #define INT_FAST32_MAX  (2147483647) 
.................... #define INT_FAST32_MIN  (-2147483648) 
.................... #define UINT_FAST32_MAX (4294967295) 
....................  
.................... #if defined(__PCD__) 
.................... //#define INT_FAST24_MAX  (8388607) 
.................... //#define INT_FAST24_MIN  (-8388608) 
.................... //#define UINT_FAST24_MAX (16777215) 
....................  
.................... #define INT_FAST64_MAX  (9223372036854775807) 
.................... #define INT_FAST64_MIN  (-9223372036854775808) 
.................... #define UINT_FAST64_MAX (18446744073709551615) 
.................... #endif 
....................  
.................... //////////// big enough to hold pointers (OPTIONAL) 
....................  
.................... #if defined(__PCD__) 
....................    typedef unsigned int32 uintptr_t; 
....................    typedef signed int32 intptr_t; 
.................... #else 
....................    typedef unsigned int16 uintptr_t; 
....................    typedef signed int16 intptr_t; 
.................... #endif 
....................  
.................... /// TODO: 
.................... /// INTPTRN_MIN INTPTRN_MAX UINTPTRN_MAX 
....................  
....................  
.................... /////////// greatest width (OPTIONAL) 
....................  
.................... /// TODO 
....................  
.................... /// intmax_t uintmax_t 
....................  
.................... /// INTMAXN_MIN INTMAXN_MAX UINTMAXN_MAX 
....................  
.................... /// INTMAX_C(value) UINTMAX_C(value) 
....................  
....................  
.................... #endif 
....................  
.................... #ifndef bool 
.................... #define bool int1 
.................... #endif 
....................  
.................... #define HEIGHT 240 
.................... #define WIDTH  240 
....................  
.................... #define ST_CMD_DELAY      0x80    // special signifier for command lists 
....................  
.................... #define ST77XX_NOP        0x00 
.................... #define ST77XX_SWRESET    0x01 
.................... #define ST77XX_RDDID      0x04 
.................... #define ST77XX_RDDST      0x09 
....................  
.................... #define ST77XX_SLPIN      0x10 
.................... #define ST77XX_SLPOUT     0x11 
.................... #define ST77XX_PTLON      0x12 
.................... #define ST77XX_NORON      0x13 
....................  
.................... #define ST77XX_INVOFF     0x20 
.................... #define ST77XX_INVON      0x21 
.................... #define ST77XX_DISPOFF    0x28 
.................... #define ST77XX_DISPON     0x29 
.................... #define ST77XX_CASET      0x2A 
.................... #define ST77XX_RASET      0x2B 
.................... #define ST77XX_RAMWR      0x2C 
.................... #define ST77XX_RAMRD      0x2E 
....................  
.................... #define ST77XX_PTLAR      0x30 
.................... #define ST77XX_COLMOD     0x3A 
.................... #define ST77XX_MADCTL     0x36 
....................  
.................... #define ST77XX_MADCTL_MY  0x80 
.................... #define ST77XX_MADCTL_MX  0x40 
.................... #define ST77XX_MADCTL_MV  0x20 
.................... #define ST77XX_MADCTL_ML  0x10 
.................... #define ST77XX_MADCTL_RGB 0x00 
....................  
.................... #define ST77XX_RDID1      0xDA 
.................... #define ST77XX_RDID2      0xDB 
.................... #define ST77XX_RDID3      0xDC 
.................... #define ST77XX_RDID4      0xDD 
....................  
.................... // Some ready-made 16-bit ('565') color settings: 
.................... #define   ST7789_BLACK   0x0000 
.................... #define   ST7789_BLUE    0x001F 
.................... #define   ST7789_RED     0xF800 
.................... #define   ST7789_GREEN   0x07E0 
.................... #define   ST7789_CYAN    0x07FF 
.................... #define   ST7789_MAGENTA 0xF81F 
.................... #define   ST7789_YELLOW  0xFFE0 
.................... #define   ST7789_WHITE   0xFFFF 
....................  
.................... uint16_t TX_COLOR = ST7789_WHITE; 
.................... uint16_t BG_COLOR = ST7789_BLACK; 
....................  
....................  
.................... #ifndef ST7789_SPI_XFER 
.................... #define ST7789_SPI_XFER(x) SPI_XFER(ST7789, x) 
.................... #endif 
....................  
.................... uint8_t 
....................   _width,     ///< Display width as modified by current rotation 
....................   _height,    ///< Display height as modified by current rotation 
....................   _xstart,    ///< Internal framebuffer X offset 
....................   _ystart,    ///< Internal framebuffer Y offset 
....................   _colstart,  ///< Some displays need this changed to offset 
....................   _rowstart,  ///< Some displays need this changed to offset 
....................   rotation,   ///< Display rotation (0 thru 3) 
....................   X_MAX, 
....................   X_BEGIN, 
....................   Y_MAX, 
....................   Y_BEGIN; 
....................  
.................... uint8_t X; 
.................... uint8_t Y; 
.................... uint8_t CARRIAGEX; 
.................... uint8_t CARRIAGEY; 
....................  
....................  
.................... // SCREEN INITIALIZATION *************************************************** 
....................  
.................... // Rather than a bazillion writecommand() and writedata() calls, screen 
.................... // initialization commands and arguments are organized in these tables 
.................... // stored in PROGMEM.  The table may look bulky, but that's mostly the 
.................... // formatting -- storage-wise this is hundreds of bytes more compact 
.................... // than the equivalent code.  Companion function follows. 
....................  
.................... #define ST7789_240x240_XSTART 0 
.................... #define ST7789_240x240_YSTART 80     //80 
....................  
.................... rom uint8_t 
....................   cmd_240x240[] =  {                // Init commands for 7789 screens 
....................     9,                              //  9 commands in list: 
....................     ST77XX_SWRESET,   ST_CMD_DELAY, //  1: Software reset, no args, w/delay 
....................       150,                          //    150 ms delay 
....................     ST77XX_SLPOUT ,   ST_CMD_DELAY, //  2: Out of sleep mode, no args, w/delay 
....................       255,                          //     255 = 500 ms delay 
....................     ST77XX_COLMOD , 1+ST_CMD_DELAY, //  3: Set color mode, 1 arg + delay: 
....................       0x55,                         //     16-bit color 
....................       10,                           //     10 ms delay 
....................     ST77XX_MADCTL , 1,              //  4: Mem access ctrl (directions), 1 arg: 
....................       0x08,                         //     Row/col addr, bottom-top refresh 
....................     ST77XX_CASET  , 4,              //  5: Column addr set, 4 args, no delay: 
....................       0x00, 
....................       ST7789_240x240_XSTART,        //     XSTART = 0 
....................       ((long)WIDTH+ST7789_240x240_XSTART)>>8, 
....................       (WIDTH+ST7789_240x240_XSTART)&0xFF,  //     XEND = 240 
....................     ST77XX_RASET  , 4,              //  6: Row addr set, 4 args, no delay: 
....................       0x00, 
....................       0,//ST7789_240x240_YSTART,             //     YSTART = 0 
....................       (HEIGHT+ST7789_240x240_YSTART)>>8, 
....................       (HEIGHT+ST7789_240x240_YSTART)&0xFF,  //     YEND = 240 
....................     ST77XX_INVON  ,   ST_CMD_DELAY,  //  7: hack 
....................       10, 
....................     ST77XX_NORON  ,   ST_CMD_DELAY, //  8: Normal display on, no args, w/delay 
....................       10,                           //     10 ms delay 
....................     ST77XX_DISPON ,   ST_CMD_DELAY, //  9: Main screen turn on, no args, delay 
....................     255 };                          //     255 = max (500 ms) delay 
....................  
.................... //*************************** User Functions ***************************// 
.................... void tft_init(void); 
....................  
.................... void drawPixel(uint16_t x, uint8_t y, uint16_t color); 
.................... void drawHLine(uint16_t x, uint8_t y, uint8_t w, uint16_t color); 
.................... void drawVLine(uint16_t x, uint8_t y, uint8_t h, uint16_t color); 
.................... void fillRect(uint16_t x, uint8_t y, uint8_t w, uint8_t h, uint16_t color); 
.................... void fillScreen(uint16_t color); 
.................... void setRotation(uint8_t m); 
.................... void invertDisplay(bool i); 
....................  
.................... void tft_putc(char c); 
.................... void printDisp(uint8_t x, uint8_t y, uint16_t color, uint16_t b_color, int ch[5]); 
.................... void tft_gotoxy(uint8_t x, uint8_t y); 
....................  
.................... //************************* Non User Functions *************************// 
.................... void startWrite(void); 
.................... void endWrite(void); 
.................... void displayInit(rom uint8_t *addr); 
.................... void writeCommand(uint8_t cmd); 
.................... void setAddrWindow(uint8_t x, uint8_t y, uint8_t w, uint8_t h); 
....................  
.................... /**************************************************************************/ 
.................... /*! 
....................     @brief  Call before issuing command(s) or data to display. Performs 
....................             chip-select (if required). Required 
....................             for all display types; not an SPI-specific function. 
.................... */ 
.................... /**************************************************************************/ 
.................... void startWrite(void) { 
....................   #ifdef TFT_CS 
....................     output_low(TFT_CS); 
*
0B34:  BCF    F92.5
0B36:  BCF    F89.5
....................   #endif 
0B38:  RETURN 0
.................... } 
....................  
.................... /**************************************************************************/ 
.................... /*! 
....................     @brief  Call after issuing command(s) or data to display. Performs 
....................             chip-deselect (if required). Required 
....................             for all display types; not an SPI-specific function. 
.................... */ 
.................... /**************************************************************************/ 
.................... void endWrite(void) { 
....................   #ifdef TFT_CS 
....................     output_high(TFT_CS); 
*
0B78:  BCF    F92.5
0B7A:  BSF    F89.5
....................   #endif 
0B7C:  RETURN 0
.................... } 
....................  
.................... /**************************************************************************/ 
.................... /*! 
....................     @brief  Write a single command byte to the display. Chip-select and 
....................             transaction must have been previously set -- this ONLY sets 
....................             the device to COMMAND mode, issues the byte and then restores 
....................             DATA mode. There is no corresponding explicit writeData() 
....................             function -- just use ST7789_SPI_XFER(). 
....................     @param  cmd  8-bit command to write. 
.................... */ 
.................... /**************************************************************************/ 
.................... void writeCommand(uint8_t cmd) { 
....................   output_low(TFT_DC); 
*
0B68:  BCF    F94.6
0B6A:  BCF    F8B.6
....................   ST7789_SPI_XFER(cmd); 
0B6C:  MOVFF  21B,21C
0B70:  RCALL  0B58
....................   output_high(TFT_DC); 
0B72:  BCF    F94.6
0B74:  BSF    F8B.6
0B76:  RETURN 0
.................... } 
....................  
.................... /**************************************************************************/ 
.................... /*! 
....................     @brief  Companion code to the initiliazation tables. Reads and issues 
....................             a series of LCD commands stored in ROM byte array. 
....................     @param  addr  Flash memory array with commands and data to send 
.................... */ 
.................... /**************************************************************************/ 
.................... void displayInit(rom uint8_t *addr){ 
....................   uint8_t  numCommands, numArgs; 
....................   uint16_t ms; 
....................   startWrite(); 
*
0B7E:  RCALL  0B34
....................  
....................   numCommands = *addr++;   // Number of commands to follow 
0B80:  MOVLB  1
0B82:  MOVF   xCD,W
0B84:  MOVWF  03
0B86:  MOVF   xCC,W
0B88:  INCF   xCC,F
0B8A:  BTFSC  FD8.2
0B8C:  INCF   xCD,F
0B8E:  MOVWF  FF6
0B90:  MOVFF  03,FF7
0B94:  CLRF   FF8
0B96:  MOVLW  01
0B98:  MOVWF  FEA
0B9A:  MOVLW  D2
0B9C:  MOVWF  FE9
0B9E:  CLRF   xD4
0BA0:  MOVLW  01
0BA2:  MOVWF  xD3
0BA4:  MOVLB  0
0BA6:  RCALL  0B3A
0BA8:  MOVFF  1D2,1CE
....................    
....................   while(numCommands--) {                 // For each command... 
0BAC:  MOVLB  1
0BAE:  MOVF   xCE,W
0BB0:  DECF   xCE,F
0BB2:  XORLW  00
0BB4:  BTFSC  FD8.2
0BB6:  BRA    0CD8
....................  
....................     writeCommand(*addr++); // Read, issue command 
0BB8:  MOVF   xCD,W
0BBA:  MOVWF  03
0BBC:  MOVF   xCC,W
0BBE:  INCF   xCC,F
0BC0:  BTFSC  FD8.2
0BC2:  INCF   xCD,F
0BC4:  MOVWF  FF6
0BC6:  MOVFF  03,FF7
0BCA:  CLRF   FF8
0BCC:  MOVLW  01
0BCE:  MOVWF  FEA
0BD0:  MOVLW  D2
0BD2:  MOVWF  FE9
0BD4:  CLRF   xD4
0BD6:  MOVLW  01
0BD8:  MOVWF  xD3
0BDA:  MOVLB  0
0BDC:  RCALL  0B3A
0BDE:  MOVFF  1D2,21B
0BE2:  RCALL  0B68
....................     numArgs  = *addr++;    // Number of args to follow 
0BE4:  MOVLB  1
0BE6:  MOVF   xCD,W
0BE8:  MOVWF  03
0BEA:  MOVF   xCC,W
0BEC:  INCF   xCC,F
0BEE:  BTFSC  FD8.2
0BF0:  INCF   xCD,F
0BF2:  MOVWF  FF6
0BF4:  MOVFF  03,FF7
0BF8:  CLRF   FF8
0BFA:  MOVLW  01
0BFC:  MOVWF  FEA
0BFE:  MOVLW  D2
0C00:  MOVWF  FE9
0C02:  CLRF   xD4
0C04:  MOVLW  01
0C06:  MOVWF  xD3
0C08:  MOVLB  0
0C0A:  RCALL  0B3A
0C0C:  MOVFF  1D2,1CF
....................     ms       = numArgs & ST_CMD_DELAY;   // If hibit set, delay follows args 
0C10:  MOVLB  1
0C12:  MOVF   xCF,W
0C14:  ANDLW  80
0C16:  MOVWF  xD0
0C18:  CLRF   xD1
....................     numArgs &= ~ST_CMD_DELAY;            // Mask out delay bit 
0C1A:  BCF    xCF.7
....................     while(numArgs--) {                   // For each argument... 
0C1C:  MOVF   xCF,W
0C1E:  DECF   xCF,F
0C20:  XORLW  00
0C22:  BZ    0C54
....................       ST7789_SPI_XFER(*addr++);   // Read, issue argument 
0C24:  MOVF   xCD,W
0C26:  MOVWF  03
0C28:  MOVF   xCC,W
0C2A:  INCF   xCC,F
0C2C:  BTFSC  FD8.2
0C2E:  INCF   xCD,F
0C30:  MOVWF  FF6
0C32:  MOVFF  03,FF7
0C36:  CLRF   FF8
0C38:  MOVLW  01
0C3A:  MOVWF  FEA
0C3C:  MOVLW  D2
0C3E:  MOVWF  FE9
0C40:  CLRF   xD4
0C42:  MOVLW  01
0C44:  MOVWF  xD3
0C46:  MOVLB  0
0C48:  RCALL  0B3A
0C4A:  MOVFF  1D2,21C
0C4E:  RCALL  0B58
0C50:  MOVLB  1
0C52:  BRA    0C1C
....................     } 
....................  
....................     if(ms) { 
0C54:  MOVF   xD0,W
0C56:  IORWF  xD1,W
0C58:  BZ    0CD6
....................       ms = *addr++; // Read post-command delay time (ms) 
0C5A:  MOVF   xCD,W
0C5C:  MOVWF  03
0C5E:  MOVF   xCC,W
0C60:  INCF   xCC,F
0C62:  BTFSC  FD8.2
0C64:  INCF   xCD,F
0C66:  MOVWF  FF6
0C68:  MOVFF  03,FF7
0C6C:  CLRF   FF8
0C6E:  MOVLW  01
0C70:  MOVWF  FEA
0C72:  MOVLW  D2
0C74:  MOVWF  FE9
0C76:  CLRF   xD4
0C78:  MOVLW  01
0C7A:  MOVWF  xD3
0C7C:  MOVLB  0
0C7E:  RCALL  0B3A
0C80:  MOVLB  1
0C82:  CLRF   xD1
0C84:  MOVFF  1D2,1D0
....................       if(ms == 255) ms = 500;     // If 255, delay for 500 ms 
0C88:  INCFSZ xD0,W
0C8A:  BRA    0C98
0C8C:  MOVF   xD1,F
0C8E:  BNZ   0C98
0C90:  MOVLW  01
0C92:  MOVWF  xD1
0C94:  MOVLW  F4
0C96:  MOVWF  xD0
....................       delay_ms(ms); 
0C98:  MOVFF  1D1,1D2
0C9C:  INCF   xD2,F
0C9E:  DECF   xD2,F
0CA0:  BTFSC  FD8.2
0CA2:  BRA    0CBE
0CA4:  CLRF   19
0CA6:  BTFSC  FF2.7
0CA8:  BSF    19.7
0CAA:  BCF    FF2.7
0CAC:  MOVLB  2
0CAE:  SETF   x22
0CB0:  MOVLB  0
0CB2:  CALL   00D2
0CB6:  BTFSC  19.7
0CB8:  BSF    FF2.7
0CBA:  MOVLB  1
0CBC:  BRA    0C9E
0CBE:  CLRF   19
0CC0:  BTFSC  FF2.7
0CC2:  BSF    19.7
0CC4:  BCF    FF2.7
0CC6:  MOVFF  1D0,222
0CCA:  MOVLB  0
0CCC:  CALL   00D2
0CD0:  BTFSC  19.7
0CD2:  BSF    FF2.7
0CD4:  MOVLB  1
....................     } 
0CD6:  BRA    0BAE
....................   } 
....................   endWrite(); 
0CD8:  MOVLB  0
0CDA:  RCALL  0B78
0CDC:  GOTO   108E (RETURN)
.................... } 
....................  
.................... /**************************************************************************/ 
.................... /*! 
....................     @brief  Initialization code for ST7789 display 
.................... */ 
.................... /**************************************************************************/ 
.................... void tft_init() { 
....................   #ifdef TFT_RST 
....................     output_high(TFT_RST); 
*
1022:  BCF    F94.2
1024:  BSF    F8B.2
....................     output_drive(TFT_RST); 
1026:  BCF    F94.2
1028:  CLRF   19
102A:  BTFSC  FF2.7
102C:  BSF    19.7
102E:  BCF    FF2.7
....................     delay_ms(100); 
1030:  MOVLW  64
1032:  MOVLB  2
1034:  MOVWF  x22
1036:  MOVLB  0
1038:  CALL   00D2
103C:  BTFSC  19.7
103E:  BSF    FF2.7
....................     output_low(TFT_RST); 
1040:  BCF    F94.2
1042:  BCF    F8B.2
1044:  CLRF   19
1046:  BTFSC  FF2.7
1048:  BSF    19.7
104A:  BCF    FF2.7
....................     delay_ms(100); 
104C:  MOVLW  64
104E:  MOVLB  2
1050:  MOVWF  x22
1052:  MOVLB  0
1054:  CALL   00D2
1058:  BTFSC  19.7
105A:  BSF    FF2.7
....................     output_high(TFT_RST); 
105C:  BCF    F94.2
105E:  BSF    F8B.2
1060:  CLRF   19
1062:  BTFSC  FF2.7
1064:  BSF    19.7
1066:  BCF    FF2.7
....................     delay_ms(200); 
1068:  MOVLW  C8
106A:  MOVLB  2
106C:  MOVWF  x22
106E:  MOVLB  0
1070:  CALL   00D2
1074:  BTFSC  19.7
1076:  BSF    FF2.7
....................   #endif 
....................  
....................   #ifdef TFT_CS 
....................     output_high(TFT_CS); 
1078:  BCF    F92.5
107A:  BSF    F89.5
....................     output_drive(TFT_CS); 
107C:  BCF    F92.5
....................   #endif 
....................  
....................   output_drive(TFT_DC); 
107E:  BCF    F94.6
....................  
....................   displayInit(cmd_240x240); 
1080:  MOVLW  7F
1082:  MOVLB  1
1084:  MOVWF  xCD
1086:  MOVLW  DC
1088:  MOVWF  xCC
108A:  MOVLB  0
108C:  BRA    0B7E
....................  
....................   _colstart = 53;//ST7789_240x240_XSTART; 
108E:  MOVLW  35
1090:  MOVLB  1
1092:  MOVWF  x76
....................   _rowstart = 40;//ST7789_240x240_YSTART; 
1094:  MOVLW  28
1096:  MOVWF  x77
....................   _height   = 135;//HEIGHT; 
1098:  MOVLW  87
109A:  MOVWF  x73
....................   _width    = 240;//WIDTH; 
109C:  MOVLW  F0
109E:  MOVWF  x72
....................    
....................   X = X_BEGIN; 
10A0:  MOVFF  17A,17D
....................   Y= Y_BEGIN; 
10A4:  MOVFF  17C,17E
....................   CARRIAGEX = X; 
10A8:  MOVFF  17D,17F
....................   CARRIAGEY = Y; 
10AC:  MOVFF  17E,180
....................    
....................   setRotation(3); 
10B0:  MOVLW  03
10B2:  MOVWF  xCC
10B4:  MOVLB  0
10B6:  BRA    0D0C
10B8:  CLRF   19
10BA:  BTFSC  FF2.7
10BC:  BSF    19.7
10BE:  BCF    FF2.7
....................   //invertDisplay(0); 
....................   delay_ms(1); 
10C0:  MOVLW  01
10C2:  MOVLB  2
10C4:  MOVWF  x22
10C6:  MOVLB  0
10C8:  CALL   00D2
10CC:  BTFSC  19.7
10CE:  BSF    FF2.7
....................   fillScreen(BG_COLOR); 
10D0:  MOVFF  171,1CD
10D4:  MOVFF  170,1CC
10D8:  RCALL  1004
10DA:  GOTO   1BAE (RETURN)
....................    
....................    
.................... } 
....................  
.................... /**************************************************************************/ 
.................... /*! 
....................   @brief  SPI displays set an address window rectangle for blitting pixels 
....................   @param  x  Top left corner x coordinate 
....................   @param  y  Top left corner x coordinate 
....................   @param  w  Width of window 
....................   @param  h  Height of window 
.................... */ 
.................... /**************************************************************************/ 
.................... void setAddrWindow(uint16_t x, uint8_t y, uint8_t w, uint8_t h) { 
....................   x += _xstart; 
*
0E04:  MOVLB  1
0E06:  MOVF   x74,W
0E08:  MOVLB  2
0E0A:  ADDWF  x12,F
0E0C:  MOVLW  00
0E0E:  ADDWFC x13,F
....................   uint8_t xHi = x>>8; 
....................   uint8_t xLo = x&0xFF; 
0E10:  MOVFF  213,217
0E14:  MOVFF  212,218
....................   x+=(w-1); 
0E18:  MOVLW  01
0E1A:  SUBWF  x15,W
0E1C:  ADDWF  x12,F
0E1E:  MOVLW  00
0E20:  ADDWFC x13,F
....................   uint8_t wHi = x>>8; 
....................   uint8_t wLo = x&0xFF; 
0E22:  MOVFF  213,219
0E26:  MOVFF  212,21A
....................   y += _ystart; 
0E2A:  MOVLB  1
0E2C:  MOVF   x75,W
0E2E:  MOVLB  2
0E30:  ADDWF  x14,F
....................  
....................   writeCommand(ST77XX_CASET); // Column addr set 
0E32:  MOVLW  2A
0E34:  MOVWF  x1B
0E36:  MOVLB  0
0E38:  RCALL  0B68
....................   ST7789_SPI_XFER(xHi); 
0E3A:  MOVFF  217,21C
0E3E:  RCALL  0B58
....................   ST7789_SPI_XFER(xLo); 
0E40:  MOVFF  218,21C
0E44:  RCALL  0B58
....................   ST7789_SPI_XFER(wHi); 
0E46:  MOVFF  219,21C
0E4A:  RCALL  0B58
....................   ST7789_SPI_XFER(wLo); 
0E4C:  MOVFF  21A,21C
0E50:  RCALL  0B58
....................  
....................   writeCommand(ST77XX_RASET); // Row addr set 
0E52:  MOVLW  2B
0E54:  MOVLB  2
0E56:  MOVWF  x1B
0E58:  MOVLB  0
0E5A:  RCALL  0B68
....................   ST7789_SPI_XFER(0); 
0E5C:  MOVLB  2
0E5E:  CLRF   x1C
0E60:  MOVLB  0
0E62:  RCALL  0B58
....................   ST7789_SPI_XFER(y); 
0E64:  MOVFF  214,21C
0E68:  RCALL  0B58
....................   ST7789_SPI_XFER(0); 
0E6A:  MOVLB  2
0E6C:  CLRF   x1C
0E6E:  MOVLB  0
0E70:  RCALL  0B58
....................   ST7789_SPI_XFER(y+h-1); 
0E72:  MOVLB  2
0E74:  MOVF   x16,W
0E76:  ADDWF  x14,W
0E78:  ADDLW  FF
0E7A:  MOVWF  x1B
0E7C:  MOVWF  x1C
0E7E:  MOVLB  0
0E80:  RCALL  0B58
....................  
....................   writeCommand(ST77XX_RAMWR); // write to RAM 
0E82:  MOVLW  2C
0E84:  MOVLB  2
0E86:  MOVWF  x1B
0E88:  MOVLB  0
0E8A:  RCALL  0B68
0E8C:  RETURN 0
.................... } 
....................  
.................... /**************************************************************************/ 
.................... /*! 
....................     @brief  Set origin of (0,0) and orientation of TFT display 
....................     @param  m  The index for rotation, from 0-3 inclusive 
.................... */ 
.................... /**************************************************************************/ 
.................... void setRotation(uint8_t m) { 
*
0D0C:  MOVLB  1
0D0E:  CLRF   xCD
....................   uint8_t madctl = 0; 
....................  
....................   rotation = m & 3; // can't be higher than 3 
0D10:  MOVF   xCC,W
0D12:  ANDLW  03
0D14:  MOVWF  x78
....................  
....................   switch (rotation) { 
0D16:  MOVF   x78,W
0D18:  ADDLW  FC
0D1A:  BC    0D7A
0D1C:  ADDLW  04
0D1E:  MOVLB  0
0D20:  GOTO   0DE2
....................    case 0: 
....................      madctl  = ST77XX_MADCTL_MX | ST77XX_MADCTL_MY | ST77XX_MADCTL_RGB; 
0D24:  MOVLW  C0
0D26:  MOVLB  1
0D28:  MOVWF  xCD
....................      _xstart = _colstart; 
0D2A:  MOVFF  176,174
....................      _ystart = _rowstart; 
0D2E:  MOVFF  177,175
....................      _width = WIDTH; 
0D32:  MOVLW  F0
0D34:  MOVWF  x72
....................      _height = HEIGHT; 
0D36:  MOVWF  x73
....................      break; 
0D38:  BRA    0D7A
....................    case 1: 
....................      madctl  = ST77XX_MADCTL_MY | ST77XX_MADCTL_MV | ST77XX_MADCTL_RGB; 
0D3A:  MOVLW  A0
0D3C:  MOVLB  1
0D3E:  MOVWF  xCD
....................      _xstart = _rowstart; 
0D40:  MOVFF  177,174
....................      _ystart = _colstart; 
0D44:  MOVFF  176,175
....................      _width = HEIGHT; 
0D48:  MOVLW  F0
0D4A:  MOVWF  x72
....................      _height = WIDTH; 
0D4C:  MOVWF  x73
....................       
....................      break; 
0D4E:  BRA    0D7A
....................   case 2: 
....................      madctl  = ST77XX_MADCTL_RGB; 
0D50:  MOVLB  1
0D52:  CLRF   xCD
....................      _xstart = 0; 
0D54:  CLRF   x74
....................      _ystart = 0; 
0D56:  CLRF   x75
....................      _width = WIDTH; 
0D58:  MOVLW  F0
0D5A:  MOVWF  x72
....................      _height = HEIGHT; 
0D5C:  MOVWF  x73
....................      break; 
0D5E:  BRA    0D7A
....................    case 3: 
....................      madctl  = ST77XX_MADCTL_MX | ST77XX_MADCTL_MV | ST77XX_MADCTL_RGB; 
0D60:  MOVLW  60
0D62:  MOVLB  1
0D64:  MOVWF  xCD
....................      _xstart = _rowstart; 
0D66:  MOVFF  177,174
....................      _ystart = _colstart; 
0D6A:  MOVFF  176,175
....................      _width = 240; 
0D6E:  MOVLW  F0
0D70:  MOVWF  x72
....................      _height = 135; 
0D72:  MOVLW  87
0D74:  MOVWF  x73
....................      break; 
0D76:  BRA    0D7A
0D78:  MOVLB  1
....................   } 
....................   X_MAX = ((_width/6)-2); 
0D7A:  MOVFF  172,1F8
0D7E:  MOVLW  06
0D80:  MOVWF  xF9
0D82:  MOVLB  0
0D84:  RCALL  0CE0
0D86:  MOVLW  02
0D88:  SUBWF  01,W
0D8A:  MOVLB  1
0D8C:  MOVWF  x79
....................   X_BEGIN = (_width/X_MAX)/2; 
0D8E:  MOVFF  172,1F8
0D92:  MOVFF  179,1F9
0D96:  MOVLB  0
0D98:  RCALL  0CE0
0D9A:  BCF    FD8.0
0D9C:  RRCF   01,W
0D9E:  MOVLB  1
0DA0:  MOVWF  x7A
....................   Y_MAX = ((_height/8)-1); 
0DA2:  RRCF   x73,W
0DA4:  MOVWF  00
0DA6:  RRCF   00,F
0DA8:  RRCF   00,F
0DAA:  MOVLW  1F
0DAC:  ANDWF  00,F
0DAE:  MOVF   00,W
0DB0:  ADDLW  FF
0DB2:  MOVWF  x7B
....................   Y_BEGIN = (_height/Y_MAX)+1; 
0DB4:  MOVFF  173,1F8
0DB8:  MOVFF  17B,1F9
0DBC:  MOVLB  0
0DBE:  RCALL  0CE0
0DC0:  MOVLW  01
0DC2:  ADDWF  01,W
0DC4:  MOVLB  1
0DC6:  MOVWF  x7C
....................   startWrite(); 
0DC8:  MOVLB  0
0DCA:  RCALL  0B34
....................   writeCommand(ST77XX_MADCTL); 
0DCC:  MOVLW  36
0DCE:  MOVLB  2
0DD0:  MOVWF  x1B
0DD2:  MOVLB  0
0DD4:  RCALL  0B68
....................   ST7789_SPI_XFER(madctl); 
0DD6:  MOVFF  1CD,21C
0DDA:  RCALL  0B58
....................   endWrite(); 
0DDC:  RCALL  0B78
0DDE:  GOTO   10B8 (RETURN)
.................... } 
....................  
.................... void drawPixel(uint16_t x, uint8_t y, uint16_t color) { 
....................   if((x < _width) && (y < _height)) { 
*
111A:  MOVLB  2
111C:  MOVF   x05,F
111E:  BNZ   1174
1120:  MOVLB  1
1122:  MOVF   x72,W
1124:  MOVLB  2
1126:  SUBWF  x04,W
1128:  BC    1174
112A:  MOVLB  1
112C:  MOVF   x73,W
112E:  MOVLB  2
1130:  SUBWF  x06,W
1132:  BC    1174
....................     startWrite(); 
1134:  MOVLB  0
1136:  RCALL  0B34
....................     setAddrWindow(x, y, 1, 1); 
1138:  MOVFF  205,213
113C:  MOVFF  204,212
1140:  MOVFF  206,214
1144:  MOVLW  01
1146:  MOVLB  2
1148:  MOVWF  x15
114A:  MOVWF  x16
114C:  MOVLB  0
114E:  RCALL  0E04
....................     ST7789_SPI_XFER(color >> 8); 
1150:  MOVFF  208,209
1154:  MOVLB  2
1156:  CLRF   x0A
1158:  MOVFF  208,21C
115C:  MOVLB  0
115E:  RCALL  0B58
....................     ST7789_SPI_XFER(color & 0xFF); 
1160:  MOVLB  2
1162:  MOVFF  207,209
1166:  CLRF   x0A
1168:  MOVFF  207,21C
116C:  MOVLB  0
116E:  RCALL  0B58
....................     endWrite(); 
1170:  RCALL  0B78
1172:  MOVLB  2
....................   } 
1174:  MOVLB  0
1176:  RETURN 0
.................... } 
....................  
.................... /**************************************************************************/ 
.................... /*! 
....................    @brief    Draw a perfectly horizontal line (this is often optimized in a subclass!) 
....................     @param    x   Left-most x coordinate 
....................     @param    y   Left-most y coordinate 
....................     @param    w   Width in pixels 
....................    @param    color 16-bit 5-6-5 Color to fill with 
.................... */ 
.................... /**************************************************************************/ 
.................... void drawHLine(uint16_t x, uint8_t y, uint8_t w, uint16_t color) { 
....................   if( (x < _width) && (y < _height) && w) {    
*
2396:  MOVLB  1
2398:  MOVF   xCE,F
239A:  BNZ   2432
239C:  MOVF   x72,W
239E:  SUBWF  xCD,W
23A0:  BC    2432
23A2:  MOVF   x73,W
23A4:  SUBWF  xCF,W
23A6:  BC    2432
23A8:  MOVF   xD0,F
23AA:  BZ    2432
....................     uint8_t hi = color >> 8, lo = color; 
23AC:  MOVFF  1D2,1D3
23B0:  MOVFF  1D1,1D4
....................  
....................     if((x >= _width) || (y >= _height)) 
23B4:  MOVF   xCE,F
23B6:  BNZ   23C4
23B8:  MOVF   x72,W
23BA:  SUBWF  xCD,W
23BC:  BC    23C4
23BE:  MOVF   x73,W
23C0:  SUBWF  xCF,W
23C2:  BNC   23C6
....................       return; 
23C4:  BRA    2432
....................     if((x + w - 1) >= _width)   
23C6:  MOVF   xD0,W
23C8:  ADDWF  xCD,W
23CA:  MOVWF  xD5
23CC:  MOVLW  00
23CE:  ADDWFC xCE,W
23D0:  MOVWF  xD6
23D2:  MOVLW  01
23D4:  SUBWF  xD5,F
23D6:  MOVLW  00
23D8:  SUBWFB xD6,F
23DA:  BNZ   23E2
23DC:  MOVF   x72,W
23DE:  SUBWF  xD5,W
23E0:  BNC   23E8
....................       w = _width  - x; 
23E2:  MOVF   xCD,W
23E4:  SUBWF  x72,W
23E6:  MOVWF  xD0
....................     startWrite(); 
23E8:  MOVLB  0
23EA:  CALL   0B34
....................     setAddrWindow(x, y, w, 1); 
23EE:  MOVFF  1CE,213
23F2:  MOVFF  1CD,212
23F6:  MOVFF  1CF,214
23FA:  MOVFF  1D0,215
23FE:  MOVLW  01
2400:  MOVLB  2
2402:  MOVWF  x16
2404:  MOVLB  0
2406:  CALL   0E04
....................     while (w--) { 
240A:  MOVLB  1
240C:  MOVF   xD0,W
240E:  DECF   xD0,F
2410:  XORLW  00
2412:  BZ    242A
....................       ST7789_SPI_XFER(hi); 
2414:  MOVFF  1D3,21C
2418:  MOVLB  0
241A:  CALL   0B58
....................       ST7789_SPI_XFER(lo); 
241E:  MOVFF  1D4,21C
2422:  CALL   0B58
2426:  BRA    240A
2428:  MOVLB  1
....................     } 
....................     endWrite(); 
242A:  MOVLB  0
242C:  CALL   0B78
2430:  MOVLB  1
....................   } 
2432:  MOVLB  0
2434:  RETURN 0
.................... } 
....................  
.................... /**************************************************************************/ 
.................... /*! 
....................    @brief    Draw a perfectly vertical line (this is often optimized in a subclass!) 
....................     @param    x   Top-most x coordinate 
....................     @param    y   Top-most y coordinate 
....................     @param    h   Height in pixels 
....................    @param    color 16-bit 5-6-5 Color to fill with 
.................... */ 
.................... /**************************************************************************/ 
.................... void drawVLine(uint16_t x, uint8_t y, uint8_t h, uint16_t color) { 
....................   if( (x < _width) && (y < _height) && h) {   
2436:  MOVLB  1
2438:  MOVF   xFF,F
243A:  BNZ   24C8
243C:  MOVF   x72,W
243E:  SUBWF  xFE,W
2440:  BC    24C8
2442:  MOVF   x73,W
2444:  MOVLB  2
2446:  SUBWF  x00,W
2448:  BTFSS  FD8.0
244A:  BRA    2450
244C:  MOVLB  1
244E:  BRA    24C8
2450:  MOVF   x01,F
2452:  BTFSS  FD8.2
2454:  BRA    245A
2456:  MOVLB  1
2458:  BRA    24C8
....................     uint8_t hi = color >> 8, lo = color; 
245A:  MOVFF  203,204
245E:  MOVFF  202,205
....................     if((y + h - 1) >= _height)  
2462:  MOVF   x01,W
2464:  ADDWF  x00,W
2466:  ADDLW  FF
2468:  MOVLB  1
246A:  SUBWF  x73,W
246C:  BZ    2470
246E:  BC    247E
....................       h = _height - y; 
2470:  MOVLB  2
2472:  MOVF   x00,W
2474:  MOVLB  1
2476:  SUBWF  x73,W
2478:  MOVLB  2
247A:  MOVWF  x01
247C:  MOVLB  1
....................     startWrite(); 
247E:  MOVLB  0
2480:  CALL   0B34
....................     setAddrWindow(x, y, 1, h); 
2484:  MOVFF  1FF,213
2488:  MOVFF  1FE,212
248C:  MOVFF  200,214
2490:  MOVLW  01
2492:  MOVLB  2
2494:  MOVWF  x15
2496:  MOVFF  201,216
249A:  MOVLB  0
249C:  CALL   0E04
....................     while (h--) { 
24A0:  MOVLB  2
24A2:  MOVF   x01,W
24A4:  DECF   x01,F
24A6:  XORLW  00
24A8:  BZ    24C0
....................       ST7789_SPI_XFER(hi); 
24AA:  MOVFF  204,21C
24AE:  MOVLB  0
24B0:  CALL   0B58
....................       ST7789_SPI_XFER(lo); 
24B4:  MOVFF  205,21C
24B8:  CALL   0B58
24BC:  BRA    24A0
24BE:  MOVLB  2
....................     } 
....................     endWrite(); 
24C0:  MOVLB  0
24C2:  CALL   0B78
24C6:  MOVLB  1
....................   } 
24C8:  MOVLB  0
24CA:  RETURN 0
.................... } 
....................  
.................... /**************************************************************************/ 
.................... /*! 
....................    @brief    Fill a rectangle completely with one color. Update in subclasses if desired! 
....................     @param    x   Top left corner x coordinate 
....................     @param    y   Top left corner y coordinate 
....................     @param    w   Width in pixels 
....................     @param    h   Height in pixels 
....................    @param    color 16-bit 5-6-5 Color to fill with 
.................... */ 
.................... /**************************************************************************/ 
.................... void fillRect(uint16_t x, uint8_t y, uint8_t w, uint8_t h, uint16_t color) { 
....................   if(w && h) {                            // Nonzero width and height?   
*
0EEC:  MOVLB  2
0EEE:  MOVF   x04,F
0EF0:  BTFSC  FD8.2
0EF2:  BRA    1000
0EF4:  MOVF   x05,F
0EF6:  BTFSC  FD8.2
0EF8:  BRA    1000
....................     uint8_t hi = color >> 8, lo = color; 
0EFA:  MOVFF  207,208
0EFE:  MOVFF  206,209
....................     if((x >= _width) || (y >= _height)) 
0F02:  MOVF   x02,F
0F04:  BNZ   0F1A
0F06:  MOVLB  1
0F08:  MOVF   x72,W
0F0A:  MOVLB  2
0F0C:  SUBWF  x01,W
0F0E:  BC    0F1A
0F10:  MOVLB  1
0F12:  MOVF   x73,W
0F14:  MOVLB  2
0F16:  SUBWF  x03,W
0F18:  BNC   0F1C
....................       return; 
0F1A:  BRA    1000
....................     if((x + w - 1) >= _width)   
0F1C:  MOVF   x04,W
0F1E:  ADDWF  x01,W
0F20:  MOVWF  x0E
0F22:  MOVLW  00
0F24:  ADDWFC x02,W
0F26:  MOVWF  x0F
0F28:  MOVLW  01
0F2A:  SUBWF  x0E,F
0F2C:  MOVLW  00
0F2E:  SUBWFB x0F,F
0F30:  BNZ   0F3C
0F32:  MOVLB  1
0F34:  MOVF   x72,W
0F36:  MOVLB  2
0F38:  SUBWF  x0E,W
0F3A:  BNC   0F46
....................       w = _width  - x; 
0F3C:  MOVF   x01,W
0F3E:  MOVLB  1
0F40:  SUBWF  x72,W
0F42:  MOVLB  2
0F44:  MOVWF  x04
....................     if((y + h - 1) >= _height)  
0F46:  MOVF   x05,W
0F48:  ADDWF  x03,W
0F4A:  ADDLW  FF
0F4C:  MOVLB  1
0F4E:  SUBWF  x73,W
0F50:  BZ    0F54
0F52:  BC    0F62
....................       h = _height - y; 
0F54:  MOVLB  2
0F56:  MOVF   x03,W
0F58:  MOVLB  1
0F5A:  SUBWF  x73,W
0F5C:  MOVLB  2
0F5E:  MOVWF  x05
0F60:  MOVLB  1
....................     startWrite(); 
0F62:  MOVLB  0
0F64:  RCALL  0B34
....................     setAddrWindow(x, y, w, h); 
0F66:  MOVFF  202,213
0F6A:  MOVFF  201,212
0F6E:  MOVFF  203,214
0F72:  MOVFF  204,215
0F76:  MOVFF  205,216
0F7A:  RCALL  0E04
....................     uint32_t px = (uint32_t)w * h; 
0F7C:  MOVLB  2
0F7E:  CLRF   x11
0F80:  CLRF   x10
0F82:  CLRF   x0F
0F84:  MOVFF  204,20E
0F88:  MOVFF  211,215
0F8C:  MOVFF  210,214
0F90:  MOVFF  20F,213
0F94:  MOVFF  204,212
0F98:  CLRF   x19
0F9A:  CLRF   x18
0F9C:  CLRF   x17
0F9E:  MOVFF  205,216
0FA2:  MOVLB  0
0FA4:  BRA    0E8E
0FA6:  MOVFF  03,20D
0FAA:  MOVFF  02,20C
0FAE:  MOVFF  01,20B
0FB2:  MOVFF  00,20A
....................     while (px--) { 
0FB6:  MOVLB  2
0FB8:  MOVFF  20D,03
0FBC:  MOVFF  20C,02
0FC0:  MOVFF  20B,01
0FC4:  MOVFF  20A,00
0FC8:  MOVLW  FF
0FCA:  ADDWF  x0A,F
0FCC:  BTFSS  FD8.0
0FCE:  ADDWF  x0B,F
0FD0:  BTFSS  FD8.0
0FD2:  ADDWF  x0C,F
0FD4:  BTFSS  FD8.0
0FD6:  ADDWF  x0D,F
0FD8:  MOVF   00,F
0FDA:  BNZ   0FE8
0FDC:  MOVF   01,F
0FDE:  BNZ   0FE8
0FE0:  MOVF   02,F
0FE2:  BNZ   0FE8
0FE4:  MOVF   03,F
0FE6:  BZ    0FFA
....................       ST7789_SPI_XFER(hi); 
0FE8:  MOVFF  208,21C
0FEC:  MOVLB  0
0FEE:  RCALL  0B58
....................       ST7789_SPI_XFER(lo); 
0FF0:  MOVFF  209,21C
0FF4:  RCALL  0B58
0FF6:  BRA    0FB6
0FF8:  MOVLB  2
....................     } 
....................     endWrite(); 
0FFA:  MOVLB  0
0FFC:  RCALL  0B78
0FFE:  MOVLB  2
....................   } 
1000:  MOVLB  0
1002:  RETURN 0
.................... } 
....................  
.................... /**************************************************************************/ 
.................... /*! 
....................    @brief    Fill the screen completely with one color. Update in subclasses if desired! 
....................     @param    color 16-bit 5-6-5 Color to fill with 
.................... */ 
.................... /**************************************************************************/ 
.................... void fillScreen(uint16_t color) { 
....................     fillRect(0, 0, _width, _height, color); 
1004:  MOVLB  2
1006:  CLRF   x02
1008:  CLRF   x01
100A:  CLRF   x03
100C:  MOVFF  172,204
1010:  MOVFF  173,205
1014:  MOVFF  1CD,207
1018:  MOVFF  1CC,206
101C:  MOVLB  0
101E:  RCALL  0EEC
1020:  RETURN 0
.................... } 
....................  
.................... /**************************************************************************/ 
.................... /*! 
....................     @brief  Invert the colors of the display (if supported by hardware). 
....................             Self-contained, no transaction setup required. 
....................     @param  i  true = inverted display, false = normal display. 
.................... */ 
.................... /**************************************************************************/ 
.................... void invertDisplay(bool i) { 
....................     startWrite(); 
....................     writeCommand(i ? ST77XX_INVON : ST77XX_INVOFF); 
....................     endWrite(); 
.................... } 
....................  
.................... void printDisp(uint8_t x, uint8_t y, uint16_t f_color, uint16_t b_color, int ch[5]){ 
....................    for(int i=0;i<5;i++){ 
*
1178:  MOVLB  2
117A:  CLRF   x00
117C:  MOVF   x00,W
117E:  SUBLW  04
1180:  BNC   1214
....................       for(int j=0;j<8;j++){ 
1182:  CLRF   x01
1184:  MOVF   x01,W
1186:  SUBLW  07
1188:  BNC   1210
....................          if((ch[i]>>j)&1)  drawPixel(x+i, y-7+j, f_color); 
118A:  MOVF   x00,W
118C:  MOVLB  1
118E:  ADDWF  xFE,W
1190:  MOVWF  FE9
1192:  MOVLW  00
1194:  ADDWFC xFF,W
1196:  MOVWF  FEA
1198:  MOVFF  FEF,00
119C:  MOVLB  2
119E:  MOVF   x01,W
11A0:  MOVWF  01
11A2:  BZ    11AC
11A4:  BCF    FD8.0
11A6:  RRCF   00,F
11A8:  DECFSZ 01,F
11AA:  BRA    11A4
11AC:  MOVF   00,W
11AE:  ANDLW  01
11B0:  BZ    11E0
11B2:  MOVF   x00,W
11B4:  MOVLB  1
11B6:  ADDWF  xF8,W
11B8:  MOVLB  2
11BA:  MOVWF  x02
11BC:  MOVLW  07
11BE:  MOVLB  1
11C0:  SUBWF  xF9,W
11C2:  MOVLB  2
11C4:  ADDWF  x01,W
11C6:  MOVWF  x03
11C8:  CLRF   x05
11CA:  MOVFF  202,204
11CE:  MOVWF  x06
11D0:  MOVFF  1FB,208
11D4:  MOVFF  1FA,207
11D8:  MOVLB  0
11DA:  RCALL  111A
11DC:  BRA    120A
11DE:  MOVLB  2
....................          else              drawPixel(x+i, y-7+j, b_color); 
11E0:  MOVF   x00,W
11E2:  MOVLB  1
11E4:  ADDWF  xF8,W
11E6:  MOVLB  2
11E8:  MOVWF  x02
11EA:  MOVLW  07
11EC:  MOVLB  1
11EE:  SUBWF  xF9,W
11F0:  MOVLB  2
11F2:  ADDWF  x01,W
11F4:  MOVWF  x03
11F6:  CLRF   x05
11F8:  MOVFF  202,204
11FC:  MOVWF  x06
11FE:  MOVFF  1FD,208
1202:  MOVFF  1FC,207
1206:  MOVLB  0
1208:  RCALL  111A
120A:  MOVLB  2
120C:  INCF   x01,F
120E:  BRA    1184
....................       } 
1210:  INCF   x00,F
1212:  BRA    117C
....................    } 
1214:  MOVLB  0
1216:  GOTO   1340 (RETURN)
.................... } 
....................  
.................... void tft_putc(char c){ 
....................    if(c=='\f'){ 
121A:  MOVLB  1
121C:  MOVF   xF5,W
121E:  SUBLW  0C
1220:  BNZ   1254
....................       fillRect(0, 0, CARRIAGEX, CARRIAGEY, BG_COLOR); 
1222:  MOVLB  2
1224:  CLRF   x02
1226:  CLRF   x01
1228:  CLRF   x03
122A:  MOVFF  17F,204
122E:  MOVFF  180,205
1232:  MOVFF  171,207
1236:  MOVFF  170,206
123A:  MOVLB  0
123C:  RCALL  0EEC
....................       CARRIAGEX=X_BEGIN; 
123E:  MOVFF  17A,17F
....................       CARRIAGEY=Y_BEGIN; 
1242:  MOVFF  17C,180
....................       tft_gotoxy(0,0); 
1246:  MOVLB  1
1248:  CLRF   xF6
124A:  CLRF   xF7
124C:  MOVLB  0
124E:  RCALL  10DE
....................    }else if(c=='\n'){ 
1250:  BRA    1396
1252:  MOVLB  1
1254:  MOVF   xF5,W
1256:  SUBLW  0A
1258:  BNZ   1264
....................       Y+=8; 
125A:  MOVLW  08
125C:  ADDWF  x7E,F
....................       X=X_BEGIN; 
125E:  MOVFF  17A,17D
....................    }else{ 
1262:  BRA    1394
....................       if(c>122){ 
1264:  MOVF   xF5,W
1266:  SUBLW  7A
1268:  BC    12F0
....................          if(c>205){ 
126A:  MOVF   xF5,W
126C:  SUBLW  CD
126E:  BC    12AE
....................             if(c<212) c=(c%3)+59; 
1270:  MOVF   xF5,W
1272:  SUBLW  D3
1274:  BNC   128C
1276:  MOVFF  1F5,1F8
127A:  MOVLW  03
127C:  MOVWF  xF9
127E:  MOVLB  0
1280:  RCALL  0CE0
1282:  MOVLW  3B
1284:  ADDWF  00,W
1286:  MOVLB  1
1288:  MOVWF  xF5
128A:  BRA    12AE
....................             else if(c<216) c=((c%2)*2)+94; 
128C:  MOVF   xF5,W
128E:  SUBLW  D7
1290:  BNC   12A4
1292:  MOVF   xF5,W
1294:  ANDLW  01
1296:  MOVWF  00
1298:  BCF    FD8.0
129A:  RLCF   00,F
129C:  MOVF   00,W
129E:  ADDLW  5E
12A0:  MOVWF  xF5
12A2:  BRA    12AE
....................             else if(c==217) c=40; 
12A4:  MOVF   xF5,W
12A6:  SUBLW  D9
12A8:  BNZ   12AE
12AA:  MOVLW  28
12AC:  MOVWF  xF5
....................          } 
....................          if(c<220 && c>122) c=(c%11)+33; 
12AE:  MOVF   xF5,W
12B0:  SUBLW  DB
12B2:  BNC   12CE
12B4:  MOVF   xF5,W
12B6:  SUBLW  7A
12B8:  BC    12CE
12BA:  MOVFF  1F5,1F8
12BE:  MOVLW  0B
12C0:  MOVWF  xF9
12C2:  MOVLB  0
12C4:  RCALL  0CE0
12C6:  MOVLW  21
12C8:  ADDWF  00,W
12CA:  MOVLB  1
12CC:  MOVWF  xF5
....................          if(c==220) c=45; 
12CE:  MOVF   xF5,W
12D0:  SUBLW  DC
12D2:  BNZ   12DA
12D4:  MOVLW  2D
12D6:  MOVWF  xF5
12D8:  BRA    12F0
....................          else if(c==222) c=47; 
12DA:  MOVF   xF5,W
12DC:  SUBLW  DE
12DE:  BNZ   12E6
12E0:  MOVLW  2F
12E2:  MOVWF  xF5
12E4:  BRA    12F0
....................          else if(c==223) c=64; 
12E6:  MOVF   xF5,W
12E8:  SUBLW  DF
12EA:  BNZ   12F0
12EC:  MOVLW  40
12EE:  MOVWF  xF5
....................       } 
....................       printDisp(X, Y, TX_COLOR, BG_COLOR, letra[c-32]); 
12F0:  MOVLW  20
12F2:  SUBWF  xF5,W
12F4:  MOVWF  xF7
12F6:  MOVLB  2
12F8:  CLRF   x07
12FA:  MOVWF  x06
12FC:  CLRF   x09
12FE:  MOVLW  05
1300:  MOVWF  x08
1302:  MOVLB  0
1304:  RCALL  10F8
1306:  MOVFF  02,03
130A:  MOVF   01,W
130C:  ADDLW  29
130E:  MOVWF  01
1310:  MOVLW  00
1312:  ADDWFC 03,F
1314:  MOVFF  01,1F6
1318:  MOVFF  03,1F7
131C:  MOVFF  17D,1F8
1320:  MOVFF  17E,1F9
1324:  MOVFF  16F,1FB
1328:  MOVFF  16E,1FA
132C:  MOVFF  171,1FD
1330:  MOVFF  170,1FC
1334:  MOVFF  03,1FF
1338:  MOVFF  01,1FE
133C:  MOVLB  0
133E:  BRA    1178
....................       X+=6; 
1340:  MOVLW  06
1342:  MOVLB  1
1344:  ADDWF  x7D,F
....................       if(X>CARRIAGEX) CARRIAGEX=X; 
1346:  MOVF   x7D,W
1348:  SUBWF  x7F,W
134A:  BTFSS  FD8.0
134C:  MOVFF  17D,17F
....................       if(Y>CARRIAGEY) CARRIAGEY=Y; 
1350:  MOVF   x7E,W
1352:  SUBWF  x80,W
1354:  BTFSS  FD8.0
1356:  MOVFF  17E,180
....................       if((X-X_BEGIN)/6>X_MAX){ 
135A:  MOVF   x7A,W
135C:  SUBWF  x7D,W
135E:  MOVWF  xF7
1360:  MOVWF  xF8
1362:  MOVLW  06
1364:  MOVWF  xF9
1366:  MOVLB  0
1368:  RCALL  0CE0
136A:  MOVF   01,W
136C:  MOVLB  1
136E:  SUBWF  x79,W
1370:  BC    137A
....................          X=X_BEGIN; 
1372:  MOVFF  17A,17D
....................          Y+=8; 
1376:  MOVLW  08
1378:  ADDWF  x7E,F
....................       } 
....................       if((Y-Y_BEGIN)/8>Y_MAX) Y=Y_BEGIN; 
137A:  MOVF   x7C,W
137C:  SUBWF  x7E,W
137E:  MOVWF  00
1380:  RRCF   00,F
1382:  RRCF   00,F
1384:  RRCF   00,F
1386:  MOVLW  1F
1388:  ANDWF  00,F
138A:  MOVF   00,W
138C:  SUBWF  x7B,W
138E:  BTFSS  FD8.0
1390:  MOVFF  17C,17E
1394:  MOVLB  0
....................    } 
1396:  RETURN 0
.................... } 
....................  
.................... void tft_gotoxy(uint8_t _x, uint8_t _y){ 
....................    X=X_BEGIN + 6*_x; 
*
10DE:  MOVLB  1
10E0:  MOVF   xF6,W
10E2:  MULLW  06
10E4:  MOVF   FF3,W
10E6:  ADDWF  x7A,W
10E8:  MOVWF  x7D
....................    Y=Y_BEGIN + 8*_y; 
10EA:  MOVF   xF7,W
10EC:  MULLW  08
10EE:  MOVF   FF3,W
10F0:  ADDWF  x7C,W
10F2:  MOVWF  x7E
10F4:  MOVLB  0
10F6:  RETURN 0
.................... } 
.................... // end of code. 
....................  
.................... #include "Pad.c" 
.................... #ifndef _PAD 
.................... #define _PAD 
.................... #INT_EXT2  
.................... void isr_ext2(){ 
....................    delay_ms(1); 
*
00FA:  MOVLW  01
00FC:  MOVLB  2
00FE:  MOVWF  x22
0100:  MOVLB  0
0102:  RCALL  00D2
....................    if(input_state(C0)==0){ 
0104:  BTFSC  F81.2
0106:  BRA    012E
....................       if(input_state(F0)==0){       
0108:  BTFSC  F82.0
010A:  BRA    0112
....................          ultimaTecla=_X; 
010C:  MOVLW  0A
010E:  MOVWF  1B
....................          return; 
0110:  BRA    012E
....................       } 
....................       if(input_state(F1)==0){ 
0112:  BTFSC  F82.1
0114:  BRA    011C
....................          ultimaTecla=7; 
0116:  MOVLW  07
0118:  MOVWF  1B
....................          return; 
011A:  BRA    012E
....................       } 
....................       if(input_state(F2)==0){ 
011C:  BTFSC  F81.6
011E:  BRA    0126
....................          ultimaTecla=4; 
0120:  MOVLW  04
0122:  MOVWF  1B
....................          return; 
0124:  BRA    012E
....................       } 
....................       if(input_state(F3)==0){ 
0126:  BTFSC  F81.7
0128:  BRA    012E
....................          ultimaTecla=1; 
012A:  MOVLW  01
012C:  MOVWF  1B
....................          return; 
....................       } 
....................    } 
....................    return; 
012E:  BCF    FF0.1
0130:  GOTO   0084
.................... } 
.................... int1 flancoDes(int1 pata, int bmap){ 
....................    if(pata) 
0134:  MOVLB  2
0136:  MOVF   x22,F
0138:  BZ    0152
....................       //rb5 (PATA 1) 
....................       return ((_ultimo&0x20) == 0x20) && ((bmap&0x20) == 0x00)? 1:0; 
013A:  MOVF   1C,W
013C:  ANDLW  20
013E:  SUBLW  20
0140:  BNZ   014C
0142:  MOVF   x23,W
0144:  ANDLW  20
0146:  BNZ   014C
0148:  MOVLW  01
014A:  BRA    014E
014C:  MOVLW  00
014E:  MOVWF  01
0150:  BRA    0168
....................       //rb4 (PATA 0) 
....................       return ((_ultimo&0x10) == 0x10) && ((bmap&0x10) == 0x00)? 1:0; 
0152:  MOVF   1C,W
0154:  ANDLW  10
0156:  SUBLW  10
0158:  BNZ   0164
015A:  MOVF   x23,W
015C:  ANDLW  10
015E:  BNZ   0164
0160:  MOVLW  01
0162:  BRA    0166
0164:  MOVLW  00
0166:  MOVWF  01
0168:  MOVLB  0
016A:  RETURN 0
.................... } 
....................  
....................  
.................... #INT_RB 
.................... void isr_rb(){ 
....................    delay_ms(3); 
016C:  MOVLW  03
016E:  MOVLB  2
0170:  MOVWF  x22
0172:  MOVLB  0
0174:  RCALL  00D2
....................    #USE FAST_IO (b) 
....................    int bmap = input_b() & 0x30; 
....................    #USE STANDARD_IO (b) 
....................    int1 pata0 = flancoDes(0,bmap); 
....................    int1 pata1 = flancoDes(1,bmap); 
0176:  MOVF   F81,W
0178:  ANDLW  30
017A:  MOVLB  2
017C:  MOVWF  x20
017E:  CLRF   x22
0180:  MOVFF  220,223
0184:  MOVLB  0
0186:  RCALL  0134
0188:  MOVLB  2
018A:  BCF    x21.0
018C:  BTFSC  01.0
018E:  BSF    x21.0
0190:  MOVLW  01
0192:  MOVWF  x22
0194:  MOVFF  220,223
0198:  MOVLB  0
019A:  RCALL  0134
019C:  MOVLB  2
019E:  BCF    x21.1
01A0:  BTFSC  01.0
01A2:  BSF    x21.1
....................    _ultimo = bmap; 
01A4:  MOVFF  220,1C
....................    //rb4 (PATA 0) 
....................    if(pata0){ 
01A8:  BTFSS  x21.0
01AA:  BRA    01D2
....................       if(input_state(F0)==0){ 
01AC:  BTFSC  F82.0
01AE:  BRA    01B4
....................          ultimaTecla=0; 
01B0:  CLRF   1B
....................          return; 
01B2:  BRA    01FC
....................       } 
....................       if(input_state(F1)==0){ 
01B4:  BTFSC  F82.1
01B6:  BRA    01BE
....................          ultimaTecla=8; 
01B8:  MOVLW  08
01BA:  MOVWF  1B
....................          return; 
01BC:  BRA    01FC
....................       } 
....................       if(input_state(F2)==0){  
01BE:  BTFSC  F81.6
01C0:  BRA    01C8
....................          ultimaTecla=5; 
01C2:  MOVLW  05
01C4:  MOVWF  1B
....................          return; 
01C6:  BRA    01FC
....................       } 
....................       if(input_state(F3)==0){ 
01C8:  BTFSC  F81.7
01CA:  BRA    01D2
....................          ultimaTecla=2; 
01CC:  MOVLW  02
01CE:  MOVWF  1B
....................          return; 
01D0:  BRA    01FC
....................       } 
....................    } 
....................    //rb5 (PATA 1) 
....................    if(pata1){ 
01D2:  BTFSS  x21.1
01D4:  BRA    01FC
....................       if(input_state(F0)==0){ 
01D6:  BTFSC  F82.0
01D8:  BRA    01E0
....................          ultimaTecla=_TICK; 
01DA:  MOVLW  0B
01DC:  MOVWF  1B
....................          return; 
01DE:  BRA    01FC
....................       } 
....................       if(input_state(F1)==0){ 
01E0:  BTFSC  F82.1
01E2:  BRA    01EA
....................          ultimaTecla=9; 
01E4:  MOVLW  09
01E6:  MOVWF  1B
....................          return; 
01E8:  BRA    01FC
....................       } 
....................       if(input_state(F2)==0){ 
01EA:  BTFSC  F81.6
01EC:  BRA    01F4
....................          ultimaTecla=6; 
01EE:  MOVLW  06
01F0:  MOVWF  1B
....................          return; 
01F2:  BRA    01FC
....................       } 
....................       if(input_state(F3)==0){   
01F4:  BTFSC  F81.7
01F6:  BRA    01FC
....................          ultimaTecla=3; 
01F8:  MOVLW  03
01FA:  MOVWF  1B
....................          return; 
....................       } 
....................    } 
....................    return;    
.................... } 
01FC:  BCF    FF2.0
01FE:  MOVLB  0
0200:  GOTO   0084
.................... #INT_TIMER0 
.................... void isr_timer0(){ 
0204:  MOVFF  F82,220
0208:  MOVFF  F81,221
020C:  MOVLB  2
020E:  MOVF   x20,W
0210:  ANDLW  03
0212:  MOVWF  x22
0214:  MOVF   x21,W
0216:  ANDLW  C0
0218:  MOVWF  00
021A:  SWAPF  00,W
021C:  MOVWF  x23
021E:  MOVLW  0F
0220:  ANDWF  x23,F
0222:  MOVF   x21,W
0224:  ANDLW  30
0226:  MOVWF  00
0228:  RRCF   00,W
022A:  MOVWF  x24
022C:  RRCF   x24,F
022E:  RRCF   x24,F
0230:  MOVLW  1F
0232:  ANDWF  x24,F
0234:  MOVF   x21,W
0236:  ANDLW  04
0238:  MOVWF  00
023A:  RRCF   00,W
023C:  MOVWF  x25
023E:  RRCF   x25,F
0240:  MOVLW  3F
0242:  ANDWF  x25,F
0244:  MOVF   x25,W
0246:  IORWF  x24,W
0248:  MOVWF  x26
024A:  MOVF   x22,W
024C:  IORWF  x23,W
024E:  MOVWF  x27
....................    #USE FAST_IO (b) 
....................    #USE FAST_IO (c) 
....................    int cmap = input_c(); 
....................    int bmap = input_b(); 
....................    #USE STANDARD_IO (b) 
....................    #USE STANDARD_IO (c) 
....................     
....................    int rowL = (cmap&0x03); 
....................    int rowH = (bmap&0xC0)>>4; 
....................    int colH = (bmap&0x30)>>3; 
....................    int colL = (bmap&0x04)>>2; 
....................     
....................    int col = colL | colH; 
....................    int row = rowL | rowH; 
....................    if(col==7){ 
0250:  MOVF   x26,W
0252:  SUBLW  07
0254:  BNZ   028C
....................       switch(row){ 
0256:  MOVF   x27,W
0258:  XORLW  0E
025A:  MOVLB  0
025C:  BZ    026C
025E:  XORLW  03
0260:  BZ    0274
0262:  XORLW  06
0264:  BZ    027C
0266:  XORLW  0C
0268:  BZ    0284
026A:  BRA    028A
....................          case 0x0E: 
....................             OFF(F1); 
026C:  BCF    F94.1
026E:  BCF    F8B.1
....................             FLT(F0); 
0270:  BSF    F94.0
....................             break; 
0272:  BRA    028A
....................          case 0x0D: 
....................             OFF(F2); 
0274:  BCF    F93.6
0276:  BCF    F8A.6
....................             FLT(F1); 
0278:  BSF    F94.1
....................             break; 
027A:  BRA    028A
....................          case 0x0B: 
....................             OFF(F3); 
027C:  BCF    F93.7
027E:  BCF    F8A.7
....................             FLT(F2); 
0280:  BSF    F93.6
....................             break; 
0282:  BRA    028A
....................          case 0x07: 
....................             OFF(F0); 
0284:  BCF    F94.0
0286:  BCF    F8B.0
....................             FLT(F3); 
0288:  BSF    F93.7
....................             break; 
028A:  MOVLB  2
....................       } 
....................    } 
....................    return; 
028C:  BCF    FF2.2
028E:  MOVLB  0
0290:  GOTO   0084
.................... } 
.................... void tecl_mode(int1 modo){ 
....................    //Modo escaneo: lee todo el teclado 
....................    if(modo){ 
*
141E:  MOVLB  1
1420:  MOVF   xDA,F
1422:  BZ    143E
....................       SETUP_TIMER_0(T0_INTERNAL|T0_8_BIT); //Cambiar de fila cada 128uS 
1424:  MOVLW  C0
1426:  MOVWF  FD5
....................       enable_interrupts(INT_TIMER0); 
1428:  BSF    FF2.5
....................       enable_interrupts(INT_EXT2_H2L); 
142A:  BSF    FF0.4
142C:  BCF    FF1.4
....................       enable_interrupts(INT_RB4); 
142E:  BSF    FF2.3
1430:  BSF    F86.4
....................       enable_interrupts(INT_RB5); 
1432:  BSF    FF2.3
1434:  BSF    F86.5
....................       enable_interrupts(INT_RB); 
1436:  BSF    FF2.3
1438:  MOVLW  FF
143A:  IORWF  F86,F
....................       return; 
143C:  BRA    144A
....................    } 
....................    //Modo estatico: solo lee X y -/ 
....................    disable_interrupts(INT_TIMER0); 
143E:  BCF    FF2.5
....................    FLT(F3); 
1440:  BSF    F93.7
....................    FLT(F2); 
1442:  BSF    F93.6
....................    FLT(F1); 
1444:  BSF    F94.1
....................    OFF(F0); 
1446:  BCF    F94.0
1448:  BCF    F8B.0
....................    return; 
144A:  MOVLB  0
144C:  RETURN 0
.................... } 
.................... void tecl_init(){ 
....................    SET_TRIS_B(0xF5); 
144E:  MOVLW  F5
1450:  MOVWF  F93
....................    port_b_pullups(0xF5); 
1452:  MOVWF  F85
1454:  BCF    FF1.7
....................    SET_TRIS_C(0x03); 
1456:  MOVLW  03
1458:  MOVWF  F94
....................    tecl_mode(Estatico); 
145A:  MOVLB  1
145C:  CLRF   xDA
145E:  MOVLB  0
1460:  RCALL  141E
....................    delay_us(1); 
1462:  BRA    1464
....................    enable_interrupts(INT_RB4); 
1464:  BSF    FF2.3
1466:  BSF    F86.4
....................    enable_interrupts(INT_RB5); 
1468:  BSF    FF2.3
146A:  BSF    F86.5
....................    enable_interrupts(INT_RB); 
146C:  BSF    FF2.3
146E:  MOVLW  FF
1470:  IORWF  F86,F
....................    enable_interrupts(INT_EXT2_H2L); 
1472:  BSF    FF0.4
1474:  BCF    FF1.4
....................    ultimaTecla = _VISTO; 
1476:  MOVLW  0C
1478:  MOVWF  1B
147A:  GOTO   1BF2 (RETURN)
.................... } 
.................... #endif 
....................  
.................... #include "TC77.c" 
.................... #ifndef _TC77 
.................... #define _TC77 
.................... int tc77_init(float *TempContacto){ 
....................    int EnteroContacto; 
....................    int DecimalesContacto; 
....................    int retVal; 
....................     
....................    OFF(CS2); 
*
1612:  BCF    F92.4
1614:  BCF    F89.4
....................    EnteroContacto=spi_xfer(ST7789, 0); 
1616:  MOVLB  2
1618:  CLRF   x1C
161A:  MOVLB  0
161C:  CALL   0B58
1620:  MOVF   01,W
1622:  MOVFF  00,1CE
....................    DecimalesContacto=spi_xfer(ST7789, 0); 
1626:  MOVLB  2
1628:  CLRF   x1C
162A:  MOVLB  0
162C:  CALL   0B58
1630:  MOVF   01,W
1632:  MOVFF  00,1CF
....................    spi_xfer(ST7789, 0xFF); 
1636:  MOVLB  2
1638:  SETF   x1C
163A:  MOVLB  0
163C:  CALL   0B58
....................    spi_xfer(ST7789, 0xFF); 
1640:  MOVLB  2
1642:  SETF   x1C
1644:  MOVLB  0
1646:  CALL   0B58
....................    retVal = spi_xfer(ST7789, 0); 
164A:  MOVLB  2
164C:  CLRF   x1C
164E:  MOVLB  0
1650:  CALL   0B58
1654:  MOVF   01,W
1656:  MOVFF  00,1D0
....................    spi_xfer(ST7789, 0); 
165A:  MOVLB  2
165C:  CLRF   x1C
165E:  MOVLB  0
1660:  CALL   0B58
....................    spi_xfer(ST7789, 0); 
1664:  MOVLB  2
1666:  CLRF   x1C
1668:  MOVLB  0
166A:  CALL   0B58
....................    spi_xfer(ST7789, 0); 
166E:  MOVLB  2
1670:  CLRF   x1C
1672:  MOVLB  0
1674:  CALL   0B58
....................    ON(CS2); 
1678:  BCF    F92.4
167A:  BSF    F89.4
....................     
....................    *TempContacto = ((DecimalesContacto&4)==4)? ((float)((long)EnteroContacto<<5|DecimalesContacto>>3)/16):-100;  
167C:  MOVFF  1CD,03
1680:  MOVLB  1
1682:  MOVFF  1CC,FE9
1686:  MOVFF  1CD,FEA
168A:  MOVF   xCF,W
168C:  ANDLW  04
168E:  SUBLW  04
1690:  BNZ   1706
1692:  CLRF   xD4
1694:  MOVFF  1CE,1D3
1698:  RLCF   xD3,F
169A:  RLCF   xD4,F
169C:  RLCF   xD3,F
169E:  RLCF   xD4,F
16A0:  RLCF   xD3,F
16A2:  RLCF   xD4,F
16A4:  RLCF   xD3,F
16A6:  RLCF   xD4,F
16A8:  RLCF   xD3,F
16AA:  RLCF   xD4,F
16AC:  MOVLW  E0
16AE:  ANDWF  xD3,F
16B0:  RRCF   xCF,W
16B2:  MOVWF  00
16B4:  RRCF   00,F
16B6:  RRCF   00,F
16B8:  MOVLW  1F
16BA:  ANDWF  00,F
16BC:  MOVF   00,W
16BE:  IORWF  xD3,W
16C0:  MOVWF  00
16C2:  MOVFF  1D4,03
16C6:  MOVFF  FE8,205
16CA:  MOVFF  1D4,206
16CE:  MOVLB  0
16D0:  RCALL  147E
16D2:  MOVFF  03,1D6
16D6:  MOVFF  02,1D5
16DA:  MOVFF  01,1D4
16DE:  MOVFF  00,1D3
16E2:  MOVFF  03,206
16E6:  MOVFF  02,205
16EA:  MOVFF  01,204
16EE:  MOVFF  00,203
16F2:  MOVLB  2
16F4:  CLRF   x0A
16F6:  CLRF   x09
16F8:  CLRF   x08
16FA:  MOVLW  83
16FC:  MOVWF  x07
16FE:  MOVLB  0
1700:  RCALL  14B4
1702:  BRA    1714
1704:  MOVLB  1
1706:  MOVLW  85
1708:  MOVWF  00
170A:  MOVLW  C8
170C:  MOVWF  01
170E:  CLRF   02
1710:  CLRF   03
1712:  MOVLB  0
1714:  MOVFF  00,FEF
1718:  MOVFF  01,FEC
171C:  MOVFF  02,FEC
1720:  MOVFF  03,FEC
....................    return retVal; 
1724:  MOVLB  1
1726:  MOVFF  1D0,01
172A:  MOVLB  0
172C:  GOTO   1C5C (RETURN)
.................... } 
.................... float temp_tc77(){ 
....................    float Temp; 
....................    int EnteroContacto; 
....................    int DecimalesContacto; 
....................     
....................    OFF(CS2); 
*
1EEE:  BCF    F92.4
1EF0:  BCF    F89.4
....................    EnteroContacto=spi_xfer(ST7789, 0); 
1EF2:  MOVLB  2
1EF4:  CLRF   x1C
1EF6:  MOVLB  0
1EF8:  CALL   0B58
1EFC:  MOVF   01,W
1EFE:  MOVFF  00,1F6
....................    DecimalesContacto=spi_xfer(ST7789, 0); 
1F02:  MOVLB  2
1F04:  CLRF   x1C
1F06:  MOVLB  0
1F08:  CALL   0B58
1F0C:  MOVF   01,W
1F0E:  MOVFF  00,1F7
....................    ON(CS2); 
1F12:  BCF    F92.4
1F14:  BSF    F89.4
....................     
....................    Temp = (float)((long)EnteroContacto<<5|DecimalesContacto>>3)/16;  
1F16:  MOVLB  1
1F18:  CLRF   xF9
1F1A:  MOVFF  1F6,1F8
1F1E:  RLCF   xF8,F
1F20:  RLCF   xF9,F
1F22:  RLCF   xF8,F
1F24:  RLCF   xF9,F
1F26:  RLCF   xF8,F
1F28:  RLCF   xF9,F
1F2A:  RLCF   xF8,F
1F2C:  RLCF   xF9,F
1F2E:  RLCF   xF8,F
1F30:  RLCF   xF9,F
1F32:  MOVLW  E0
1F34:  ANDWF  xF8,F
1F36:  RRCF   xF7,W
1F38:  MOVWF  00
1F3A:  RRCF   00,F
1F3C:  RRCF   00,F
1F3E:  MOVLW  1F
1F40:  ANDWF  00,F
1F42:  MOVF   00,W
1F44:  IORWF  xF8,W
1F46:  MOVWF  00
1F48:  MOVFF  1F9,03
1F4C:  MOVFF  FE8,205
1F50:  MOVFF  1F9,206
1F54:  MOVLB  0
1F56:  CALL   147E
1F5A:  MOVFF  03,1FB
1F5E:  MOVFF  02,1FA
1F62:  MOVFF  01,1F9
1F66:  MOVFF  00,1F8
1F6A:  MOVFF  03,206
1F6E:  MOVFF  02,205
1F72:  MOVFF  01,204
1F76:  MOVFF  00,203
1F7A:  MOVLB  2
1F7C:  CLRF   x0A
1F7E:  CLRF   x09
1F80:  CLRF   x08
1F82:  MOVLW  83
1F84:  MOVWF  x07
1F86:  MOVLB  0
1F88:  CALL   14B4
1F8C:  MOVFF  03,1F5
1F90:  MOVFF  02,1F4
1F94:  MOVFF  01,1F3
1F98:  MOVFF  00,1F2
....................    return ((DecimalesContacto&4)==4)? Temp:-100; 
1F9C:  MOVLB  1
1F9E:  MOVF   xF7,W
1FA0:  ANDLW  04
1FA2:  SUBLW  04
1FA4:  BNZ   1FB8
1FA6:  MOVFF  1F2,00
1FAA:  MOVFF  1F3,01
1FAE:  MOVFF  1F4,02
1FB2:  MOVFF  1F5,03
1FB6:  BRA    1FC4
1FB8:  MOVLW  85
1FBA:  MOVWF  00
1FBC:  MOVLW  C8
1FBE:  MOVWF  01
1FC0:  CLRF   02
1FC2:  CLRF   03
1FC4:  MOVLB  0
1FC6:  RETURN 0
.................... } 
.................... #endif 
....................  
.................... #include "Graf.c" 
.................... #ifndef _Graf 
.................... #define _Graf 
.................... //Genera un degrad desde azul hasta rojo pasando por verde 
.................... //entre dos alturas limite dadas 
.................... //y devuelve el el color correspondiente a esa altura 
.................... uint16_t HeatMap(uint8_t s, uint8_t e, uint8_t y){  
....................    uint8_t i; 
....................    if(y>(e+s)/2){ 
*
2762:  MOVLB  2
2764:  MOVF   x00,W
2766:  ADDWF  x01,W
2768:  MOVWF  00
276A:  BCF    FD8.0
276C:  RRCF   00,F
276E:  MOVF   00,W
2770:  SUBWF  x02,W
2772:  BZ    284A
2774:  BNC   284A
....................       i=e-y; 
2776:  MOVF   x02,W
2778:  SUBWF  x01,W
277A:  MOVWF  x03
....................       return (((uint16_t)0x1F*(((e-s)/2)-i))/((e-s)/2))|((((uint16_t)0x3F*i)/((e-s)/2))<<5); 
277C:  MOVF   x00,W
277E:  SUBWF  x01,W
2780:  MOVWF  00
2782:  BCF    FD8.0
2784:  RRCF   00,F
2786:  MOVF   00,W
2788:  BSF    FD8.0
278A:  SUBFWB x03,W
278C:  MOVWF  x04
278E:  CLRF   x07
2790:  MOVLW  1F
2792:  MOVWF  x06
2794:  CLRF   x09
2796:  MOVFF  204,208
279A:  MOVLB  0
279C:  CALL   10F8
27A0:  MOVFF  02,205
27A4:  MOVFF  01,204
27A8:  MOVLB  2
27AA:  MOVF   x00,W
27AC:  SUBWF  x01,W
27AE:  MOVWF  00
27B0:  BCF    FD8.0
27B2:  RRCF   00,F
27B4:  MOVFF  00,206
27B8:  MOVFF  02,20A
27BC:  MOVFF  01,209
27C0:  CLRF   x0C
27C2:  MOVFF  00,20B
27C6:  MOVLB  0
27C8:  RCALL  271C
27CA:  MOVFF  02,205
27CE:  MOVFF  01,204
27D2:  MOVLB  2
27D4:  CLRF   x07
27D6:  MOVLW  3F
27D8:  MOVWF  x06
27DA:  CLRF   x09
27DC:  MOVFF  203,208
27E0:  MOVLB  0
27E2:  CALL   10F8
27E6:  MOVFF  02,207
27EA:  MOVFF  01,206
27EE:  MOVLB  2
27F0:  MOVF   x00,W
27F2:  SUBWF  x01,W
27F4:  MOVWF  00
27F6:  BCF    FD8.0
27F8:  RRCF   00,F
27FA:  MOVFF  00,208
27FE:  MOVFF  02,20A
2802:  MOVFF  01,209
2806:  CLRF   x0C
2808:  MOVFF  00,20B
280C:  MOVLB  0
280E:  RCALL  271C
2810:  MOVFF  02,207
2814:  MOVFF  01,206
2818:  MOVLB  2
281A:  RLCF   01,W
281C:  MOVWF  02
281E:  RLCF   x07,W
2820:  MOVWF  03
2822:  RLCF   02,F
2824:  RLCF   03,F
2826:  RLCF   02,F
2828:  RLCF   03,F
282A:  RLCF   02,F
282C:  RLCF   03,F
282E:  RLCF   02,F
2830:  RLCF   03,F
2832:  MOVLW  E0
2834:  ANDWF  02,F
2836:  MOVF   02,W
2838:  IORWF  x04,W
283A:  MOVWF  00
283C:  MOVF   03,W
283E:  IORWF  x05,W
2840:  MOVWF  03
2842:  MOVFF  00,01
2846:  MOVWF  02
2848:  BRA    2932
....................    } 
....................    i=(e+s)/2-y; 
284A:  MOVF   x00,W
284C:  ADDWF  x01,W
284E:  MOVWF  00
2850:  BCF    FD8.0
2852:  RRCF   00,F
2854:  MOVF   00,W
2856:  BSF    FD8.0
2858:  SUBFWB x02,W
285A:  MOVWF  x03
....................    return ((((uint16_t)0x3F*(((e-s)/2)-i))/((e-s)/2))<<5)|((((uint16_t)0x1F*i)/((e-s)/2))<<11); 
285C:  MOVF   x00,W
285E:  SUBWF  x01,W
2860:  MOVWF  00
2862:  BCF    FD8.0
2864:  RRCF   00,F
2866:  MOVF   00,W
2868:  BSF    FD8.0
286A:  SUBFWB x03,W
286C:  MOVWF  x04
286E:  CLRF   x07
2870:  MOVLW  3F
2872:  MOVWF  x06
2874:  CLRF   x09
2876:  MOVFF  204,208
287A:  MOVLB  0
287C:  CALL   10F8
2880:  MOVFF  02,205
2884:  MOVFF  01,204
2888:  MOVLB  2
288A:  MOVF   x00,W
288C:  SUBWF  x01,W
288E:  MOVWF  00
2890:  BCF    FD8.0
2892:  RRCF   00,F
2894:  MOVFF  00,206
2898:  MOVFF  02,20A
289C:  MOVFF  01,209
28A0:  CLRF   x0C
28A2:  MOVFF  00,20B
28A6:  MOVLB  0
28A8:  RCALL  271C
28AA:  MOVFF  02,205
28AE:  MOVFF  01,204
28B2:  MOVLB  2
28B4:  RLCF   x04,F
28B6:  RLCF   x05,F
28B8:  RLCF   x04,F
28BA:  RLCF   x05,F
28BC:  RLCF   x04,F
28BE:  RLCF   x05,F
28C0:  RLCF   x04,F
28C2:  RLCF   x05,F
28C4:  RLCF   x04,F
28C6:  RLCF   x05,F
28C8:  MOVLW  E0
28CA:  ANDWF  x04,F
28CC:  CLRF   x07
28CE:  MOVLW  1F
28D0:  MOVWF  x06
28D2:  CLRF   x09
28D4:  MOVFF  203,208
28D8:  MOVLB  0
28DA:  CALL   10F8
28DE:  MOVFF  02,207
28E2:  MOVFF  01,206
28E6:  MOVLB  2
28E8:  MOVF   x00,W
28EA:  SUBWF  x01,W
28EC:  MOVWF  00
28EE:  BCF    FD8.0
28F0:  RRCF   00,F
28F2:  MOVFF  00,208
28F6:  MOVFF  02,20A
28FA:  MOVFF  01,209
28FE:  CLRF   x0C
2900:  MOVFF  00,20B
2904:  MOVLB  0
2906:  RCALL  271C
2908:  MOVFF  02,207
290C:  MOVFF  01,206
2910:  CLRF   02
2912:  MOVLB  2
2914:  RLCF   01,W
2916:  MOVWF  03
2918:  RLCF   03,F
291A:  RLCF   03,F
291C:  MOVLW  F8
291E:  ANDWF  03,F
2920:  MOVF   02,W
2922:  IORWF  x04,W
2924:  MOVWF  00
2926:  MOVF   03,W
2928:  IORWF  x05,W
292A:  MOVWF  03
292C:  MOVFF  00,01
2930:  MOVWF  02
2932:  MOVLB  0
2934:  RETURN 0
.................... } 
.................... struct Punto Graf(int nPuntos, struct punto *Curva, int1 modo){ 
2936:  MOVLB  1
2938:  CLRF   xE2
293A:  MOVLW  0D
293C:  SUBWF  x73,W
293E:  MOVWF  xE4
2940:  MOVLW  1E
2942:  SUBWF  x72,W
2944:  MOVWF  xE5
....................    int1 EtapaEnCurso; 
....................    int contTotal=0, contEtapa; 
....................    int yM=(_height-13), xM=(_width-30); 
....................    struct Punto Max; 
....................    Max.Tiempo = 0; 
2946:  CLRF   xE8
2948:  CLRF   xE7
....................    Max.Temperatura = 0; 
294A:  CLRF   xE6
....................    for(int i=0; i<nPuntos; i++){ 
294C:  CLRF   xE9
294E:  MOVF   xDD,W
2950:  SUBWF  xE9,W
2952:  BC    29EE
....................       if(Curva[i].Temperatura>Max.Temperatura)Max.Temperatura=Curva[i].Temperatura; 
2954:  MOVLB  2
2956:  CLRF   x07
2958:  MOVFF  1E9,206
295C:  CLRF   x09
295E:  MOVLW  03
2960:  MOVWF  x08
2962:  MOVLB  0
2964:  CALL   10F8
2968:  MOVFF  02,1FC
296C:  MOVFF  01,1FB
2970:  MOVLB  1
2972:  MOVF   xDE,W
2974:  ADDWF  01,W
2976:  MOVWF  FE9
2978:  MOVF   xDF,W
297A:  ADDWFC 02,W
297C:  MOVWF  FEA
297E:  MOVF   FEF,W
2980:  SUBWF  xE6,W
2982:  BC    29AA
2984:  MOVLB  2
2986:  CLRF   x07
2988:  MOVFF  1E9,206
298C:  CLRF   x09
298E:  MOVLW  03
2990:  MOVWF  x08
2992:  MOVLB  0
2994:  CALL   10F8
2998:  MOVLB  1
299A:  MOVF   xDE,W
299C:  ADDWF  01,W
299E:  MOVWF  FE9
29A0:  MOVF   xDF,W
29A2:  ADDWFC 02,W
29A4:  MOVWF  FEA
29A6:  MOVFF  FEF,1E6
....................       Max.Tiempo += Curva[i].Tiempo; 
29AA:  MOVLB  2
29AC:  CLRF   x07
29AE:  MOVFF  1E9,206
29B2:  CLRF   x09
29B4:  MOVLW  03
29B6:  MOVWF  x08
29B8:  MOVLB  0
29BA:  CALL   10F8
29BE:  MOVFF  01,1FB
29C2:  MOVLW  01
29C4:  MOVLB  1
29C6:  ADDWF  01,W
29C8:  MOVWF  01
29CA:  MOVLW  00
29CC:  ADDWFC 02,W
29CE:  MOVWF  03
29D0:  MOVF   01,W
29D2:  ADDWF  xDE,W
29D4:  MOVWF  FE9
29D6:  MOVF   xDF,W
29D8:  ADDWFC 03,W
29DA:  MOVWF  FEA
29DC:  MOVFF  FEC,03
29E0:  MOVF   FED,F
29E2:  MOVF   FEF,W
29E4:  ADDWF  xE7,F
29E6:  MOVF   03,W
29E8:  ADDWFC xE8,F
29EA:  INCF   xE9,F
29EC:  BRA    294E
....................    } 
....................    float prev_y=yM; 
....................    float K=(float)(xM-1)/Max.Tiempo; //Pixeles/segundo 
....................    float Pincel=0, dp; 
29EE:  MOVLB  2
29F0:  CLRF   x06
29F2:  MOVFF  1E4,205
29F6:  MOVLB  0
29F8:  CALL   147E
29FC:  MOVFF  03,1ED
2A00:  MOVFF  02,1EC
2A04:  MOVFF  01,1EB
2A08:  MOVFF  00,1EA
2A0C:  MOVLW  01
2A0E:  MOVLB  1
2A10:  SUBWF  xE5,W
2A12:  MOVLB  2
2A14:  CLRF   x06
2A16:  MOVWF  x05
2A18:  MOVLB  0
2A1A:  CALL   147E
2A1E:  MOVFF  03,1FE
2A22:  MOVFF  02,1FD
2A26:  MOVFF  01,1FC
2A2A:  MOVFF  00,1FB
2A2E:  MOVFF  1E8,206
2A32:  MOVFF  1E7,205
2A36:  CALL   147E
2A3A:  MOVFF  1FE,206
2A3E:  MOVFF  1FD,205
2A42:  MOVFF  1FC,204
2A46:  MOVFF  1FB,203
2A4A:  MOVFF  03,20A
2A4E:  MOVFF  02,209
2A52:  MOVFF  01,208
2A56:  MOVFF  00,207
2A5A:  CALL   14B4
2A5E:  MOVFF  03,1F1
2A62:  MOVFF  02,1F0
2A66:  MOVFF  01,1EF
2A6A:  MOVFF  00,1EE
2A6E:  MOVLB  1
2A70:  CLRF   xF5
2A72:  CLRF   xF4
2A74:  CLRF   xF3
2A76:  CLRF   xF2
....................    fillRect(22,21,xM,(_height-33),BG_COLOR); 
2A78:  MOVLW  21
2A7A:  SUBWF  x73,W
2A7C:  MOVWF  xFB
2A7E:  MOVLB  2
2A80:  CLRF   x02
2A82:  MOVLW  16
2A84:  MOVWF  x01
2A86:  MOVLW  15
2A88:  MOVWF  x03
2A8A:  MOVFF  1E5,204
2A8E:  MOVFF  1FB,205
2A92:  MOVFF  171,207
2A96:  MOVFF  170,206
2A9A:  MOVLB  0
2A9C:  CALL   0EEC
....................    //Bucle de dibujo 
....................    for(int i=0; i<nPuntos; i++){ 
2AA0:  MOVLB  1
2AA2:  CLRF   xFA
2AA4:  MOVF   xDD,W
2AA6:  SUBWF  xFA,W
2AA8:  BTFSC  FD8.0
2AAA:  GOTO   32EC
....................       //Determinar el delta por pixel de la etapa 
....................       dp=((float)Curva[i].Temperatura-Pincel)/(Curva[i].Tiempo*K); 
2AAE:  MOVLB  2
2AB0:  CLRF   x07
2AB2:  MOVFF  1FA,206
2AB6:  CLRF   x09
2AB8:  MOVLW  03
2ABA:  MOVWF  x08
2ABC:  MOVLB  0
2ABE:  CALL   10F8
2AC2:  MOVFF  02,1FC
2AC6:  MOVFF  01,1FB
2ACA:  MOVLB  1
2ACC:  MOVF   xDE,W
2ACE:  ADDWF  01,W
2AD0:  MOVWF  FE9
2AD2:  MOVF   xDF,W
2AD4:  ADDWFC 02,W
2AD6:  MOVWF  FEA
2AD8:  MOVF   FEF,W
2ADA:  MOVLB  2
2ADC:  CLRF   x06
2ADE:  MOVWF  x05
2AE0:  MOVLB  0
2AE2:  CALL   147E
2AE6:  MOVFF  03,200
2AEA:  MOVFF  02,1FF
2AEE:  MOVFF  01,1FE
2AF2:  MOVFF  00,1FD
2AF6:  MOVFF  FEA,202
2AFA:  MOVFF  FE9,201
2AFE:  BSF    FD8.1
2B00:  CLRF   19
2B02:  BTFSC  FF2.7
2B04:  BSF    19.7
2B06:  BCF    FF2.7
2B08:  MOVFF  03,223
2B0C:  MOVFF  02,222
2B10:  MOVFF  01,221
2B14:  MOVFF  00,220
2B18:  MOVFF  1F5,227
2B1C:  MOVFF  1F4,226
2B20:  MOVFF  1F3,225
2B24:  MOVFF  1F2,224
2B28:  CALL   077C
2B2C:  BTFSC  19.7
2B2E:  BSF    FF2.7
2B30:  MOVFF  202,FEA
2B34:  MOVFF  201,FE9
2B38:  MOVFF  03,200
2B3C:  MOVFF  02,1FF
2B40:  MOVFF  01,1FE
2B44:  MOVFF  00,1FD
2B48:  MOVLB  2
2B4A:  CLRF   x07
2B4C:  MOVFF  1FA,206
2B50:  CLRF   x09
2B52:  MOVLW  03
2B54:  MOVWF  x08
2B56:  MOVLB  0
2B58:  CALL   10F8
2B5C:  MOVFF  01,203
2B60:  MOVLW  01
2B62:  MOVLB  2
2B64:  ADDWF  01,W
2B66:  MOVWF  01
2B68:  MOVLW  00
2B6A:  ADDWFC 02,W
2B6C:  MOVWF  03
2B6E:  MOVF   01,W
2B70:  MOVLB  1
2B72:  ADDWF  xDE,W
2B74:  MOVWF  FE9
2B76:  MOVF   xDF,W
2B78:  ADDWFC 03,W
2B7A:  MOVWF  FEA
2B7C:  MOVFF  FEC,206
2B80:  MOVF   FED,F
2B82:  MOVFF  FEF,205
2B86:  MOVLB  0
2B88:  CALL   147E
2B8C:  MOVFF  03,208
2B90:  MOVFF  02,207
2B94:  MOVFF  01,206
2B98:  MOVFF  00,205
2B9C:  MOVFF  1F1,20C
2BA0:  MOVFF  1F0,20B
2BA4:  MOVFF  1EF,20A
2BA8:  MOVFF  1EE,209
2BAC:  CALL   1758
2BB0:  MOVFF  200,206
2BB4:  MOVFF  1FF,205
2BB8:  MOVFF  1FE,204
2BBC:  MOVFF  1FD,203
2BC0:  MOVFF  03,20A
2BC4:  MOVFF  02,209
2BC8:  MOVFF  01,208
2BCC:  MOVFF  00,207
2BD0:  CALL   14B4
2BD4:  MOVFF  03,1F9
2BD8:  MOVFF  02,1F8
2BDC:  MOVFF  01,1F7
2BE0:  MOVFF  00,1F6
....................       //Resetear los flags de finalizacion 
....................       EtapaEnCurso = TRUE; 
2BE4:  MOVLB  1
2BE6:  BSF    xE1.0
....................       contEtapa = 0; 
2BE8:  CLRF   xE3
....................       //Bucle de la etapa 
....................       while(EtapaEnCurso){ 
2BEA:  BTFSS  xE1.0
2BEC:  BRA    32E6
....................          //Etapa terminada 
....................          if(contEtapa >= k*Curva[i].Tiempo-1) EtapaEnCurso = FALSE; 
2BEE:  MOVLB  2
2BF0:  CLRF   x07
2BF2:  MOVFF  1FA,206
2BF6:  CLRF   x09
2BF8:  MOVLW  03
2BFA:  MOVWF  x08
2BFC:  MOVLB  0
2BFE:  CALL   10F8
2C02:  MOVFF  02,1FC
2C06:  MOVFF  01,1FB
2C0A:  MOVLW  01
2C0C:  MOVLB  1
2C0E:  ADDWF  01,W
2C10:  MOVWF  01
2C12:  MOVLW  00
2C14:  ADDWFC 02,W
2C16:  MOVWF  03
2C18:  MOVF   01,W
2C1A:  ADDWF  xDE,W
2C1C:  MOVWF  FE9
2C1E:  MOVF   xDF,W
2C20:  ADDWFC 03,W
2C22:  MOVWF  FEA
2C24:  MOVFF  FEC,03
2C28:  MOVF   FED,F
2C2A:  MOVFF  FEF,205
2C2E:  MOVFF  03,206
2C32:  MOVLB  0
2C34:  CALL   147E
2C38:  MOVFF  1F1,208
2C3C:  MOVFF  1F0,207
2C40:  MOVFF  1EF,206
2C44:  MOVFF  1EE,205
2C48:  MOVFF  03,20C
2C4C:  MOVFF  02,20B
2C50:  MOVFF  01,20A
2C54:  MOVFF  00,209
2C58:  CALL   1758
2C5C:  MOVFF  03,1FE
2C60:  MOVFF  02,1FD
2C64:  MOVFF  01,1FC
2C68:  MOVFF  00,1FB
2C6C:  MOVFF  FEA,200
2C70:  MOVFF  FE9,1FF
2C74:  BSF    FD8.1
2C76:  CLRF   19
2C78:  BTFSC  FF2.7
2C7A:  BSF    19.7
2C7C:  BCF    FF2.7
2C7E:  MOVFF  03,223
2C82:  MOVFF  02,222
2C86:  MOVFF  01,221
2C8A:  MOVFF  00,220
2C8E:  MOVLB  2
2C90:  CLRF   x27
2C92:  CLRF   x26
2C94:  CLRF   x25
2C96:  MOVLW  7F
2C98:  MOVWF  x24
2C9A:  MOVLB  0
2C9C:  CALL   077C
2CA0:  BTFSC  19.7
2CA2:  BSF    FF2.7
2CA4:  MOVFF  200,FEA
2CA8:  MOVFF  1FF,FE9
2CAC:  MOVFF  03,1FE
2CB0:  MOVFF  02,1FD
2CB4:  MOVFF  01,1FC
2CB8:  MOVFF  00,1FB
2CBC:  MOVLB  2
2CBE:  CLRF   x06
2CC0:  MOVFF  1E3,205
2CC4:  MOVLB  0
2CC6:  CALL   147E
2CCA:  MOVFF  1FE,204
2CCE:  MOVFF  1FD,203
2CD2:  MOVFF  1FC,202
2CD6:  MOVFF  1FB,201
2CDA:  MOVFF  03,208
2CDE:  MOVFF  02,207
2CE2:  MOVFF  01,206
2CE6:  MOVFF  00,205
2CEA:  CALL   1B22
2CEE:  BC    2CF2
2CF0:  BNZ   2CF8
2CF2:  MOVLB  1
2CF4:  BCF    xE1.0
2CF6:  MOVLB  0
....................          Pincel+=dp; 
2CF8:  BCF    FD8.1
2CFA:  CLRF   19
2CFC:  BTFSC  FF2.7
2CFE:  BSF    19.7
2D00:  BCF    FF2.7
2D02:  MOVFF  1F5,223
2D06:  MOVFF  1F4,222
2D0A:  MOVFF  1F3,221
2D0E:  MOVFF  1F2,220
2D12:  MOVFF  1F9,227
2D16:  MOVFF  1F8,226
2D1A:  MOVFF  1F7,225
2D1E:  MOVFF  1F6,224
2D22:  CALL   077C
2D26:  BTFSC  19.7
2D28:  BSF    FF2.7
2D2A:  MOVFF  03,1F5
2D2E:  MOVFF  02,1F4
2D32:  MOVFF  01,1F3
2D36:  MOVFF  00,1F2
....................          y = yM-((float)(_height-36)/Max.Temperatura)*Pincel; 
2D3A:  MOVLW  24
2D3C:  MOVLB  1
2D3E:  SUBWF  x73,W
2D40:  MOVLB  2
2D42:  CLRF   x06
2D44:  MOVWF  x05
2D46:  MOVLB  0
2D48:  CALL   147E
2D4C:  MOVFF  03,1FE
2D50:  MOVFF  02,1FD
2D54:  MOVFF  01,1FC
2D58:  MOVFF  00,1FB
2D5C:  MOVLB  2
2D5E:  CLRF   x06
2D60:  MOVFF  1E6,205
2D64:  MOVLB  0
2D66:  CALL   147E
2D6A:  MOVFF  1FE,206
2D6E:  MOVFF  1FD,205
2D72:  MOVFF  1FC,204
2D76:  MOVFF  1FB,203
2D7A:  MOVFF  03,20A
2D7E:  MOVFF  02,209
2D82:  MOVFF  01,208
2D86:  MOVFF  00,207
2D8A:  CALL   14B4
2D8E:  MOVFF  03,1FE
2D92:  MOVFF  02,1FD
2D96:  MOVFF  01,1FC
2D9A:  MOVFF  00,1FB
2D9E:  MOVFF  03,208
2DA2:  MOVFF  02,207
2DA6:  MOVFF  01,206
2DAA:  MOVFF  00,205
2DAE:  MOVFF  1F5,20C
2DB2:  MOVFF  1F4,20B
2DB6:  MOVFF  1F3,20A
2DBA:  MOVFF  1F2,209
2DBE:  CALL   1758
2DC2:  MOVFF  03,1FE
2DC6:  MOVFF  02,1FD
2DCA:  MOVFF  01,1FC
2DCE:  MOVFF  00,1FB
2DD2:  MOVLB  2
2DD4:  CLRF   x06
2DD6:  MOVFF  1E4,205
2DDA:  MOVLB  0
2DDC:  CALL   147E
2DE0:  BSF    FD8.1
2DE2:  CLRF   19
2DE4:  BTFSC  FF2.7
2DE6:  BSF    19.7
2DE8:  BCF    FF2.7
2DEA:  MOVFF  03,223
2DEE:  MOVFF  02,222
2DF2:  MOVFF  01,221
2DF6:  MOVFF  00,220
2DFA:  MOVFF  1FE,227
2DFE:  MOVFF  1FD,226
2E02:  MOVFF  1FC,225
2E06:  MOVFF  1FB,224
2E0A:  CALL   077C
2E0E:  BTFSC  19.7
2E10:  BSF    FF2.7
2E12:  MOVFF  03,202
2E16:  MOVFF  02,201
2E1A:  MOVFF  01,200
2E1E:  MOVFF  00,1FF
2E22:  RCALL  26DE
2E24:  MOVFF  01,17E
....................          /* Linea a color, borde gordo 
....................          if(prev_y-y>=0) drawVLine(cont2+22,y,abs(y-prev_y)+1,HeatMap(0,255,~(int)Pincel)); 
....................          else drawVLine(cont2+22,prev_y,abs(y-prev_y)+1,HeatMap(0,255,~(int)Pincel));*/ 
....................          if(modo){ 
2E28:  MOVLB  1
2E2A:  MOVF   xE0,F
2E2C:  BTFSC  FD8.2
2E2E:  BRA    306A
....................             // Volumen a color //HeatMap(20,yM-1,y)<<Color en funsion de la altura y no la temperatura 
....................             if(prev_y-y>0) fillRect(contTotal+22,y+1,xM-contTotal,abs(y-prev_y),HeatMap(0,255,~(int)Pincel)); 
2E30:  MOVLB  2
2E32:  CLRF   x06
2E34:  MOVFF  17E,205
2E38:  MOVLB  0
2E3A:  CALL   147E
2E3E:  BSF    FD8.1
2E40:  CLRF   19
2E42:  BTFSC  FF2.7
2E44:  BSF    19.7
2E46:  BCF    FF2.7
2E48:  MOVFF  1ED,223
2E4C:  MOVFF  1EC,222
2E50:  MOVFF  1EB,221
2E54:  MOVFF  1EA,220
2E58:  MOVFF  03,227
2E5C:  MOVFF  02,226
2E60:  MOVFF  01,225
2E64:  MOVFF  00,224
2E68:  CALL   077C
2E6C:  BTFSC  19.7
2E6E:  BSF    FF2.7
2E70:  MOVFF  03,1FE
2E74:  MOVFF  02,1FD
2E78:  MOVFF  01,1FC
2E7C:  MOVFF  00,1FB
2E80:  MOVLB  2
2E82:  CLRF   x04
2E84:  CLRF   x03
2E86:  CLRF   x02
2E88:  CLRF   x01
2E8A:  MOVFF  03,208
2E8E:  MOVFF  02,207
2E92:  MOVFF  01,206
2E96:  MOVFF  00,205
2E9A:  MOVLB  0
2E9C:  CALL   1B22
2EA0:  BNC   2F7E
2EA2:  MOVLW  16
2EA4:  MOVLB  1
2EA6:  ADDWF  xE2,W
2EA8:  MOVWF  xFB
2EAA:  MOVLW  01
2EAC:  ADDWF  x7E,W
2EAE:  MOVWF  xFC
2EB0:  MOVF   xE2,W
2EB2:  SUBWF  xE5,W
2EB4:  MOVWF  xFD
2EB6:  MOVLB  2
2EB8:  CLRF   x06
2EBA:  MOVFF  17E,205
2EBE:  MOVLB  0
2EC0:  CALL   147E
2EC4:  BSF    FD8.1
2EC6:  CLRF   19
2EC8:  BTFSC  FF2.7
2ECA:  BSF    19.7
2ECC:  BCF    FF2.7
2ECE:  MOVFF  03,223
2ED2:  MOVFF  02,222
2ED6:  MOVFF  01,221
2EDA:  MOVFF  00,220
2EDE:  MOVFF  1ED,227
2EE2:  MOVFF  1EC,226
2EE6:  MOVFF  1EB,225
2EEA:  MOVFF  1EA,224
2EEE:  CALL   077C
2EF2:  BTFSC  19.7
2EF4:  BSF    FF2.7
2EF6:  MOVFF  03,201
2EFA:  MOVFF  02,200
2EFE:  MOVFF  01,1FF
2F02:  MOVFF  00,1FE
2F06:  MOVFF  00,1FF
2F0A:  MOVFF  01,01
2F0E:  MOVFF  02,02
2F12:  MOVFF  03,202
2F16:  BCF    01.7
2F18:  MOVFF  02,201
2F1C:  MOVFF  01,200
2F20:  CALL   26DE
2F24:  MOVFF  01,1FE
2F28:  MOVFF  1F5,202
2F2C:  MOVFF  1F4,201
2F30:  MOVFF  1F3,200
2F34:  MOVFF  1F2,1FF
2F38:  CALL   26DE
2F3C:  MOVFF  01,1FF
2F40:  MOVLB  1
2F42:  COMF   xFF,F
2F44:  MOVLB  2
2F46:  CLRF   x00
2F48:  SETF   x01
2F4A:  MOVFF  1FF,202
2F4E:  MOVLB  0
2F50:  RCALL  2762
2F52:  MOVFF  02,200
2F56:  MOVFF  01,1FF
2F5A:  MOVLB  2
2F5C:  CLRF   x02
2F5E:  MOVFF  1FB,201
2F62:  MOVFF  1FC,203
2F66:  MOVFF  1FD,204
2F6A:  MOVFF  1FE,205
2F6E:  MOVFF  02,207
2F72:  MOVFF  01,206
2F76:  MOVLB  0
2F78:  CALL   0EEC
2F7C:  BRA    3066
....................             else fillRect(contTotal+22,prev_y+1,xM-contTotal,abs(y-prev_y),BG_COLOR); 
2F7E:  MOVLW  16
2F80:  MOVLB  1
2F82:  ADDWF  xE2,W
2F84:  MOVWF  xFB
2F86:  BCF    FD8.1
2F88:  CLRF   19
2F8A:  BTFSC  FF2.7
2F8C:  BSF    19.7
2F8E:  BCF    FF2.7
2F90:  MOVFF  1ED,223
2F94:  MOVFF  1EC,222
2F98:  MOVFF  1EB,221
2F9C:  MOVFF  1EA,220
2FA0:  MOVLB  2
2FA2:  CLRF   x27
2FA4:  CLRF   x26
2FA6:  CLRF   x25
2FA8:  MOVLW  7F
2FAA:  MOVWF  x24
2FAC:  MOVLB  0
2FAE:  CALL   077C
2FB2:  BTFSC  19.7
2FB4:  BSF    FF2.7
2FB6:  MOVFF  03,202
2FBA:  MOVFF  02,201
2FBE:  MOVFF  01,200
2FC2:  MOVFF  00,1FF
2FC6:  CALL   26DE
2FCA:  MOVFF  01,1FC
2FCE:  MOVLB  1
2FD0:  MOVF   xE2,W
2FD2:  SUBWF  xE5,W
2FD4:  MOVWF  xFD
2FD6:  MOVLB  2
2FD8:  CLRF   x06
2FDA:  MOVFF  17E,205
2FDE:  MOVLB  0
2FE0:  CALL   147E
2FE4:  BSF    FD8.1
2FE6:  CLRF   19
2FE8:  BTFSC  FF2.7
2FEA:  BSF    19.7
2FEC:  BCF    FF2.7
2FEE:  MOVFF  03,223
2FF2:  MOVFF  02,222
2FF6:  MOVFF  01,221
2FFA:  MOVFF  00,220
2FFE:  MOVFF  1ED,227
3002:  MOVFF  1EC,226
3006:  MOVFF  1EB,225
300A:  MOVFF  1EA,224
300E:  CALL   077C
3012:  BTFSC  19.7
3014:  BSF    FF2.7
3016:  MOVFF  03,201
301A:  MOVFF  02,200
301E:  MOVFF  01,1FF
3022:  MOVFF  00,1FE
3026:  MOVFF  00,1FF
302A:  MOVFF  01,01
302E:  MOVFF  02,201
3032:  MOVFF  03,202
3036:  BCF    01.7
3038:  MOVFF  01,200
303C:  CALL   26DE
3040:  MOVFF  01,1FE
3044:  MOVLB  2
3046:  CLRF   x02
3048:  MOVFF  1FB,201
304C:  MOVFF  1FC,203
3050:  MOVFF  1FD,204
3054:  MOVFF  01,205
3058:  MOVFF  171,207
305C:  MOVFF  170,206
3060:  MOVLB  0
3062:  CALL   0EEC
....................          }else{ 
3066:  BRA    32BE
3068:  MOVLB  1
....................             //Linea gris, borde gordo 
....................             if(prev_y-y>=0) drawVLine(contTotal+22,y,abs(y-prev_y)+1,0xA534); 
306A:  MOVLB  2
306C:  CLRF   x06
306E:  MOVFF  17E,205
3072:  MOVLB  0
3074:  CALL   147E
3078:  BSF    FD8.1
307A:  CLRF   19
307C:  BTFSC  FF2.7
307E:  BSF    19.7
3080:  BCF    FF2.7
3082:  MOVFF  1ED,223
3086:  MOVFF  1EC,222
308A:  MOVFF  1EB,221
308E:  MOVFF  1EA,220
3092:  MOVFF  03,227
3096:  MOVFF  02,226
309A:  MOVFF  01,225
309E:  MOVFF  00,224
30A2:  CALL   077C
30A6:  BTFSC  19.7
30A8:  BSF    FF2.7
30AA:  MOVFF  03,1FE
30AE:  MOVFF  02,1FD
30B2:  MOVFF  01,1FC
30B6:  MOVFF  00,1FB
30BA:  MOVLB  2
30BC:  CLRF   x04
30BE:  CLRF   x03
30C0:  CLRF   x02
30C2:  CLRF   x01
30C4:  MOVFF  03,208
30C8:  MOVFF  02,207
30CC:  MOVFF  01,206
30D0:  MOVFF  00,205
30D4:  MOVLB  0
30D6:  CALL   1B22
30DA:  BC    30DE
30DC:  BNZ   31C2
30DE:  MOVLW  16
30E0:  MOVLB  1
30E2:  ADDWF  xE2,W
30E4:  MOVWF  xFB
30E6:  MOVLB  2
30E8:  CLRF   x06
30EA:  MOVFF  17E,205
30EE:  MOVLB  0
30F0:  CALL   147E
30F4:  BSF    FD8.1
30F6:  CLRF   19
30F8:  BTFSC  FF2.7
30FA:  BSF    19.7
30FC:  BCF    FF2.7
30FE:  MOVFF  03,223
3102:  MOVFF  02,222
3106:  MOVFF  01,221
310A:  MOVFF  00,220
310E:  MOVFF  1ED,227
3112:  MOVFF  1EC,226
3116:  MOVFF  1EB,225
311A:  MOVFF  1EA,224
311E:  CALL   077C
3122:  BTFSC  19.7
3124:  BSF    FF2.7
3126:  MOVFF  03,1FF
312A:  MOVFF  02,1FE
312E:  MOVFF  01,1FD
3132:  MOVFF  00,1FC
3136:  MOVFF  00,00
313A:  MOVFF  01,01
313E:  MOVFF  02,02
3142:  MOVFF  03,03
3146:  BCF    01.7
3148:  MOVFF  03,1FF
314C:  MOVFF  02,1FE
3150:  MOVFF  01,1FD
3154:  MOVFF  00,1FC
3158:  BCF    FD8.1
315A:  CLRF   19
315C:  BTFSC  FF2.7
315E:  BSF    19.7
3160:  BCF    FF2.7
3162:  MOVFF  03,223
3166:  MOVFF  02,222
316A:  MOVFF  01,221
316E:  MOVFF  00,220
3172:  MOVLB  2
3174:  CLRF   x27
3176:  CLRF   x26
3178:  CLRF   x25
317A:  MOVLW  7F
317C:  MOVWF  x24
317E:  MOVLB  0
3180:  CALL   077C
3184:  BTFSC  19.7
3186:  BSF    FF2.7
3188:  MOVFF  03,202
318C:  MOVFF  02,201
3190:  MOVFF  01,200
3194:  MOVFF  00,1FF
3198:  CALL   26DE
319C:  MOVFF  01,1FC
31A0:  MOVLB  1
31A2:  CLRF   xFF
31A4:  MOVFF  1FB,1FE
31A8:  MOVFF  17E,200
31AC:  MOVFF  01,201
31B0:  MOVLW  A5
31B2:  MOVLB  2
31B4:  MOVWF  x03
31B6:  MOVLW  34
31B8:  MOVWF  x02
31BA:  MOVLB  0
31BC:  CALL   2436
31C0:  BRA    32BE
....................             else drawVLine(contTotal+22,prev_y,abs(y-prev_y)+1,0xA534); 
31C2:  MOVLW  16
31C4:  MOVLB  1
31C6:  ADDWF  xE2,W
31C8:  MOVWF  xFB
31CA:  MOVFF  1ED,202
31CE:  MOVFF  1EC,201
31D2:  MOVFF  1EB,200
31D6:  MOVFF  1EA,1FF
31DA:  MOVLB  0
31DC:  CALL   26DE
31E0:  MOVFF  01,1FC
31E4:  MOVLB  2
31E6:  CLRF   x06
31E8:  MOVFF  17E,205
31EC:  MOVLB  0
31EE:  CALL   147E
31F2:  BSF    FD8.1
31F4:  CLRF   19
31F6:  BTFSC  FF2.7
31F8:  BSF    19.7
31FA:  BCF    FF2.7
31FC:  MOVFF  03,223
3200:  MOVFF  02,222
3204:  MOVFF  01,221
3208:  MOVFF  00,220
320C:  MOVFF  1ED,227
3210:  MOVFF  1EC,226
3214:  MOVFF  1EB,225
3218:  MOVFF  1EA,224
321C:  CALL   077C
3220:  BTFSC  19.7
3222:  BSF    FF2.7
3224:  MOVFF  03,200
3228:  MOVFF  02,1FF
322C:  MOVFF  01,1FE
3230:  MOVFF  00,1FD
3234:  MOVFF  00,00
3238:  MOVFF  01,01
323C:  MOVFF  02,02
3240:  MOVFF  03,03
3244:  BCF    01.7
3246:  MOVFF  03,200
324A:  MOVFF  02,1FF
324E:  MOVFF  01,1FE
3252:  MOVFF  00,1FD
3256:  BCF    FD8.1
3258:  CLRF   19
325A:  BTFSC  FF2.7
325C:  BSF    19.7
325E:  BCF    FF2.7
3260:  MOVFF  03,223
3264:  MOVFF  02,222
3268:  MOVFF  01,221
326C:  MOVFF  00,220
3270:  MOVLB  2
3272:  CLRF   x27
3274:  CLRF   x26
3276:  CLRF   x25
3278:  MOVLW  7F
327A:  MOVWF  x24
327C:  MOVLB  0
327E:  CALL   077C
3282:  BTFSC  19.7
3284:  BSF    FF2.7
3286:  MOVFF  03,202
328A:  MOVFF  02,201
328E:  MOVFF  01,200
3292:  MOVFF  00,1FF
3296:  CALL   26DE
329A:  MOVFF  01,1FD
329E:  MOVLB  1
32A0:  CLRF   xFF
32A2:  MOVFF  1FB,1FE
32A6:  MOVFF  1FC,200
32AA:  MOVFF  01,201
32AE:  MOVLW  A5
32B0:  MOVLB  2
32B2:  MOVWF  x03
32B4:  MOVLW  34
32B6:  MOVWF  x02
32B8:  MOVLB  0
32BA:  CALL   2436
....................          } 
....................          contEtapa++; 
32BE:  MOVLB  1
32C0:  INCF   xE3,F
....................          contTotal++; 
32C2:  INCF   xE2,F
....................          prev_y=y; 
32C4:  MOVLB  2
32C6:  CLRF   x06
32C8:  MOVFF  17E,205
32CC:  MOVLB  0
32CE:  CALL   147E
32D2:  MOVFF  03,1ED
32D6:  MOVFF  02,1EC
32DA:  MOVFF  01,1EB
32DE:  MOVFF  00,1EA
32E2:  MOVLB  1
32E4:  BRA    2BEA
....................       } 
32E6:  INCF   xFA,F
32E8:  GOTO   2AA4
....................    } 
....................    if(modo) fillRect(contTotal+23,prev_y,xM-contTotal,abs(yM-prev_y),BG_COLOR); 
32EC:  MOVF   xE0,F
32EE:  BZ    33AA
32F0:  MOVLW  17
32F2:  ADDWF  xE2,W
32F4:  MOVWF  xFB
32F6:  MOVFF  1ED,202
32FA:  MOVFF  1EC,201
32FE:  MOVFF  1EB,200
3302:  MOVFF  1EA,1FF
3306:  MOVLB  0
3308:  CALL   26DE
330C:  MOVFF  01,1FC
3310:  MOVLB  1
3312:  MOVF   xE2,W
3314:  SUBWF  xE5,W
3316:  MOVWF  xFD
3318:  MOVLB  2
331A:  CLRF   x06
331C:  MOVFF  1E4,205
3320:  MOVLB  0
3322:  CALL   147E
3326:  BSF    FD8.1
3328:  CLRF   19
332A:  BTFSC  FF2.7
332C:  BSF    19.7
332E:  BCF    FF2.7
3330:  MOVFF  03,223
3334:  MOVFF  02,222
3338:  MOVFF  01,221
333C:  MOVFF  00,220
3340:  MOVFF  1ED,227
3344:  MOVFF  1EC,226
3348:  MOVFF  1EB,225
334C:  MOVFF  1EA,224
3350:  CALL   077C
3354:  BTFSC  19.7
3356:  BSF    FF2.7
3358:  MOVFF  03,201
335C:  MOVFF  02,200
3360:  MOVFF  01,1FF
3364:  MOVFF  00,1FE
3368:  MOVFF  00,1FF
336C:  MOVFF  01,01
3370:  MOVFF  02,201
3374:  MOVFF  03,202
3378:  BCF    01.7
337A:  MOVFF  01,200
337E:  CALL   26DE
3382:  MOVFF  01,1FE
3386:  MOVLB  2
3388:  CLRF   x02
338A:  MOVFF  1FB,201
338E:  MOVFF  1FC,203
3392:  MOVFF  1FD,204
3396:  MOVFF  01,205
339A:  MOVFF  171,207
339E:  MOVFF  170,206
33A2:  MOVLB  0
33A4:  CALL   0EEC
33A8:  MOVLB  1
....................    return Max; 
33AA:  MOVFF  1E6,01
33AE:  MOVFF  1E7,02
33B2:  MOVFF  1E8,03
33B6:  MOVLB  0
33B8:  RETURN 0
.................... } 
.................... void GrafFrame(){ 
....................    drawHLine(        19,(_height-12), (_width-27),TX_COLOR); 
*
24CC:  MOVLW  0C
24CE:  MOVLB  1
24D0:  SUBWF  x73,W
24D2:  MOVWF  xCB
24D4:  MOVLW  1B
24D6:  SUBWF  x72,W
24D8:  MOVWF  xCC
24DA:  CLRF   xCE
24DC:  MOVLW  13
24DE:  MOVWF  xCD
24E0:  MOVFF  1CB,1CF
24E4:  MOVFF  1CC,1D0
24E8:  MOVFF  16F,1D2
24EC:  MOVFF  16E,1D1
24F0:  MOVLB  0
24F2:  RCALL  2396
....................    drawVLine(        21,          20,(_height-29),TX_COLOR); 
24F4:  MOVLW  1D
24F6:  MOVLB  1
24F8:  SUBWF  x73,W
24FA:  MOVWF  xCB
24FC:  CLRF   xFF
24FE:  MOVLW  15
2500:  MOVWF  xFE
2502:  MOVLW  14
2504:  MOVLB  2
2506:  MOVWF  x00
2508:  MOVFF  1CB,201
250C:  MOVFF  16F,203
2510:  MOVFF  16E,202
2514:  MOVLB  0
2516:  RCALL  2436
....................    drawHLine(        19,          20,           5,TX_COLOR); 
2518:  MOVLB  1
251A:  CLRF   xCE
251C:  MOVLW  13
251E:  MOVWF  xCD
2520:  MOVLW  14
2522:  MOVWF  xCF
2524:  MOVLW  05
2526:  MOVWF  xD0
2528:  MOVFF  16F,1D2
252C:  MOVFF  16E,1D1
2530:  MOVLB  0
2532:  RCALL  2396
....................    drawVLine((_width-8),(_height-14),           5,TX_COLOR); 
2534:  MOVLW  08
2536:  MOVLB  1
2538:  SUBWF  x72,W
253A:  MOVWF  xCB
253C:  MOVLW  0E
253E:  SUBWF  x73,W
2540:  MOVWF  xCC
2542:  CLRF   xFF
2544:  MOVFF  1CB,1FE
2548:  MOVFF  FE8,200
254C:  MOVLW  05
254E:  MOVLB  2
2550:  MOVWF  x01
2552:  MOVFF  16F,203
2556:  MOVFF  16E,202
255A:  MOVLB  0
255C:  RCALL  2436
....................    return; 
255E:  RETURN 0
.................... } 
.................... void GrafData(struct Punto Vals){ 
*
3480:  MOVFF  1DE,1E0
3484:  MOVFF  1DD,1DF
3488:  MOVLB  1
348A:  CLRF   xE7
348C:  MOVLW  20
348E:  ADDWF  xDC,W
3490:  MOVWF  xE1
3492:  MOVLW  00
3494:  ADDWFC xE7,W
3496:  MOVWF  xE2
3498:  MOVLW  43
349A:  MOVWF  xE5
....................    long Tiempo = Vals.Tiempo; 
....................    long Temp = (long)Vals.Temperatura+MINTEMP; 
....................    int x=X, y=Y; 
....................    char u='C'; 
....................    if((config&4)==4){  
349C:  MOVF   1A,W
349E:  ANDLW  04
34A0:  SUBLW  04
34A2:  BNZ   34EA
....................       Temp=((Temp*9)/5)+32; 
34A4:  MOVFF  1E2,207
34A8:  MOVFF  1E1,206
34AC:  MOVLB  2
34AE:  CLRF   x09
34B0:  MOVLW  09
34B2:  MOVWF  x08
34B4:  MOVLB  0
34B6:  CALL   10F8
34BA:  MOVFF  02,1E7
34BE:  MOVFF  01,1E6
34C2:  MOVFF  02,20A
34C6:  MOVFF  01,209
34CA:  MOVLB  2
34CC:  CLRF   x0C
34CE:  MOVLW  05
34D0:  MOVWF  x0B
34D2:  MOVLB  0
34D4:  CALL   271C
34D8:  MOVLW  20
34DA:  MOVLB  1
34DC:  ADDWF  01,W
34DE:  MOVWF  xE1
34E0:  MOVLW  00
34E2:  ADDWFC 02,W
34E4:  MOVWF  xE2
....................       u='F'; 
34E6:  MOVLW  46
34E8:  MOVWF  xE5
....................    } 
....................    tft_gotoxy(0, 2); 
34EA:  CLRF   xF6
34EC:  MOVLW  02
34EE:  MOVWF  xF7
34F0:  MOVLB  0
34F2:  CALL   10DE
....................    printf(tft_putc,"%c\n%03Lu", u, Temp); 
34F6:  MOVLW  B0
34F8:  MOVLB  1
34FA:  MOVWF  xF5
34FC:  MOVLB  0
34FE:  CALL   121A
3502:  MOVFF  1E5,1F5
3506:  CALL   121A
350A:  MOVLW  0A
350C:  MOVLB  1
350E:  MOVWF  xF5
3510:  MOVLB  0
3512:  CALL   121A
3516:  MOVLW  0A
3518:  MOVWF  FE9
351A:  MOVFF  1E2,1EB
351E:  MOVFF  1E1,1EA
3522:  RCALL  33BA
....................    tft_gotoxy(X_MAX-5, Y_MAX); 
3524:  MOVLW  05
3526:  MOVLB  1
3528:  SUBWF  x79,W
352A:  MOVWF  xE6
352C:  MOVWF  xF6
352E:  MOVFF  17B,1F7
3532:  MOVLB  0
3534:  CALL   10DE
....................    if((config&16)>>4){ 
3538:  MOVF   1A,W
353A:  ANDLW  10
353C:  MOVWF  00
353E:  SWAPF  00,F
3540:  MOVLW  0F
3542:  ANDWF  00,F
3544:  MOVF   00,W
3546:  BZ    35B2
....................       printf(tft_putc,"%02Lu:%02Lu", Tiempo/60, Tiempo%60); 
3548:  MOVFF  1E0,20A
354C:  MOVFF  1DF,209
3550:  MOVLB  2
3552:  CLRF   x0C
3554:  MOVLW  3C
3556:  MOVWF  x0B
3558:  MOVLB  0
355A:  CALL   271C
355E:  MOVFF  02,1E7
3562:  MOVFF  01,1E6
3566:  MOVFF  1E0,20A
356A:  MOVFF  1DF,209
356E:  MOVLB  2
3570:  CLRF   x0C
3572:  MOVLW  3C
3574:  MOVWF  x0B
3576:  MOVLB  0
3578:  CALL   271C
357C:  MOVFF  00,1E8
3580:  MOVLB  1
3582:  MOVFF  03,1E9
3586:  MOVLW  0B
3588:  MOVWF  FE9
358A:  MOVFF  1E7,1EB
358E:  MOVFF  1E6,1EA
3592:  MOVLB  0
3594:  RCALL  33BA
3596:  MOVLW  3A
3598:  MOVLB  1
359A:  MOVWF  xF5
359C:  MOVLB  0
359E:  CALL   121A
35A2:  MOVLW  0B
35A4:  MOVWF  FE9
35A6:  MOVFF  1E9,1EB
35AA:  MOVFF  1E8,1EA
35AE:  RCALL  33BA
....................    } 
35B0:  BRA    35F0
....................    else if((config&0x03)==3) printf(tft_putc,"%04LuC",Tiempo); 
35B2:  MOVF   1A,W
35B4:  ANDLW  03
35B6:  SUBLW  03
35B8:  BNZ   35D6
35BA:  MOVLW  09
35BC:  MOVWF  FE9
35BE:  MOVFF  1E0,1EB
35C2:  MOVFF  1DF,1EA
35C6:  RCALL  33BA
35C8:  MOVLW  43
35CA:  MOVLB  1
35CC:  MOVWF  xF5
35CE:  MOVLB  0
35D0:  CALL   121A
35D4:  BRA    35F0
....................    else printf(tft_putc,"%04LuS",Tiempo); 
35D6:  MOVLW  09
35D8:  MOVWF  FE9
35DA:  MOVFF  1E0,1EB
35DE:  MOVFF  1DF,1EA
35E2:  RCALL  33BA
35E4:  MOVLW  53
35E6:  MOVLB  1
35E8:  MOVWF  xF5
35EA:  MOVLB  0
35EC:  CALL   121A
....................    tft_gotoxy(x, y); 
35F0:  MOVFF  1E3,1F6
35F4:  MOVFF  1E4,1F7
35F8:  CALL   10DE
....................    return; 
35FC:  RETURN 0
.................... } 
.................... void printVacio(){ 
*
2560:  MOVFF  17D,1D3
2564:  MOVFF  17E,1D4
....................    int _x=X,_y=Y; 
....................    disable_interrupts(global); 
2568:  BCF    FF2.6
256A:  BCF    FF2.7
256C:  BTFSC  FF2.7
256E:  BRA    256A
....................    fillRect(22,21,(_width-30),(_height-33),BG_COLOR); 
2570:  MOVLW  1E
2572:  MOVLB  1
2574:  SUBWF  x72,W
2576:  MOVWF  xD5
2578:  MOVLW  21
257A:  SUBWF  x73,W
257C:  MOVWF  xD6
257E:  MOVLB  2
2580:  CLRF   x02
2582:  MOVLW  16
2584:  MOVWF  x01
2586:  MOVLW  15
2588:  MOVWF  x03
258A:  MOVFF  1D5,204
258E:  MOVFF  1D6,205
2592:  MOVFF  171,207
2596:  MOVFF  170,206
259A:  MOVLB  0
259C:  CALL   0EEC
....................    tft_gotoxy(0, 2); 
25A0:  MOVLB  1
25A2:  CLRF   xF6
25A4:  MOVLW  02
25A6:  MOVWF  xF7
25A8:  MOVLB  0
25AA:  CALL   10DE
....................    printf(tft_putc,"  \n   "); 
25AE:  MOVLW  94
25B0:  MOVWF  FF6
25B2:  MOVLW  02
25B4:  MOVWF  FF7
25B6:  CALL   1398
....................    tft_gotoxy(X_MAX-5, Y_MAX); 
25BA:  MOVLW  05
25BC:  MOVLB  1
25BE:  SUBWF  x79,W
25C0:  MOVWF  xD5
25C2:  MOVWF  xF6
25C4:  MOVFF  17B,1F7
25C8:  MOVLB  0
25CA:  CALL   10DE
....................    printf(tft_putc,"     "); 
25CE:  MOVLW  9C
25D0:  MOVWF  FF6
25D2:  MOVLW  02
25D4:  MOVWF  FF7
25D6:  CALL   1398
....................    tft_gotoxy(11,8); 
25DA:  MOVLW  0B
25DC:  MOVLB  1
25DE:  MOVWF  xF6
25E0:  MOVLW  08
25E2:  MOVWF  xF7
25E4:  MOVLB  0
25E6:  CALL   10DE
....................    switch(config&0x03){ 
25EA:  MOVF   1A,W
25EC:  ANDLW  03
25EE:  ADDLW  FC
25F0:  BC    262E
25F2:  ADDLW  04
25F4:  GOTO   263C
....................       case 0: 
....................          printf(tft_putc,"VACIO"); 
25F8:  MOVLW  A2
25FA:  MOVWF  FF6
25FC:  MOVLW  02
25FE:  MOVWF  FF7
2600:  CALL   1398
....................          break; 
2604:  BRA    262E
....................       case 1: 
....................          printf(tft_putc,"EMPTY"); 
2606:  MOVLW  A8
2608:  MOVWF  FF6
260A:  MOVLW  02
260C:  MOVWF  FF7
260E:  CALL   1398
....................          break; 
2612:  BRA    262E
....................       case 2: 
....................          printf(tft_putc,"VIDE"); 
2614:  MOVLW  AE
2616:  MOVWF  FF6
2618:  MOVLW  02
261A:  MOVWF  FF7
261C:  CALL   1398
....................          break; 
2620:  BRA    262E
....................       case 3: 
....................          printf(tft_putc,"YCTO]");  
2622:  MOVLW  B4
2624:  MOVWF  FF6
2626:  MOVLW  02
2628:  MOVWF  FF7
262A:  CALL   1398
....................          break; 
....................    } 
....................    enable_interrupts(global); 
262E:  MOVLW  C0
2630:  IORWF  FF2,F
....................    X=_x; 
2632:  MOVFF  1D3,17D
....................    Y=_y; 
2636:  MOVFF  1D4,17E
....................    return; 
263A:  RETURN 0
.................... } 
.................... void GrafCurvaPerfil(int *nPuntos,struct Punto *Curva, int nPerfil){ 
....................    *nPuntos=17; 
*
35FE:  MOVLB  1
3600:  MOVFF  1D3,FE9
3604:  MOVFF  1D4,FEA
3608:  MOVLW  11
360A:  MOVWF  FEF
....................       for(int i=0;i<(*nPuntos);i++){ 
360C:  CLRF   xD8
360E:  MOVFF  1D4,03
3612:  MOVFF  1D3,FE9
3616:  MOVFF  1D4,FEA
361A:  MOVF   FEF,W
361C:  SUBWF  xD8,W
361E:  BTFSC  FD8.0
3620:  BRA    3818
....................          Curva[i].Temperatura=~read_eeprom(0x33*nPerfil-0x32+3*i); 
3622:  MOVLB  2
3624:  CLRF   x07
3626:  MOVFF  1D8,206
362A:  CLRF   x09
362C:  MOVLW  03
362E:  MOVWF  x08
3630:  MOVLB  0
3632:  CALL   10F8
3636:  MOVFF  02,1DD
363A:  MOVFF  01,1DC
363E:  MOVLB  1
3640:  MOVF   xD5,W
3642:  ADDWF  xDC,W
3644:  MOVWF  FE9
3646:  MOVF   xD6,W
3648:  ADDWFC xDD,W
364A:  MOVWF  FEA
364C:  MOVF   xD7,W
364E:  MULLW  33
3650:  MOVF   FF3,W
3652:  ADDLW  CE
3654:  MOVWF  xE0
3656:  MOVF   xD8,W
3658:  MULLW  03
365A:  MOVF   FF3,W
365C:  ADDWF  xE0,F
365E:  MOVFF  FF2,1E1
3662:  BCF    FF2.7
3664:  MOVFF  1E0,FA9
3668:  BCF    FA6.6
366A:  BCF    FA6.7
366C:  BSF    FA6.0
366E:  MOVF   FA8,W
3670:  BTFSC  xE1.7
3672:  BSF    FF2.7
3674:  XORLW  FF
3676:  MOVWF  FEF
....................          Curva[i].Tiempo=~read_eeprom(0x33*nPerfil-0x31+3*i); 
3678:  MOVLB  2
367A:  CLRF   x07
367C:  MOVFF  1D8,206
3680:  CLRF   x09
3682:  MOVLW  03
3684:  MOVWF  x08
3686:  MOVLB  0
3688:  CALL   10F8
368C:  MOVFF  02,1DD
3690:  MOVFF  01,1DC
3694:  MOVLW  01
3696:  MOVLB  1
3698:  ADDWF  xDC,W
369A:  MOVWF  01
369C:  MOVLW  00
369E:  ADDWFC xDD,W
36A0:  MOVWF  03
36A2:  MOVF   01,W
36A4:  ADDWF  xD5,W
36A6:  MOVWF  FE9
36A8:  MOVF   xD6,W
36AA:  ADDWFC 03,W
36AC:  MOVWF  FEA
36AE:  MOVF   xD7,W
36B0:  MULLW  33
36B2:  MOVF   FF3,W
36B4:  ADDLW  CF
36B6:  MOVWF  xDE
36B8:  MOVF   xD8,W
36BA:  MULLW  03
36BC:  MOVF   FF3,W
36BE:  ADDWF  xDE,F
36C0:  MOVFF  FF2,1DF
36C4:  BCF    FF2.7
36C6:  MOVFF  1DE,FA9
36CA:  BCF    FA6.6
36CC:  BCF    FA6.7
36CE:  BSF    FA6.0
36D0:  MOVF   FA8,W
36D2:  BTFSC  xDF.7
36D4:  BSF    FF2.7
36D6:  XORLW  FF
36D8:  CLRF   FEC
36DA:  MOVF   FED,F
36DC:  MOVWF  FEF
....................          Curva[i].Tiempo<<=8; 
36DE:  MOVLB  2
36E0:  CLRF   x07
36E2:  MOVFF  1D8,206
36E6:  CLRF   x09
36E8:  MOVLW  03
36EA:  MOVWF  x08
36EC:  MOVLB  0
36EE:  CALL   10F8
36F2:  MOVFF  01,1DC
36F6:  MOVLW  01
36F8:  MOVLB  1
36FA:  ADDWF  01,W
36FC:  MOVWF  01
36FE:  MOVLW  00
3700:  ADDWFC 02,W
3702:  MOVWF  03
3704:  MOVF   01,W
3706:  ADDWF  xD5,W
3708:  MOVWF  FE9
370A:  MOVF   xD6,W
370C:  ADDWFC 03,W
370E:  MOVWF  FEA
3710:  MOVFF  FEF,03
3714:  MOVLW  00
3716:  MOVWF  FEF
3718:  MOVFF  03,FEC
....................          Curva[i].Tiempo|=~read_eeprom(0x33*nPerfil-0x30+3*i); 
371C:  MOVLB  2
371E:  CLRF   x07
3720:  MOVFF  1D8,206
3724:  CLRF   x09
3726:  MOVLW  03
3728:  MOVWF  x08
372A:  MOVLB  0
372C:  CALL   10F8
3730:  MOVFF  02,1DD
3734:  MOVFF  01,1DC
3738:  MOVLW  01
373A:  MOVLB  1
373C:  ADDWF  xDC,W
373E:  MOVWF  01
3740:  MOVLW  00
3742:  ADDWFC xDD,W
3744:  MOVWF  03
3746:  MOVF   01,W
3748:  ADDWF  xD5,W
374A:  MOVWF  FE9
374C:  MOVF   xD6,W
374E:  ADDWFC 03,W
3750:  MOVWF  FEA
3752:  MOVF   xD7,W
3754:  MULLW  33
3756:  MOVF   FF3,W
3758:  ADDLW  D0
375A:  MOVWF  xE0
375C:  MOVF   xD8,W
375E:  MULLW  03
3760:  MOVF   FF3,W
3762:  ADDWF  xE0,F
3764:  MOVFF  FF2,1E1
3768:  BCF    FF2.7
376A:  MOVFF  1E0,FA9
376E:  BCF    FA6.6
3770:  BCF    FA6.7
3772:  BSF    FA6.0
3774:  MOVF   FA8,W
3776:  BTFSC  xE1.7
3778:  BSF    FF2.7
377A:  XORLW  FF
377C:  IORWF  FEF,W
377E:  MOVWF  00
3780:  MOVF   FEC,W
3782:  MOVWF  03
3784:  MOVF   00,W
3786:  MOVF   FED,F
3788:  MOVWF  FEF
378A:  MOVFF  03,FEC
378E:  MOVF   FED,F
....................          if(Curva[i].Temperatura==0&&Curva[i].Tiempo==0){ 
3790:  MOVLB  2
3792:  CLRF   x07
3794:  MOVFF  1D8,206
3798:  CLRF   x09
379A:  MOVLW  03
379C:  MOVWF  x08
379E:  MOVLB  0
37A0:  CALL   10F8
37A4:  MOVFF  02,1DD
37A8:  MOVFF  01,1DC
37AC:  MOVLB  1
37AE:  MOVF   xD5,W
37B0:  ADDWF  01,W
37B2:  MOVWF  FE9
37B4:  MOVF   xD6,W
37B6:  ADDWFC 02,W
37B8:  MOVWF  FEA
37BA:  MOVF   FEF,F
37BC:  BNZ   3814
37BE:  MOVLB  2
37C0:  CLRF   x07
37C2:  MOVFF  1D8,206
37C6:  CLRF   x09
37C8:  MOVLW  03
37CA:  MOVWF  x08
37CC:  MOVLB  0
37CE:  CALL   10F8
37D2:  MOVFF  01,1DE
37D6:  MOVLW  01
37D8:  MOVLB  1
37DA:  ADDWF  01,W
37DC:  MOVWF  01
37DE:  MOVLW  00
37E0:  ADDWFC 02,W
37E2:  MOVWF  03
37E4:  MOVF   01,W
37E6:  ADDWF  xD5,W
37E8:  MOVWF  FE9
37EA:  MOVF   xD6,W
37EC:  ADDWFC 03,W
37EE:  MOVWF  FEA
37F0:  MOVFF  FEC,1DF
37F4:  MOVF   FED,F
37F6:  MOVFF  FEF,1DE
37FA:  MOVF   xDE,F
37FC:  BNZ   3814
37FE:  MOVF   xDF,F
3800:  BNZ   3814
....................             *nPuntos=i; 
3802:  MOVFF  1D4,03
3806:  MOVFF  1D3,FE9
380A:  MOVFF  03,FEA
380E:  MOVFF  1D8,FEF
....................             break; 
3812:  BRA    3818
....................          } 
3814:  INCF   xD8,F
3816:  BRA    360E
....................       } 
....................       struct Punto buff; 
....................       buff = Graf(*nPuntos, Curva, 1); 
3818:  MOVFF  1D4,03
381C:  MOVFF  1D3,FE9
3820:  MOVFF  1D4,FEA
3824:  MOVFF  FEF,1DD
3828:  MOVFF  1D6,1DF
382C:  MOVFF  1D5,1DE
3830:  MOVLW  01
3832:  MOVWF  xE0
3834:  MOVLB  0
3836:  CALL   2936
383A:  MOVFF  03,1DB
383E:  MOVFF  02,1DA
3842:  MOVFF  01,1D9
....................       GrafData(buff); 
3846:  MOVFF  1DB,1DE
384A:  MOVFF  1DA,1DD
384E:  MOVFF  1D9,1DC
3852:  RCALL  3480
3854:  GOTO   38C0 (RETURN)
.................... } 
.................... void Cursor(int _x,int _y){ 
....................    x-=6; 
*
2280:  MOVLW  06
2282:  MOVLB  1
2284:  SUBWF  x7D,F
....................    printf(tft_putc," "); 
2286:  MOVLW  20
2288:  MOVWF  xF5
228A:  MOVLB  0
228C:  CALL   121A
....................    tft_gotoxy(_x,_y); 
2290:  MOVFF  1D7,1F6
2294:  MOVFF  1D8,1F7
2298:  CALL   10DE
....................    printf(tft_putc,">"); 
229C:  MOVLW  3E
229E:  MOVLB  1
22A0:  MOVWF  xF5
22A2:  MOVLB  0
22A4:  CALL   121A
22A8:  RETURN 0
.................... } 
.................... void printEspacios(int n){ 
....................    for(int i=0;i<n;i++) 
*
2076:  MOVLB  1
2078:  CLRF   xCC
207A:  MOVF   xCB,W
207C:  SUBWF  xCC,W
207E:  BC    2094
....................       tft_putc(" "); 
2080:  MOVLW  BC
2082:  MOVWF  FF6
2084:  MOVLW  02
2086:  MOVWF  FF7
2088:  MOVLB  0
208A:  CALL   1398
208E:  MOVLB  1
2090:  INCF   xCC,F
2092:  BRA    207A
....................    return; 
2094:  MOVLB  0
2096:  RETURN 0
.................... } 
.................... #endif 
....................  
.................... #include "MainUtility.c" 
.................... #ifndef _MAIN_UTILITY 
.................... #define _MAIN_UTILITY 
.................... void print_status(int s){ 
....................    switch(s){ 
*
13B8:  MOVLB  1
13BA:  MOVF   xF2,W
13BC:  XORLW  01
13BE:  MOVLB  0
13C0:  BZ    13CC
13C2:  XORLW  FE
13C4:  BZ    13EA
13C6:  XORLW  FF
13C8:  BZ    1400
13CA:  BRA    1414
....................       case 1: 
....................          TX_COLOR = ST7789_GREEN; 
13CC:  MOVLW  07
13CE:  MOVLB  1
13D0:  MOVWF  x6F
13D2:  MOVLW  E0
13D4:  MOVWF  x6E
....................          printf(tft_putc,"OK"); 
13D6:  MOVLW  4F
13D8:  MOVWF  xF5
13DA:  MOVLB  0
13DC:  RCALL  121A
13DE:  MOVLW  4B
13E0:  MOVLB  1
13E2:  MOVWF  xF5
13E4:  MOVLB  0
13E6:  RCALL  121A
....................          break; 
13E8:  BRA    1414
....................       case -1: 
....................          TX_COLOR = ST7789_RED; 
13EA:  MOVLW  F8
13EC:  MOVLB  1
13EE:  MOVWF  x6F
13F0:  CLRF   x6E
....................          printf(tft_putc,"ERROR"); 
13F2:  MOVLW  BE
13F4:  MOVWF  FF6
13F6:  MOVLW  02
13F8:  MOVWF  FF7
13FA:  MOVLB  0
13FC:  RCALL  1398
....................          break; 
13FE:  BRA    1414
....................       case 0: 
....................          TX_COLOR = ST7789_YELLOW; 
1400:  MOVLB  1
1402:  SETF   x6F
1404:  MOVLW  E0
1406:  MOVWF  x6E
....................          printf(tft_putc,"ABNORMAL"); 
1408:  MOVLW  C4
140A:  MOVWF  FF6
140C:  MOVLW  02
140E:  MOVWF  FF7
1410:  MOVLB  0
1412:  RCALL  1398
....................          break; 
....................    } 
....................    TX_COLOR = ST7789_WHITE; 
1414:  MOVLB  1
1416:  SETF   x6F
1418:  SETF   x6E
....................    return; 
141A:  MOVLB  0
141C:  RETURN 0
.................... } 
.................... void init_sequence(){ 
*
1B9C:  MOVLB  1
1B9E:  CLRF   xC4
1BA0:  MOVLW  01
1BA2:  MOVWF  xC5
....................    int global_status=0; 
....................    int status = 1; 
....................    ON(CS2); 
1BA4:  BCF    F92.4
1BA6:  BSF    F89.4
....................    tft_init(); 
1BA8:  MOVLB  0
1BAA:  GOTO   1022
1BAE:  CLRF   19
1BB0:  BTFSC  FF2.7
1BB2:  BSF    19.7
1BB4:  BCF    FF2.7
....................    delay_ms(1); 
1BB6:  MOVLW  01
1BB8:  MOVLB  2
1BBA:  MOVWF  x22
1BBC:  MOVLB  0
1BBE:  CALL   00D2
1BC2:  BTFSC  19.7
1BC4:  BSF    FF2.7
....................    printf(tft_putc,"\fDISPLAY TFT: "); 
1BC6:  MOVLW  CE
1BC8:  MOVWF  FF6
1BCA:  MOVLW  02
1BCC:  MOVWF  FF7
1BCE:  CALL   1398
....................    print_status(status); 
1BD2:  MOVFF  1C5,1F2
1BD6:  CALL   13B8
....................    global_status = status+1;  
1BDA:  MOVLW  01
1BDC:  MOVLB  1
1BDE:  ADDWF  xC5,W
1BE0:  MOVWF  xC4
....................     
....................    printf(tft_putc,"\nINICIANDO TECLADO"); 
1BE2:  MOVLW  DE
1BE4:  MOVWF  FF6
1BE6:  MOVLW  02
1BE8:  MOVWF  FF7
1BEA:  MOVLB  0
1BEC:  CALL   1398
....................    tecl_init(); 
1BF0:  BRA    144E
....................    printf(tft_putc,"\nTECLADO: "); 
1BF2:  MOVLW  F2
1BF4:  MOVWF  FF6
1BF6:  MOVLW  02
1BF8:  MOVWF  FF7
1BFA:  CALL   1398
....................    print_status(status); 
1BFE:  MOVFF  1C5,1F2
1C02:  CALL   13B8
....................    global_status <<= 2; 
1C06:  MOVLB  1
1C08:  RLCF   xC4,F
1C0A:  RLCF   xC4,F
1C0C:  MOVLW  FC
1C0E:  ANDWF  xC4,F
....................    global_status += status+1; 
1C10:  MOVLW  01
1C12:  ADDWF  xC5,W
1C14:  ADDWF  xC4,F
....................     
....................    printf(tft_putc,"\nINICIANDO TC77"); 
1C16:  MOVLW  FE
1C18:  MOVWF  FF6
1C1A:  MOVLW  02
1C1C:  MOVWF  FF7
1C1E:  MOVLB  0
1C20:  CALL   1398
....................    delay_ms(400); 
1C24:  MOVLW  02
1C26:  MOVLB  1
1C28:  MOVWF  xCC
1C2A:  CLRF   19
1C2C:  BTFSC  FF2.7
1C2E:  BSF    19.7
1C30:  BCF    FF2.7
1C32:  MOVLW  C8
1C34:  MOVLB  2
1C36:  MOVWF  x22
1C38:  MOVLB  0
1C3A:  CALL   00D2
1C3E:  BTFSC  19.7
1C40:  BSF    FF2.7
1C42:  MOVLB  1
1C44:  DECFSZ xCC,F
1C46:  BRA    1C2A
....................    float Temperatura=0; 
....................    int M_ID; 
1C48:  CLRF   xC9
1C4A:  CLRF   xC8
1C4C:  CLRF   xC7
1C4E:  CLRF   xC6
....................    M_ID = tc77_init(&Temperatura); 
1C50:  MOVLW  01
1C52:  MOVWF  xCD
1C54:  MOVLW  C6
1C56:  MOVWF  xCC
1C58:  MOVLB  0
1C5A:  BRA    1612
1C5C:  MOVFF  01,1CA
....................    printf(tft_putc,"\nTEMP:%f\nM_ID:%x\nMANUFACTURER: ",Temperatura, M_ID); 
1C60:  MOVLW  0E
1C62:  MOVWF  FF6
1C64:  MOVLW  03
1C66:  MOVWF  FF7
1C68:  MOVLW  06
1C6A:  MOVLB  1
1C6C:  MOVWF  xCC
1C6E:  MOVLB  0
1C70:  RCALL  1730
1C72:  MOVLW  89
1C74:  MOVWF  FE9
1C76:  MOVFF  1C9,1CF
1C7A:  MOVFF  1C8,1CE
1C7E:  MOVFF  1C7,1CD
1C82:  MOVFF  1C6,1CC
1C86:  MOVLW  02
1C88:  MOVLB  1
1C8A:  MOVWF  xD0
1C8C:  MOVLB  0
1C8E:  RCALL  1926
1C90:  MOVLW  16
1C92:  MOVWF  FF6
1C94:  MOVLW  03
1C96:  MOVWF  FF7
1C98:  MOVLW  06
1C9A:  MOVLB  1
1C9C:  MOVWF  xCC
1C9E:  MOVLB  0
1CA0:  RCALL  1730
1CA2:  MOVFF  1CA,1CC
1CA6:  MOVLW  57
1CA8:  MOVLB  1
1CAA:  MOVWF  xCD
1CAC:  MOVLB  0
1CAE:  BRA    1AD6
1CB0:  MOVLW  1E
1CB2:  MOVWF  FF6
1CB4:  MOVLW  03
1CB6:  MOVWF  FF7
1CB8:  MOVLW  0F
1CBA:  MOVLB  1
1CBC:  MOVWF  xCC
1CBE:  MOVLB  0
1CC0:  RCALL  1730
....................    if(M_ID==0x54) printf(tft_putc,"MICROCHIP"); 
1CC2:  MOVLB  1
1CC4:  MOVF   xCA,W
1CC6:  SUBLW  54
1CC8:  BNZ   1CDC
1CCA:  MOVLW  2E
1CCC:  MOVWF  FF6
1CCE:  MOVLW  03
1CD0:  MOVWF  FF7
1CD2:  MOVLB  0
1CD4:  CALL   1398
1CD8:  BRA    1CEA
1CDA:  MOVLB  1
....................    else printf(tft_putc,"UNKNOWN"); 
1CDC:  MOVLW  38
1CDE:  MOVWF  FF6
1CE0:  MOVLW  03
1CE2:  MOVWF  FF7
1CE4:  MOVLB  0
1CE6:  CALL   1398
....................    printf(tft_putc,"\nTC77: "); 
1CEA:  MOVLW  40
1CEC:  MOVWF  FF6
1CEE:  MOVLW  03
1CF0:  MOVWF  FF7
1CF2:  CALL   1398
....................    if(M_ID!=0x54) status = 0; 
1CF6:  MOVLB  1
1CF8:  MOVF   xCA,W
1CFA:  SUBLW  54
1CFC:  BZ    1D00
1CFE:  CLRF   xC5
....................    if(Temperatura <= -99) status = -1; 
1D00:  MOVFF  1C9,204
1D04:  MOVFF  1C8,203
1D08:  MOVFF  1C7,202
1D0C:  MOVFF  1C6,201
1D10:  MOVLB  2
1D12:  CLRF   x08
1D14:  CLRF   x07
1D16:  MOVLW  C6
1D18:  MOVWF  x06
1D1A:  MOVLW  85
1D1C:  MOVWF  x05
1D1E:  MOVLB  0
1D20:  RCALL  1B22
1D22:  BC    1D26
1D24:  BNZ   1D2C
1D26:  MOVLB  1
1D28:  SETF   xC5
1D2A:  MOVLB  0
....................    print_status(status); 
1D2C:  MOVFF  1C5,1F2
1D30:  CALL   13B8
....................    global_status <<= 2; 
1D34:  MOVLB  1
1D36:  RLCF   xC4,F
1D38:  RLCF   xC4,F
1D3A:  MOVLW  FC
1D3C:  ANDWF  xC4,F
....................    global_status += status+1; 
1D3E:  MOVLW  01
1D40:  ADDWF  xC5,W
1D42:  ADDWF  xC4,F
....................     
....................    bool errorFlag=0; 
....................    bool abnorFlag=0; 
1D44:  BCF    xCB.0
1D46:  BCF    xCB.1
....................    printf(tft_putc,"\n\n"); 
1D48:  MOVLW  0A
1D4A:  MOVWF  xF5
1D4C:  MOVLB  0
1D4E:  CALL   121A
1D52:  MOVLW  0A
1D54:  MOVLB  1
1D56:  MOVWF  xF5
1D58:  MOVLB  0
1D5A:  CALL   121A
....................    if(global_status == 0x2A){ 
1D5E:  MOVLB  1
1D60:  MOVF   xC4,W
1D62:  SUBLW  2A
1D64:  BNZ   1D80
....................       TX_COLOR = ST7789_GREEN; 
1D66:  MOVLW  07
1D68:  MOVWF  x6F
1D6A:  MOVLW  E0
1D6C:  MOVWF  x6E
....................       printf(tft_putc,"HORNO LISTO"); 
1D6E:  MOVLW  48
1D70:  MOVWF  FF6
1D72:  MOVLW  03
1D74:  MOVWF  FF7
1D76:  MOVLB  0
1D78:  CALL   1398
....................    }else{ 
1D7C:  BRA    1EA4
1D7E:  MOVLB  1
....................       if(global_status&3==1){ 
1D80:  ANDLW  00
1D82:  BZ    1D9E
....................          abnorFlag=1; 
1D84:  BSF    xCB.1
....................          TX_COLOR = ST7789_YELLOW; 
1D86:  SETF   x6F
1D88:  MOVLW  E0
1D8A:  MOVWF  x6E
....................          printf(tft_putc,"TC77 ABONORMAL"); 
1D8C:  MOVLW  54
1D8E:  MOVWF  FF6
1D90:  MOVLW  03
1D92:  MOVWF  FF7
1D94:  MOVLB  0
1D96:  CALL   1398
....................       }else if(global_status&3==0){ 
1D9A:  BRA    1DB8
1D9C:  MOVLB  1
1D9E:  ANDLW  00
1DA0:  BZ    1DBA
....................          errorFlag=1; 
1DA2:  BSF    xCB.0
....................          TX_COLOR = ST7789_RED; 
1DA4:  MOVLW  F8
1DA6:  MOVWF  x6F
1DA8:  CLRF   x6E
....................          printf(tft_putc,"TC77 ERROR"); 
1DAA:  MOVLW  64
1DAC:  MOVWF  FF6
1DAE:  MOVLW  03
1DB0:  MOVWF  FF7
1DB2:  MOVLB  0
1DB4:  CALL   1398
1DB8:  MOVLB  1
....................       } 
....................       global_status>>=2; 
1DBA:  RRCF   xC4,F
1DBC:  RRCF   xC4,F
1DBE:  MOVLW  3F
1DC0:  ANDWF  xC4,F
....................        
....................       if(global_status&3==1){ 
1DC2:  ANDLW  00
1DC4:  BZ    1DE0
....................          abnorFlag=1; 
1DC6:  BSF    xCB.1
....................          TX_COLOR = ST7789_YELLOW; 
1DC8:  SETF   x6F
1DCA:  MOVLW  E0
1DCC:  MOVWF  x6E
....................          printf(tft_putc,"TECLADO ABONORMAL"); 
1DCE:  MOVLW  70
1DD0:  MOVWF  FF6
1DD2:  MOVLW  03
1DD4:  MOVWF  FF7
1DD6:  MOVLB  0
1DD8:  CALL   1398
....................       }else if(global_status&3==0){ 
1DDC:  BRA    1DFA
1DDE:  MOVLB  1
1DE0:  ANDLW  00
1DE2:  BZ    1DFC
....................          errorFlag=1; 
1DE4:  BSF    xCB.0
....................          TX_COLOR = ST7789_RED; 
1DE6:  MOVLW  F8
1DE8:  MOVWF  x6F
1DEA:  CLRF   x6E
....................          printf(tft_putc,"TECLADO ERROR"); 
1DEC:  MOVLW  82
1DEE:  MOVWF  FF6
1DF0:  MOVLW  03
1DF2:  MOVWF  FF7
1DF4:  MOVLB  0
1DF6:  CALL   1398
1DFA:  MOVLB  1
....................       } 
....................       global_status>>=2; 
1DFC:  RRCF   xC4,F
1DFE:  RRCF   xC4,F
1E00:  MOVLW  3F
1E02:  ANDWF  xC4,F
....................        
....................       if(global_status&3==1){ 
1E04:  ANDLW  00
1E06:  BZ    1E22
....................          abnorFlag=1; 
1E08:  BSF    xCB.1
....................          TX_COLOR = ST7789_YELLOW; 
1E0A:  SETF   x6F
1E0C:  MOVLW  E0
1E0E:  MOVWF  x6E
....................          printf(tft_putc,"DISPLAY TFT ABONORMAL"); 
1E10:  MOVLW  90
1E12:  MOVWF  FF6
1E14:  MOVLW  03
1E16:  MOVWF  FF7
1E18:  MOVLB  0
1E1A:  CALL   1398
....................       }else if(global_status&3==0){ 
1E1E:  BRA    1E3C
1E20:  MOVLB  1
1E22:  ANDLW  00
1E24:  BZ    1E3E
....................          errorFlag=1; 
1E26:  BSF    xCB.0
....................          TX_COLOR = ST7789_RED; 
1E28:  MOVLW  F8
1E2A:  MOVWF  x6F
1E2C:  CLRF   x6E
....................          printf(tft_putc,"DISPLAY TFT ERROR"); 
1E2E:  MOVLW  A6
1E30:  MOVWF  FF6
1E32:  MOVLW  03
1E34:  MOVWF  FF7
1E36:  MOVLB  0
1E38:  CALL   1398
1E3C:  MOVLB  1
....................       } 
....................       global_status>>=2; 
1E3E:  RRCF   xC4,F
1E40:  RRCF   xC4,F
1E42:  MOVLW  3F
1E44:  ANDWF  xC4,F
....................        
....................       if(errorFlag){ 
1E46:  BTFSS  xCB.0
1E48:  BRA    1E70
....................          tecl_mode(Escaneo); 
1E4A:  MOVLW  01
1E4C:  MOVWF  xDA
1E4E:  MOVLB  0
1E50:  CALL   141E
....................          ultimaTecla=_VISTO; 
1E54:  MOVLW  0C
1E56:  MOVWF  1B
....................          printf(tft_putc,"OCURRIERON ERRORES\nPRESIONE CUALQUIER TECLA PARA REINICIAR\n O APAGE Y PRENDA EL EQUIPO"); 
1E58:  MOVLW  B8
1E5A:  MOVWF  FF6
1E5C:  MOVLW  03
1E5E:  MOVWF  FF7
1E60:  CALL   1398
....................          while(ultimaTecla==_VISTO); 
1E64:  MOVF   1B,W
1E66:  SUBLW  0C
1E68:  BZ    1E64
....................          reset_cpu(); 
1E6A:  RESET
....................       }else{ 
1E6C:  BRA    1EA4
1E6E:  MOVLB  1
....................          tecl_mode(Estatico); 
1E70:  CLRF   xDA
1E72:  MOVLB  0
1E74:  CALL   141E
....................          ultimaTecla=_VISTO; 
1E78:  MOVLW  0C
1E7A:  MOVWF  1B
....................          printf(tft_putc,"DISPOSITIVOS CON ABNORMALIDADES\nPRESIONE: SI PARA CONTINUAR\nO NO PARA REINICIAR\nO APAGE Y PRENDA EL EQUIPO"); 
1E7C:  MOVLW  10
1E7E:  MOVWF  FF6
1E80:  MOVLW  04
1E82:  MOVWF  FF7
1E84:  CALL   1398
....................          while(ultimaTecla==_VISTO){ 
1E88:  MOVF   1B,W
1E8A:  SUBLW  0C
1E8C:  BNZ   1EA4
....................             if(ultimaTecla==_TICK) break; 
1E8E:  MOVF   1B,W
1E90:  SUBLW  0B
1E92:  BTFSC  FD8.2
1E94:  BRA    1EA4
....................             if(ultimaTecla==_X)    reset_cpu(); 
1E96:  MOVF   1B,W
1E98:  SUBLW  0A
1E9A:  BNZ   1E9E
1E9C:  RESET
....................             ultimaTecla=_VISTO; 
1E9E:  MOVLW  0C
1EA0:  MOVWF  1B
1EA2:  BRA    1E88
....................          } 
....................       } 
....................    } 
....................    TX_COLOR = ST7789_WHITE; 
1EA4:  MOVLB  1
1EA6:  SETF   x6F
1EA8:  SETF   x6E
1EAA:  CLRF   19
1EAC:  BTFSC  FF2.7
1EAE:  BSF    19.7
1EB0:  BCF    FF2.7
....................    delay_ms(1); 
1EB2:  MOVLW  01
1EB4:  MOVLB  2
1EB6:  MOVWF  x22
1EB8:  MOVLB  0
1EBA:  CALL   00D2
1EBE:  BTFSC  19.7
1EC0:  BSF    FF2.7
1EC2:  GOTO   713A (RETURN)
.................... } 
.................... #endif 
....................  
.................... #include "Estados.c"   
.................... #ifndef _ESTADOS 
.................... #define _ESTADOS 
.................... #include "Prototipos.c" 
.................... #ifndef _PROTOS 
.................... #define _PROTOS 
.................... //Prototipos 
.................... int SeleccionDePerfil(); 
.................... int Perfiles(); 
....................    int Perfil_Crear(); 
....................    int Perfil_Cargar(); 
....................    int Perfil_Editar(); 
....................    int Perfil_Volver(); 
.................... int CargarValores(); 
.................... int Configuracion(); 
....................    int Config_Tiempo(); 
....................       int Config_Tiempo_Formato(); 
....................          int Config_Tiempo_Formato_mmss(); 
....................          int Config_Tiempo_Formato_ssss(); 
....................          int Config_Tiempo_Formato_Volver(); 
....................       int Config_Tiempo_Origen(); 
....................          int Config_Tiempo_Origen_Absoluto(); 
....................          int Config_Tiempo_Origen_Relativo(); 
....................          int Config_Tiempo_Origen_Volver(); 
....................       int Config_Tiempo_Volver(); 
....................    int Config_Temp(); 
....................       int Config_Temp_C(); 
....................       int Config_Temp_F(); 
....................       int Config_Temp_Volver(); 
....................    int Config_Idioma(); 
....................       int Config_Idioma_Es(); 
....................       int Config_Idioma_En(); 
....................       int Config_Idioma_Fr(); 
....................       int Config_Idioma_Ru(); 
....................       int Config_Idioma_Volver(); 
....................    int Config_Volver(); 
.................... int CargarPunto(); 
.................... int Iniciar(); 
.................... int PuntoNoValido(); 
.................... int OtroPunto(); 
.................... int Soldando(); 
.................... int Terminado(); 
....................  
.................... //Numerando los estados para el switch 
.................... enum{ 
....................     _SeleccionDePerfil, 
....................     _Perfiles, 
....................        _Perfil_Crear, 
....................        _Perfil_Cargar, 
....................        _Perfil_Editar, 
....................        _Perfil_Volver, 
....................     _CargarValores, 
....................     _Configuracion, 
....................        _Config_Tiempo, 
....................           _Config_Tiempo_Formato, 
....................              _Config_Tiempo_Formato_mmss, 
....................              _Config_Tiempo_Formato_ssss, 
....................              _Config_Tiempo_Formato_Volver, 
....................           _Config_Tiempo_Origen, 
....................              _Config_Tiempo_Origen_Absoluto, 
....................              _Config_Tiempo_Origen_Relativo, 
....................              _Config_Tiempo_Origen_Volver, 
....................           _Config_Tiempo_Volver, 
....................        _Config_Temp, 
....................           _Config_Temp_C, 
....................           _Config_Temp_F, 
....................           _Config_Temp_Volver, 
....................        _Config_Idioma, 
....................           _Config_Idioma_Es, 
....................           _Config_Idioma_En, 
....................           _Config_Idioma_Fr, 
....................           _Config_Idioma_Ru, 
....................           _Config_Idioma_Volver, 
....................        _Config_Volver, 
....................     _CargarPunto, 
....................     _Iniciar, 
....................     _PuntoNoValido, 
....................     _OtroPunto, 
....................     _Soldando, 
....................     _Terminado 
.................... }; 
.................... #endif 
....................  
.................... #include "Auxiliares_Estados.c" 
.................... #ifndef _AUX_ESTADOS 
.................... #define _AUX_ESTADOS 
.................... int1 perfilVacio(int nPerfil){ 
....................    return (~read_eeprom(0x33*nPerfil-0x32)==0&&~read_eeprom(0x33*nPerfil-0x31)==0&&~read_eeprom(0x33*nPerfil-0x30)==0)? 1:0; 
*
265E:  MOVLB  1
2660:  MOVF   xD4,W
2662:  MULLW  33
2664:  MOVF   FF3,W
2666:  ADDLW  CE
2668:  MOVWF  xD5
266A:  MOVFF  FF2,1D6
266E:  BCF    FF2.7
2670:  MOVFF  1D5,FA9
2674:  BCF    FA6.6
2676:  BCF    FA6.7
2678:  BSF    FA6.0
267A:  MOVF   FA8,W
267C:  BTFSC  xD6.7
267E:  BSF    FF2.7
2680:  XORLW  FF
2682:  XORLW  00
2684:  BNZ   26D6
2686:  MOVF   xD4,W
2688:  MULLW  33
268A:  MOVF   FF3,W
268C:  ADDLW  CF
268E:  MOVWF  xD5
2690:  MOVFF  FF2,1D7
2694:  BCF    FF2.7
2696:  MOVFF  1D5,FA9
269A:  BCF    FA6.6
269C:  BCF    FA6.7
269E:  BSF    FA6.0
26A0:  MOVF   FA8,W
26A2:  BTFSC  xD7.7
26A4:  BSF    FF2.7
26A6:  XORLW  FF
26A8:  XORLW  00
26AA:  BNZ   26D6
26AC:  MOVF   xD4,W
26AE:  MULLW  33
26B0:  MOVF   FF3,W
26B2:  ADDLW  D0
26B4:  MOVWF  xD5
26B6:  MOVFF  FF2,1D8
26BA:  BCF    FF2.7
26BC:  MOVFF  1D5,FA9
26C0:  BCF    FA6.6
26C2:  BCF    FA6.7
26C4:  BSF    FA6.0
26C6:  MOVF   FA8,W
26C8:  BTFSC  xD8.7
26CA:  BSF    FF2.7
26CC:  XORLW  FF
26CE:  XORLW  00
26D0:  BNZ   26D6
26D2:  MOVLW  01
26D4:  BRA    26D8
26D6:  MOVLW  00
26D8:  MOVWF  01
26DA:  MOVLB  0
26DC:  RETURN 0
.................... } 
.................... void GrafPerfil(int *nPuntos,struct Punto *Curva, int nPerfil){ 
*
3858:  MOVFF  17D,1D0
385C:  MOVFF  17E,1D1
3860:  MOVLB  1
3862:  BSF    xD2.0
....................    int _x=X,_y=Y; 
....................    int1 prvPerfilVacio = TRUE; 
....................    if(nPerfil!=1) prvPerfilVacio=perfilVacio(nPerfil-1); 
3864:  DECFSZ xCF,W
3866:  BRA    386A
3868:  BRA    3880
386A:  MOVLW  01
386C:  SUBWF  xCF,W
386E:  MOVWF  xD3
3870:  MOVWF  xD4
3872:  MOVLB  0
3874:  CALL   265E
3878:  MOVLB  1
387A:  BCF    xD2.0
387C:  BTFSC  01.0
387E:  BSF    xD2.0
....................    if(perfilVacio(nPerfil)||nPerfil==6){ 
3880:  MOVFF  1CF,1D4
3884:  MOVLB  0
3886:  CALL   265E
388A:  MOVF   01,F
388C:  BNZ   3898
388E:  MOVLB  1
3890:  MOVF   xCF,W
3892:  SUBLW  06
3894:  BNZ   38A8
3896:  MOVLB  0
....................       if(prvPerfilVacio==0)   printVacio(); 
3898:  MOVLB  1
389A:  BTFSC  xD2.0
389C:  BRA    38A6
389E:  MOVLB  0
38A0:  CALL   2560
38A4:  MOVLB  1
....................    }else{ 
38A6:  BRA    38C2
....................       GrafCurvaPerfil(nPuntos, Curva, nPerfil); 
38A8:  MOVFF  1CC,1D4
38AC:  MOVFF  1CB,1D3
38B0:  MOVFF  1CE,1D6
38B4:  MOVFF  1CD,1D5
38B8:  MOVFF  1CF,1D7
38BC:  MOVLB  0
38BE:  BRA    35FE
38C0:  MOVLB  1
....................    } 
....................    X=_x; 
38C2:  MOVFF  1D0,17D
....................    Y=_y; 
38C6:  MOVFF  1D1,17E
38CA:  MOVLB  0
38CC:  RETURN 0
.................... } 
.................... void printPerfilesLit(){ 
....................    switch(config&0x03){ 
*
2098:  MOVF   1A,W
209A:  ANDLW  03
209C:  ADDLW  FC
209E:  BC    20DC
20A0:  ADDLW  04
20A2:  GOTO   20DE
....................       case 0: 
....................          printf(tft_putc,"PERFILES"); 
20A6:  MOVLW  7C
20A8:  MOVWF  FF6
20AA:  MOVLW  04
20AC:  MOVWF  FF7
20AE:  CALL   1398
....................          break; 
20B2:  BRA    20DC
....................       case 1: 
....................          printf(tft_putc,"PROFILES"); 
20B4:  MOVLW  86
20B6:  MOVWF  FF6
20B8:  MOVLW  04
20BA:  MOVWF  FF7
20BC:  CALL   1398
....................          break; 
20C0:  BRA    20DC
....................       case 2: 
....................          printf(tft_putc,"PROFILS"); 
20C2:  MOVLW  90
20C4:  MOVWF  FF6
20C6:  MOVLW  04
20C8:  MOVWF  FF7
20CA:  CALL   1398
....................          break; 
20CE:  BRA    20DC
....................       case 3: 
....................          printf(tft_putc,"PO\\\\"); 
20D0:  MOVLW  98
20D2:  MOVWF  FF6
20D4:  MOVLW  04
20D6:  MOVWF  FF7
20D8:  CALL   1398
....................          break; 
....................    } 
....................    return; 
20DC:  RETURN 0
.................... } 
.................... void printConfiguracionLit(){ 
....................    switch(config&0x03){ 
*
2100:  MOVF   1A,W
2102:  ANDLW  03
2104:  ADDLW  FC
2106:  BC    2144
2108:  ADDLW  04
210A:  GOTO   2146
....................       case 0: 
....................          printf(tft_putc,"CONFIGURACIN"); 
210E:  MOVLW  A0
2110:  MOVWF  FF6
2112:  MOVLW  04
2114:  MOVWF  FF7
2116:  CALL   1398
....................          break; 
211A:  BRA    2144
....................       case 1: 
....................          printf(tft_putc,"SETTINGS"); 
211C:  MOVLW  AE
211E:  MOVWF  FF6
2120:  MOVLW  04
2122:  MOVWF  FF7
2124:  CALL   1398
....................          break; 
2128:  BRA    2144
....................       case 2: 
....................          printf(tft_putc,"PARAMTRES"); 
212A:  MOVLW  B8
212C:  MOVWF  FF6
212E:  MOVLW  04
2130:  MOVWF  FF7
2132:  CALL   1398
....................          break; 
2136:  BRA    2144
....................       case 3: 
....................          printf(tft_putc,"APAMETP"); 
2138:  MOVLW  C4
213A:  MOVWF  FF6
213C:  MOVLW  04
213E:  MOVWF  FF7
2140:  CALL   1398
....................          break; 
....................    } 
....................    return; 
2144:  RETURN 0
.................... } 
.................... void printTiempoLit(){ 
....................    printEspacios(3); 
*
3E2E:  MOVLW  03
3E30:  MOVLB  1
3E32:  MOVWF  xCB
3E34:  MOVLB  0
3E36:  CALL   2076
....................    switch(config&0x03){ 
3E3A:  MOVF   1A,W
3E3C:  ANDLW  03
3E3E:  ADDLW  FC
3E40:  BC    3E7E
3E42:  ADDLW  04
3E44:  GOTO   3E80
....................       case 0: 
....................          printf(tft_putc,"TIEMPO"); 
3E48:  MOVLW  CE
3E4A:  MOVWF  FF6
3E4C:  MOVLW  04
3E4E:  MOVWF  FF7
3E50:  CALL   1398
....................          break; 
3E54:  BRA    3E7E
....................       case 1: 
....................          printf(tft_putc,"TIME"); 
3E56:  MOVLW  D6
3E58:  MOVWF  FF6
3E5A:  MOVLW  04
3E5C:  MOVWF  FF7
3E5E:  CALL   1398
....................          break; 
3E62:  BRA    3E7E
....................       case 2: 
....................          printf(tft_putc,"TEMPS"); 
3E64:  MOVLW  DC
3E66:  MOVWF  FF6
3E68:  MOVLW  04
3E6A:  MOVWF  FF7
3E6C:  CALL   1398
....................          break; 
3E70:  BRA    3E7E
....................       case 3: 
....................          printf(tft_putc,"OOA"); 
3E72:  MOVLW  E2
3E74:  MOVWF  FF6
3E76:  MOVLW  04
3E78:  MOVWF  FF7
3E7A:  CALL   1398
....................          break; 
....................    } 
....................    return; 
3E7E:  RETURN 0
.................... } 
.................... void printTemperaturaLit(){ 
....................    printEspacios(3); 
*
3EA2:  MOVLW  03
3EA4:  MOVLB  1
3EA6:  MOVWF  xCB
3EA8:  MOVLB  0
3EAA:  CALL   2076
....................    switch(config&0x03){ 
3EAE:  MOVF   1A,W
3EB0:  ANDLW  03
3EB2:  ADDLW  FC
3EB4:  BC    3EF2
3EB6:  ADDLW  04
3EB8:  GOTO   3EF4
....................       case 0: 
....................          printf(tft_putc,"TEMPERATURA"); 
3EBC:  MOVLW  EA
3EBE:  MOVWF  FF6
3EC0:  MOVLW  04
3EC2:  MOVWF  FF7
3EC4:  CALL   1398
....................          break; 
3EC8:  BRA    3EF2
....................       case 1: 
....................          printf(tft_putc,"TIME"); 
3ECA:  MOVLW  F6
3ECC:  MOVWF  FF6
3ECE:  MOVLW  04
3ED0:  MOVWF  FF7
3ED2:  CALL   1398
....................          break; 
3ED6:  BRA    3EF2
....................       case 2: 
....................          printf(tft_putc,"TEMPS"); 
3ED8:  MOVLW  FC
3EDA:  MOVWF  FF6
3EDC:  MOVLW  04
3EDE:  MOVWF  FF7
3EE0:  CALL   1398
....................          break; 
3EE4:  BRA    3EF2
....................       case 3: 
....................          printf(tft_putc,"OOA"); 
3EE6:  MOVLW  02
3EE8:  MOVWF  FF6
3EEA:  MOVLW  05
3EEC:  MOVWF  FF7
3EEE:  CALL   1398
....................          break; 
....................    } 
....................    return; 
3EF2:  RETURN 0
.................... } 
.................... void printIdiomaLit(){ 
....................    printEspacios(3); 
*
3F16:  MOVLW  03
3F18:  MOVLB  1
3F1A:  MOVWF  xCB
3F1C:  MOVLB  0
3F1E:  CALL   2076
....................    switch(config&0x03){ 
3F22:  MOVF   1A,W
3F24:  ANDLW  03
3F26:  ADDLW  FC
3F28:  BC    3F66
3F2A:  ADDLW  04
3F2C:  GOTO   3F68
....................       case 0: 
....................          printf(tft_putc,"IDIOMA"); 
3F30:  MOVLW  0A
3F32:  MOVWF  FF6
3F34:  MOVLW  05
3F36:  MOVWF  FF7
3F38:  CALL   1398
....................          break; 
3F3C:  BRA    3F66
....................       case 1: 
....................          printf(tft_putc,"LANGUAGE"); 
3F3E:  MOVLW  12
3F40:  MOVWF  FF6
3F42:  MOVLW  05
3F44:  MOVWF  FF7
3F46:  CALL   1398
....................          break; 
3F4A:  BRA    3F66
....................       case 2: 
....................          printf(tft_putc,"LANGAGE"); 
3F4C:  MOVLW  1C
3F4E:  MOVWF  FF6
3F50:  MOVLW  05
3F52:  MOVWF  FF7
3F54:  CALL   1398
....................          break; 
3F58:  BRA    3F66
....................       case 3: 
....................          printf(tft_putc,"\\\\OMA"); 
3F5A:  MOVLW  24
3F5C:  MOVWF  FF6
3F5E:  MOVLW  05
3F60:  MOVWF  FF7
3F62:  CALL   1398
....................          break; 
....................    } 
....................    return; 
3F66:  RETURN 0
.................... } 
.................... void printFormatoLit(){ 
....................    printEspacios(6); 
*
4014:  MOVLW  06
4016:  MOVLB  1
4018:  MOVWF  xCB
401A:  MOVLB  0
401C:  CALL   2076
....................    switch(config&0x03){ 
4020:  MOVF   1A,W
4022:  ANDLW  03
4024:  ADDLW  FC
4026:  BC    4064
4028:  ADDLW  04
402A:  GOTO   4066
....................       case 0: 
....................          printf(tft_putc,"FORMATO"); 
402E:  MOVLW  2C
4030:  MOVWF  FF6
4032:  MOVLW  05
4034:  MOVWF  FF7
4036:  CALL   1398
....................          break; 
403A:  BRA    4064
....................       case 1: 
....................          printf(tft_putc,"FORMAT"); 
403C:  MOVLW  34
403E:  MOVWF  FF6
4040:  MOVLW  05
4042:  MOVWF  FF7
4044:  CALL   1398
....................          break; 
4048:  BRA    4064
....................       case 2: 
....................          printf(tft_putc,"FORMAT"); 
404A:  MOVLW  3C
404C:  MOVWF  FF6
404E:  MOVLW  05
4050:  MOVWF  FF7
4052:  CALL   1398
....................          break; 
4056:  BRA    4064
....................       case 3: 
....................          printf(tft_putc,"ORMAT"); 
4058:  MOVLW  44
405A:  MOVWF  FF6
405C:  MOVLW  05
405E:  MOVWF  FF7
4060:  CALL   1398
....................          break; 
....................    } 
....................    return; 
4064:  RETURN 0
.................... } 
.................... void printOrigenLit(){ 
....................    printEspacios(6); 
*
4088:  MOVLW  06
408A:  MOVLB  1
408C:  MOVWF  xCB
408E:  MOVLB  0
4090:  CALL   2076
....................    switch(config&0x03){ 
4094:  MOVF   1A,W
4096:  ANDLW  03
4098:  ADDLW  FC
409A:  BC    40D8
409C:  ADDLW  04
409E:  GOTO   40DA
....................       case 0: 
....................          printf(tft_putc,"ORIGEN"); 
40A2:  MOVLW  4C
40A4:  MOVWF  FF6
40A6:  MOVLW  05
40A8:  MOVWF  FF7
40AA:  CALL   1398
....................          break; 
40AE:  BRA    40D8
....................       case 1: 
....................          printf(tft_putc,"REFERENCE"); 
40B0:  MOVLW  54
40B2:  MOVWF  FF6
40B4:  MOVLW  05
40B6:  MOVWF  FF7
40B8:  CALL   1398
....................          break; 
40BC:  BRA    40D8
....................       case 2: 
....................          printf(tft_putc,"ORIGINE"); 
40BE:  MOVLW  5E
40C0:  MOVWF  FF6
40C2:  MOVLW  05
40C4:  MOVWF  FF7
40C6:  CALL   1398
....................          break; 
40CA:  BRA    40D8
....................       case 3: 
....................          printf(tft_putc,"\\CTOH\\K"); 
40CC:  MOVLW  66
40CE:  MOVWF  FF6
40D0:  MOVLW  05
40D2:  MOVWF  FF7
40D4:  CALL   1398
....................          break; 
....................    } 
....................    return; 
40D8:  RETURN 0
.................... } 
.................... void printVolver(){ 
....................    disable_interrupts(global); 
*
22DE:  BCF    FF2.6
22E0:  BCF    FF2.7
22E2:  BTFSC  FF2.7
22E4:  BRA    22E0
....................    switch(config&0x03){ 
22E6:  MOVF   1A,W
22E8:  ANDLW  03
22EA:  ADDLW  FC
22EC:  BC    232A
22EE:  ADDLW  04
22F0:  GOTO   2330
....................       case 0: 
....................          printf(tft_putc,"VOLVER "); 
22F4:  MOVLW  70
22F6:  MOVWF  FF6
22F8:  MOVLW  05
22FA:  MOVWF  FF7
22FC:  CALL   1398
....................          break; 
2300:  BRA    232A
....................       case 1: 
....................          printf(tft_putc,"RETURN "); 
2302:  MOVLW  78
2304:  MOVWF  FF6
2306:  MOVLW  05
2308:  MOVWF  FF7
230A:  CALL   1398
....................          break; 
230E:  BRA    232A
....................       case 2: 
....................          printf(tft_putc,"REVENIR "); 
2310:  MOVLW  80
2312:  MOVWF  FF6
2314:  MOVLW  05
2316:  MOVWF  FF7
2318:  CALL   1398
....................          break; 
231C:  BRA    232A
....................       case 3: 
....................          printf(tft_putc,"BO[BPAATC "); 
231E:  MOVLW  8A
2320:  MOVWF  FF6
2322:  MOVLW  05
2324:  MOVWF  FF7
2326:  CALL   1398
....................          break; 
....................    } 
....................    enable_interrupts(global); 
232A:  MOVLW  C0
232C:  IORWF  FF2,F
....................    return; 
232E:  RETURN 0
.................... } 
.................... void printInit(){ 
....................    printf(tft_putc,"\f\n "); 
*
203A:  MOVLW  98
203C:  MOVWF  FF6
203E:  MOVLW  05
2040:  MOVWF  FF7
2042:  CALL   1398
....................    return; 
2046:  RETURN 0
.................... } 
.................... void printDobleEndl(int1 DosPuntos){ 
....................    if(DosPuntos) tft_putc(":"); 
2048:  MOVLB  1
204A:  MOVF   xCB,F
204C:  BZ    205E
204E:  MOVLW  9C
2050:  MOVWF  FF6
2052:  MOVLW  05
2054:  MOVWF  FF7
2056:  MOVLB  0
2058:  CALL   1398
205C:  MOVLB  1
....................    printf(tft_putc,"\n\n"); 
205E:  MOVLW  0A
2060:  MOVWF  xF5
2062:  MOVLB  0
2064:  CALL   121A
2068:  MOVLW  0A
206A:  MOVLB  1
206C:  MOVWF  xF5
206E:  MOVLB  0
2070:  CALL   121A
....................    return; 
2074:  RETURN 0
.................... } 
.................... void printMenuPrincipal(){ 
....................    printInit(); 
*
2168:  RCALL  203A
....................    switch(config&0x03){ 
216A:  MOVF   1A,W
216C:  ANDLW  03
216E:  ADDLW  FC
2170:  BC    21AE
2172:  ADDLW  04
2174:  GOTO   223C
....................       case 0: 
....................          printf(tft_putc,"MENU PRINCIPAL"); 
2178:  MOVLW  9E
217A:  MOVWF  FF6
217C:  MOVLW  05
217E:  MOVWF  FF7
2180:  CALL   1398
....................          break; 
2184:  BRA    21AE
....................       case 1: 
....................          printf(tft_putc,"MAIN MENU"); 
2186:  MOVLW  AE
2188:  MOVWF  FF6
218A:  MOVLW  05
218C:  MOVWF  FF7
218E:  CALL   1398
....................          break; 
2192:  BRA    21AE
....................       case 2: 
....................          printf(tft_putc,"MENU PRINCIPAL"); 
2194:  MOVLW  B8
2196:  MOVWF  FF6
2198:  MOVLW  05
219A:  MOVWF  FF7
219C:  CALL   1398
....................          break; 
21A0:  BRA    21AE
....................       case 3: 
....................          printf(tft_putc,"ABHOE MEH"); 
21A2:  MOVLW  C8
21A4:  MOVWF  FF6
21A6:  MOVLW  05
21A8:  MOVWF  FF7
21AA:  CALL   1398
....................          break; 
....................    } 
....................     
....................    printDobleEndl(1); 
21AE:  MOVLW  01
21B0:  MOVLB  1
21B2:  MOVWF  xCB
21B4:  MOVLB  0
21B6:  RCALL  2048
....................    printEspacios(3); 
21B8:  MOVLW  03
21BA:  MOVLB  1
21BC:  MOVWF  xCB
21BE:  MOVLB  0
21C0:  RCALL  2076
....................    printPerfilesLit(); 
21C2:  RCALL  2098
....................    printDobleEndl(0); 
21C4:  MOVLB  1
21C6:  CLRF   xCB
21C8:  MOVLB  0
21CA:  RCALL  2048
....................    printEspacios(3); 
21CC:  MOVLW  03
21CE:  MOVLB  1
21D0:  MOVWF  xCB
21D2:  MOVLB  0
21D4:  RCALL  2076
....................    switch(config&0x03){ 
21D6:  MOVF   1A,W
21D8:  ANDLW  03
21DA:  ADDLW  FC
21DC:  BC    221A
21DE:  ADDLW  04
21E0:  GOTO   225E
....................       case 0: 
....................          printf(tft_putc,"CARGAR VALORES"); 
21E4:  MOVLW  D6
21E6:  MOVWF  FF6
21E8:  MOVLW  05
21EA:  MOVWF  FF7
21EC:  CALL   1398
....................          break; 
21F0:  BRA    221A
....................       case 1: 
....................          printf(tft_putc,"LOAD VALUES"); 
21F2:  MOVLW  E6
21F4:  MOVWF  FF6
21F6:  MOVLW  05
21F8:  MOVWF  FF7
21FA:  CALL   1398
....................          break; 
21FE:  BRA    221A
....................       case 2: 
....................          printf(tft_putc,"CHARGER VALEURS"); 
2200:  MOVLW  F2
2202:  MOVWF  FF6
2204:  MOVLW  05
2206:  MOVWF  FF7
2208:  CALL   1398
....................          break; 
220C:  BRA    221A
....................       case 3: 
....................          printf(tft_putc,"[HAEH\\ HAPY[K\\"); 
220E:  MOVLW  02
2210:  MOVWF  FF6
2212:  MOVLW  06
2214:  MOVWF  FF7
2216:  CALL   1398
....................          break; 
....................    } 
....................    printDobleEndl(0); 
221A:  MOVLB  1
221C:  CLRF   xCB
221E:  MOVLB  0
2220:  RCALL  2048
....................    printEspacios(3); 
2222:  MOVLW  03
2224:  MOVLB  1
2226:  MOVWF  xCB
2228:  MOVLB  0
222A:  RCALL  2076
....................    printConfiguracionLit(); 
222C:  RCALL  2100
....................    printf(tft_putc," "); 
222E:  MOVLW  20
2230:  MOVLB  1
2232:  MOVWF  xF5
2234:  MOVLB  0
2236:  CALL   121A
....................    return; 
223A:  RETURN 0
.................... } 
.................... void printPerfiles(){ 
....................    disable_interrupts(global); 
*
2352:  BCF    FF2.6
2354:  BCF    FF2.7
2356:  BTFSC  FF2.7
2358:  BRA    2354
....................    printf(tft_putc,"\f"); 
235A:  MOVLW  0C
235C:  MOVLB  1
235E:  MOVWF  xF5
2360:  MOVLB  0
2362:  CALL   121A
....................    printPerfilesLit(); 
2366:  RCALL  2098
....................    printf(tft_putc,":\n"); 
2368:  MOVLW  3A
236A:  MOVLB  1
236C:  MOVWF  xF5
236E:  MOVLB  0
2370:  CALL   121A
2374:  MOVLW  0A
2376:  MOVLB  1
2378:  MOVWF  xF5
237A:  MOVLB  0
237C:  CALL   121A
....................    printf(tft_putc,"  1  2  3  4  5  "); 
2380:  MOVLW  14
2382:  MOVWF  FF6
2384:  MOVLW  06
2386:  MOVWF  FF7
2388:  CALL   1398
....................    printVolver(); 
238C:  RCALL  22DE
....................    enable_interrupts(global); 
238E:  MOVLW  C0
2390:  IORWF  FF2,F
....................    return; 
2392:  GOTO   39B6 (RETURN)
.................... } 
.................... void printConfiguracion(){ 
....................    printInit(); 
*
3F8A:  CALL   203A
....................    printConfiguracionLit(); 
3F8E:  CALL   2100
....................    printDobleEndl(1); 
3F92:  MOVLW  01
3F94:  MOVLB  1
3F96:  MOVWF  xCB
3F98:  MOVLB  0
3F9A:  CALL   2048
....................    printTiempoLit(); 
3F9E:  RCALL  3E2E
....................    printDobleEndl(0); 
3FA0:  MOVLB  1
3FA2:  CLRF   xCB
3FA4:  MOVLB  0
3FA6:  CALL   2048
....................    printTemperaturaLit(); 
3FAA:  RCALL  3EA2
....................    printDobleEndl(0); 
3FAC:  MOVLB  1
3FAE:  CLRF   xCB
3FB0:  MOVLB  0
3FB2:  CALL   2048
....................    printIdiomaLit(); 
3FB6:  RCALL  3F16
....................    printDobleEndl(0); 
3FB8:  MOVLB  1
3FBA:  CLRF   xCB
3FBC:  MOVLB  0
3FBE:  CALL   2048
....................    printEspacios(3); 
3FC2:  MOVLW  03
3FC4:  MOVLB  1
3FC6:  MOVWF  xCB
3FC8:  MOVLB  0
3FCA:  CALL   2076
....................    printVolver(); 
3FCE:  CALL   22DE
....................    return; 
3FD2:  RETURN 0
.................... } 
.................... void printTiempo(){ 
....................    printInit(); 
*
40FC:  CALL   203A
....................    printConfiguracionLit(); 
4100:  CALL   2100
....................    printDobleEndl(1); 
4104:  MOVLW  01
4106:  MOVLB  1
4108:  MOVWF  xCB
410A:  MOVLB  0
410C:  CALL   2048
....................    printTiempoLit(); 
4110:  RCALL  3E2E
....................    printDobleEndl(1); 
4112:  MOVLW  01
4114:  MOVLB  1
4116:  MOVWF  xCB
4118:  MOVLB  0
411A:  CALL   2048
....................    printFormatoLit(); 
411E:  RCALL  4014
....................    printDobleEndl(0); 
4120:  MOVLB  1
4122:  CLRF   xCB
4124:  MOVLB  0
4126:  CALL   2048
....................    printOrigenLit(); 
412A:  RCALL  4088
....................    printDobleEndl(0); 
412C:  MOVLB  1
412E:  CLRF   xCB
4130:  MOVLB  0
4132:  CALL   2048
....................    printEspacios(6); 
4136:  MOVLW  06
4138:  MOVLB  1
413A:  MOVWF  xCB
413C:  MOVLB  0
413E:  CALL   2076
....................    printVolver(); 
4142:  CALL   22DE
....................    return; 
4146:  RETURN 0
.................... } 
.................... void printFormato(){ 
....................    printInit(); 
*
4180:  CALL   203A
....................    printConfiguracionLit(); 
4184:  CALL   2100
....................    printDobleEndl(1); 
4188:  MOVLW  01
418A:  MOVLB  1
418C:  MOVWF  xCB
418E:  MOVLB  0
4190:  CALL   2048
....................    printTiempoLit(); 
4194:  RCALL  3E2E
....................    printDobleEndl(1); 
4196:  MOVLW  01
4198:  MOVLB  1
419A:  MOVWF  xCB
419C:  MOVLB  0
419E:  CALL   2048
....................    printFormatoLit(); 
41A2:  RCALL  4014
....................    printDobleEndl(1); 
41A4:  MOVLW  01
41A6:  MOVLB  1
41A8:  MOVWF  xCB
41AA:  MOVLB  0
41AC:  CALL   2048
....................    printEspacios(9); 
41B0:  MOVLW  09
41B2:  MOVLB  1
41B4:  MOVWF  xCB
41B6:  MOVLB  0
41B8:  CALL   2076
....................    if(config&0x03==3) printf(tft_putc,"CCCC"); 
41BC:  BTFSS  1A.0
41BE:  BRA    41CE
41C0:  MOVLW  26
41C2:  MOVWF  FF6
41C4:  MOVLW  06
41C6:  MOVWF  FF7
41C8:  CALL   1398
41CC:  BRA    41DA
....................    else printf(tft_putc,"SSSS"); 
41CE:  MOVLW  2C
41D0:  MOVWF  FF6
41D2:  MOVLW  06
41D4:  MOVWF  FF7
41D6:  CALL   1398
....................    printDobleEndl(0); 
41DA:  MOVLB  1
41DC:  CLRF   xCB
41DE:  MOVLB  0
41E0:  CALL   2048
....................    printEspacios(9); 
41E4:  MOVLW  09
41E6:  MOVLB  1
41E8:  MOVWF  xCB
41EA:  MOVLB  0
41EC:  CALL   2076
....................    printf(tft_putc,"MM:"); 
41F0:  MOVLW  32
41F2:  MOVWF  FF6
41F4:  MOVLW  06
41F6:  MOVWF  FF7
41F8:  CALL   1398
....................    if(config&0x03==3) printf(tft_putc,"CC"); 
41FC:  BTFSS  1A.0
41FE:  BRA    421A
4200:  MOVLW  43
4202:  MOVLB  1
4204:  MOVWF  xF5
4206:  MOVLB  0
4208:  CALL   121A
420C:  MOVLW  43
420E:  MOVLB  1
4210:  MOVWF  xF5
4212:  MOVLB  0
4214:  CALL   121A
4218:  BRA    4232
....................    else printf(tft_putc,"SS"); 
421A:  MOVLW  53
421C:  MOVLB  1
421E:  MOVWF  xF5
4220:  MOVLB  0
4222:  CALL   121A
4226:  MOVLW  53
4228:  MOVLB  1
422A:  MOVWF  xF5
422C:  MOVLB  0
422E:  CALL   121A
....................    printDobleEndl(0); 
4232:  MOVLB  1
4234:  CLRF   xCB
4236:  MOVLB  0
4238:  CALL   2048
....................    printEspacios(9); 
423C:  MOVLW  09
423E:  MOVLB  1
4240:  MOVWF  xCB
4242:  MOVLB  0
4244:  CALL   2076
....................    printVolver(); 
4248:  CALL   22DE
....................    return; 
424C:  GOTO   427A (RETURN)
.................... } 
.................... void printOrigen(){ 
....................    printInit(); 
*
43EE:  CALL   203A
....................    printConfiguracionLit(); 
43F2:  CALL   2100
....................    printDobleEndl(1); 
43F6:  MOVLW  01
43F8:  MOVLB  1
43FA:  MOVWF  xCB
43FC:  MOVLB  0
43FE:  CALL   2048
....................    printTiempoLit(); 
4402:  RCALL  3E2E
....................    printDobleEndl(1); 
4404:  MOVLW  01
4406:  MOVLB  1
4408:  MOVWF  xCB
440A:  MOVLB  0
440C:  CALL   2048
....................    printOrigenLit(); 
4410:  RCALL  4088
....................    printDobleEndl(1); 
4412:  MOVLW  01
4414:  MOVLB  1
4416:  MOVWF  xCB
4418:  MOVLB  0
441A:  CALL   2048
....................    printEspacios(9); 
441E:  MOVLW  09
4420:  MOVLB  1
4422:  MOVWF  xCB
4424:  MOVLB  0
4426:  CALL   2076
....................    switch(config&0x03){ 
442A:  MOVF   1A,W
442C:  ANDLW  03
442E:  ADDLW  FC
4430:  BC    446E
4432:  ADDLW  04
4434:  GOTO   44E6
....................       case 0: 
....................          printf(tft_putc,"RELATIVO"); 
4438:  MOVLW  36
443A:  MOVWF  FF6
443C:  MOVLW  06
443E:  MOVWF  FF7
4440:  CALL   1398
....................          break; 
4444:  BRA    446E
....................       case 1: 
....................          printf(tft_putc,"RELATIVE"); 
4446:  MOVLW  40
4448:  MOVWF  FF6
444A:  MOVLW  06
444C:  MOVWF  FF7
444E:  CALL   1398
....................          break; 
4452:  BRA    446E
....................       case 2: 
....................          printf(tft_putc,"RELATIF"); 
4454:  MOVLW  4A
4456:  MOVWF  FF6
4458:  MOVLW  06
445A:  MOVWF  FF7
445C:  CALL   1398
....................          break; 
4460:  BRA    446E
....................       case 3: 
....................          printf(tft_putc,"POCTBEHH\\K"); 
4462:  MOVLW  52
4464:  MOVWF  FF6
4466:  MOVLW  06
4468:  MOVWF  FF7
446A:  CALL   1398
....................          break; 
....................    } 
....................    printDobleEndl(0); 
446E:  MOVLB  1
4470:  CLRF   xCB
4472:  MOVLB  0
4474:  CALL   2048
....................    printEspacios(9); 
4478:  MOVLW  09
447A:  MOVLB  1
447C:  MOVWF  xCB
447E:  MOVLB  0
4480:  CALL   2076
....................    switch(config&0x03){ 
4484:  MOVF   1A,W
4486:  ANDLW  03
4488:  ADDLW  FC
448A:  BC    44C8
448C:  ADDLW  04
448E:  GOTO   4508
....................       case 0: 
....................          printf(tft_putc,"ABSOLUTO"); 
4492:  MOVLW  5E
4494:  MOVWF  FF6
4496:  MOVLW  06
4498:  MOVWF  FF7
449A:  CALL   1398
....................          break; 
449E:  BRA    44C8
....................       case 1: 
....................          printf(tft_putc,"ABSOLUT"); 
44A0:  MOVLW  68
44A2:  MOVWF  FF6
44A4:  MOVLW  06
44A6:  MOVWF  FF7
44A8:  CALL   1398
....................          break; 
44AC:  BRA    44C8
....................       case 2: 
....................          printf(tft_putc,"ABSOLU"); 
44AE:  MOVLW  70
44B0:  MOVWF  FF6
44B2:  MOVLW  06
44B4:  MOVWF  FF7
44B6:  CALL   1398
....................          break; 
44BA:  BRA    44C8
....................       case 3: 
....................          printf(tft_putc,"ACOTH]"); 
44BC:  MOVLW  78
44BE:  MOVWF  FF6
44C0:  MOVLW  06
44C2:  MOVWF  FF7
44C4:  CALL   1398
....................          break; 
....................    } 
....................    printDobleEndl(0); 
44C8:  MOVLB  1
44CA:  CLRF   xCB
44CC:  MOVLB  0
44CE:  CALL   2048
....................    printEspacios(9); 
44D2:  MOVLW  09
44D4:  MOVLB  1
44D6:  MOVWF  xCB
44D8:  MOVLB  0
44DA:  CALL   2076
....................    printVolver(); 
44DE:  CALL   22DE
....................    return; 
44E2:  GOTO   4556 (RETURN)
.................... } 
.................... void printTemperatura(){ 
....................    printInit(); 
*
4704:  CALL   203A
....................    printConfiguracionLit(); 
4708:  CALL   2100
....................    printDobleEndl(1); 
470C:  MOVLW  01
470E:  MOVLB  1
4710:  MOVWF  xCB
4712:  MOVLB  0
4714:  CALL   2048
....................    printTemperaturaLit(); 
4718:  CALL   3EA2
....................    printDobleEndl(1); 
471C:  MOVLW  01
471E:  MOVLB  1
4720:  MOVWF  xCB
4722:  MOVLB  0
4724:  CALL   2048
....................    printEspacios(6); 
4728:  MOVLW  06
472A:  MOVLB  1
472C:  MOVWF  xCB
472E:  MOVLB  0
4730:  CALL   2076
....................    printf(tft_putc,"C"); 
4734:  MOVLW  B0
4736:  MOVLB  1
4738:  MOVWF  xF5
473A:  MOVLB  0
473C:  CALL   121A
4740:  MOVLW  43
4742:  MOVLB  1
4744:  MOVWF  xF5
4746:  MOVLB  0
4748:  CALL   121A
....................    printDobleEndl(0); 
474C:  MOVLB  1
474E:  CLRF   xCB
4750:  MOVLB  0
4752:  CALL   2048
....................    printEspacios(6); 
4756:  MOVLW  06
4758:  MOVLB  1
475A:  MOVWF  xCB
475C:  MOVLB  0
475E:  CALL   2076
....................    printf(tft_putc,"F"); 
4762:  MOVLW  B0
4764:  MOVLB  1
4766:  MOVWF  xF5
4768:  MOVLB  0
476A:  CALL   121A
476E:  MOVLW  46
4770:  MOVLB  1
4772:  MOVWF  xF5
4774:  MOVLB  0
4776:  CALL   121A
....................    printDobleEndl(0); 
477A:  MOVLB  1
477C:  CLRF   xCB
477E:  MOVLB  0
4780:  CALL   2048
....................    printEspacios(6); 
4784:  MOVLW  06
4786:  MOVLB  1
4788:  MOVWF  xCB
478A:  MOVLB  0
478C:  CALL   2076
....................    printVolver(); 
4790:  CALL   22DE
....................    return; 
4794:  GOTO   47C4 (RETURN)
.................... } 
.................... void printIdioma(){ 
....................    printInit(); 
*
493A:  CALL   203A
....................    printConfiguracionLit(); 
493E:  CALL   2100
....................    printDobleEndl(1); 
4942:  MOVLW  01
4944:  MOVLB  1
4946:  MOVWF  xCB
4948:  MOVLB  0
494A:  CALL   2048
....................    printIdiomaLit(); 
494E:  CALL   3F16
....................    printDobleEndl(1); 
4952:  MOVLW  01
4954:  MOVLB  1
4956:  MOVWF  xCB
4958:  MOVLB  0
495A:  CALL   2048
....................    printEspacios(6); 
495E:  MOVLW  06
4960:  MOVLB  1
4962:  MOVWF  xCB
4964:  MOVLB  0
4966:  CALL   2076
....................    printf(tft_putc,"ESPAOL"); 
496A:  MOVLW  84
496C:  MOVWF  FF6
496E:  MOVLW  06
4970:  MOVWF  FF7
4972:  CALL   1398
....................    printDobleEndl(0); 
4976:  MOVLB  1
4978:  CLRF   xCB
497A:  MOVLB  0
497C:  CALL   2048
....................    printEspacios(6); 
4980:  MOVLW  06
4982:  MOVLB  1
4984:  MOVWF  xCB
4986:  MOVLB  0
4988:  CALL   2076
....................    printf(tft_putc,"ENGLISH"); 
498C:  MOVLW  8C
498E:  MOVWF  FF6
4990:  MOVLW  06
4992:  MOVWF  FF7
4994:  CALL   1398
....................    printDobleEndl(0); 
4998:  MOVLB  1
499A:  CLRF   xCB
499C:  MOVLB  0
499E:  CALL   2048
....................    printEspacios(6); 
49A2:  MOVLW  06
49A4:  MOVLB  1
49A6:  MOVWF  xCB
49A8:  MOVLB  0
49AA:  CALL   2076
....................    printf(tft_putc,"FRANAIS"); 
49AE:  MOVLW  94
49B0:  MOVWF  FF6
49B2:  MOVLW  06
49B4:  MOVWF  FF7
49B6:  CALL   1398
....................    printDobleEndl(0); 
49BA:  MOVLB  1
49BC:  CLRF   xCB
49BE:  MOVLB  0
49C0:  CALL   2048
....................    printEspacios(6); 
49C4:  MOVLW  06
49C6:  MOVLB  1
49C8:  MOVWF  xCB
49CA:  MOVLB  0
49CC:  CALL   2076
....................    printf(tft_putc,"PYCCK\\]"); 
49D0:  MOVLW  9E
49D2:  MOVWF  FF6
49D4:  MOVLW  06
49D6:  MOVWF  FF7
49D8:  CALL   1398
....................    printDobleEndl(0); 
49DC:  MOVLB  1
49DE:  CLRF   xCB
49E0:  MOVLB  0
49E2:  CALL   2048
....................    printEspacios(6); 
49E6:  MOVLW  06
49E8:  MOVLB  1
49EA:  MOVWF  xCB
49EC:  MOVLB  0
49EE:  CALL   2076
....................    printVolver(); 
49F2:  CALL   22DE
....................    return; 
49F6:  RETURN 0
.................... } 
.................... void printSoldando(){ 
....................    disable_interrupts(global); 
*
6052:  BCF    FF2.6
6054:  BCF    FF2.7
6056:  BTFSC  FF2.7
6058:  BRA    6054
....................    fillRect(X_BEGIN,Y_BEGIN-8,_width,16,BG_COLOR); 
605A:  MOVLW  08
605C:  MOVLB  1
605E:  SUBWF  x7C,W
6060:  MOVWF  xE6
6062:  MOVLB  2
6064:  CLRF   x02
6066:  MOVFF  17A,201
606A:  MOVWF  x03
606C:  MOVFF  172,204
6070:  MOVLW  10
6072:  MOVWF  x05
6074:  MOVFF  171,207
6078:  MOVFF  170,206
607C:  MOVLB  0
607E:  CALL   0EEC
....................    tft_gotoxy(0,0); 
6082:  MOVLB  1
6084:  CLRF   xF6
6086:  CLRF   xF7
6088:  MOVLB  0
608A:  CALL   10DE
....................    switch(config&0x03){ 
608E:  MOVF   1A,W
6090:  ANDLW  03
6092:  ADDLW  FC
6094:  BC    60D2
6096:  ADDLW  04
6098:  GOTO   60E4
....................       case 0: 
....................          printf(tft_putc,"SOLDANDO"); 
609C:  MOVLW  A6
609E:  MOVWF  FF6
60A0:  MOVLW  06
60A2:  MOVWF  FF7
60A4:  CALL   1398
....................          break; 
60A8:  BRA    60D2
....................       case 1: 
....................          printf(tft_putc,"REFLOWING"); 
60AA:  MOVLW  B0
60AC:  MOVWF  FF6
60AE:  MOVLW  06
60B0:  MOVWF  FF7
60B2:  CALL   1398
....................          break; 
60B6:  BRA    60D2
....................       case 2: 
....................          printf(tft_putc,"SOLDURE"); 
60B8:  MOVLW  BA
60BA:  MOVWF  FF6
60BC:  MOVLW  06
60BE:  MOVWF  FF7
60C0:  CALL   1398
....................          break; 
60C4:  BRA    60D2
....................       case 3: 
....................          printf(tft_putc,"A]KA"); 
60C6:  MOVLW  C2
60C8:  MOVWF  FF6
60CA:  MOVLW  06
60CC:  MOVWF  FF7
60CE:  CALL   1398
....................          break; 
....................    } 
....................    printf(tft_putc,"..."); 
60D2:  MOVLW  C8
60D4:  MOVWF  FF6
60D6:  MOVLW  06
60D8:  MOVWF  FF7
60DA:  CALL   1398
....................    enable_interrupts(global); 
60DE:  MOVLW  C0
60E0:  IORWF  FF2,F
....................    return; 
60E2:  RETURN 0
.................... } 
.................... void printCancelar(){ 
....................    disable_interrupts(global); 
*
6356:  BCF    FF2.6
6358:  BCF    FF2.7
635A:  BTFSC  FF2.7
635C:  BRA    6358
....................    fillRect(X_BEGIN,Y_BEGIN-8,_width,16,BG_COLOR); 
635E:  MOVLW  08
6360:  MOVLB  1
6362:  SUBWF  x7C,W
6364:  MOVWF  xE6
6366:  MOVLB  2
6368:  CLRF   x02
636A:  MOVFF  17A,201
636E:  MOVWF  x03
6370:  MOVFF  172,204
6374:  MOVLW  10
6376:  MOVWF  x05
6378:  MOVFF  171,207
637C:  MOVFF  170,206
6380:  MOVLB  0
6382:  CALL   0EEC
....................    tft_gotoxy(0,0); 
6386:  MOVLB  1
6388:  CLRF   xF6
638A:  CLRF   xF7
638C:  MOVLB  0
638E:  CALL   10DE
....................    switch(config&0x03){   
6392:  MOVF   1A,W
6394:  ANDLW  03
6396:  ADDLW  FC
6398:  BC    63D6
639A:  ADDLW  04
639C:  GOTO   63EE
....................       case 0: 
....................          printf(tft_putc,"CANCELAR"); 
63A0:  MOVLW  CC
63A2:  MOVWF  FF6
63A4:  MOVLW  06
63A6:  MOVWF  FF7
63A8:  CALL   1398
....................          break; 
63AC:  BRA    63D6
....................       case 1: 
....................          printf(tft_putc,"CANCEL"); 
63AE:  MOVLW  D6
63B0:  MOVWF  FF6
63B2:  MOVLW  06
63B4:  MOVWF  FF7
63B6:  CALL   1398
....................          break; 
63BA:  BRA    63D6
....................       case 2: 
....................          printf(tft_putc,"ANNULER"); 
63BC:  MOVLW  DE
63BE:  MOVWF  FF6
63C0:  MOVLW  06
63C2:  MOVWF  FF7
63C4:  CALL   1398
....................          break; 
63C8:  BRA    63D6
....................       case 3: 
....................          printf(tft_putc,"OTMEH\\T"); 
63CA:  MOVLW  E6
63CC:  MOVWF  FF6
63CE:  MOVLW  06
63D0:  MOVWF  FF7
63D2:  CALL   1398
....................          break; 
....................    }  
....................    tft_putc("?"); 
63D6:  MOVLW  F0
63D8:  MOVWF  FF6
63DA:  MOVLW  06
63DC:  MOVWF  FF7
63DE:  CALL   1398
....................    enable_interrupts(INT_EXT2_H2L); 
63E2:  BSF    FF0.4
63E4:  BCF    FF1.4
....................    enable_interrupts(global); 
63E6:  MOVLW  C0
63E8:  IORWF  FF2,F
....................    return; 
63EA:  GOTO   698E (RETURN)
.................... } 
.................... void printTermiando(){ 
....................    disable_interrupts(global); 
*
6E46:  BCF    FF2.6
6E48:  BCF    FF2.7
6E4A:  BTFSC  FF2.7
6E4C:  BRA    6E48
....................    fillRect(X_BEGIN,Y_BEGIN-8,_width,16,BG_COLOR); 
6E4E:  MOVLW  08
6E50:  MOVLB  1
6E52:  SUBWF  x7C,W
6E54:  MOVWF  xC6
6E56:  MOVLB  2
6E58:  CLRF   x02
6E5A:  MOVFF  17A,201
6E5E:  MOVWF  x03
6E60:  MOVFF  172,204
6E64:  MOVLW  10
6E66:  MOVWF  x05
6E68:  MOVFF  171,207
6E6C:  MOVFF  170,206
6E70:  MOVLB  0
6E72:  CALL   0EEC
....................    tft_gotoxy(0,0); 
6E76:  MOVLB  1
6E78:  CLRF   xF6
6E7A:  CLRF   xF7
6E7C:  MOVLB  0
6E7E:  CALL   10DE
....................    switch(config&0x03){ 
6E82:  MOVF   1A,W
6E84:  ANDLW  03
6E86:  ADDLW  FC
6E88:  BC    6EC6
6E8A:  ADDLW  04
6E8C:  GOTO   6ECE
....................       case 0: 
....................          printf(tft_putc,"TERMINADO"); 
6E90:  MOVLW  F2
6E92:  MOVWF  FF6
6E94:  MOVLW  06
6E96:  MOVWF  FF7
6E98:  CALL   1398
....................          break; 
6E9C:  BRA    6EC6
....................       case 1: 
....................          printf(tft_putc,"ENDED"); 
6E9E:  MOVLW  FC
6EA0:  MOVWF  FF6
6EA2:  MOVLW  06
6EA4:  MOVWF  FF7
6EA6:  CALL   1398
....................          break; 
6EAA:  BRA    6EC6
....................       case 2: 
....................          printf(tft_putc,"FINALISE"); 
6EAC:  MOVLW  02
6EAE:  MOVWF  FF6
6EB0:  MOVLW  07
6EB2:  MOVWF  FF7
6EB4:  CALL   1398
....................          break; 
6EB8:  BRA    6EC6
....................       case 3: 
....................          printf(tft_putc,"[AKOHEHH]"); 
6EBA:  MOVLW  0C
6EBC:  MOVWF  FF6
6EBE:  MOVLW  07
6EC0:  MOVWF  FF7
6EC2:  CALL   1398
....................          break; 
....................       } 
....................    enable_interrupts(global); 
6EC6:  MOVLW  C0
6EC8:  IORWF  FF2,F
....................    return; 
6ECA:  GOTO   6F04 (RETURN)
.................... } 
.................... void printIniciar(){ 
....................    switch(config&0x03){ 
*
5CEA:  MOVF   1A,W
5CEC:  ANDLW  03
5CEE:  ADDLW  FC
5CF0:  BC    5D2E
5CF2:  ADDLW  04
5CF4:  GOTO   5D3E
....................       case 0: 
....................          printf(tft_putc,"INICIAR"); 
5CF8:  MOVLW  18
5CFA:  MOVWF  FF6
5CFC:  MOVLW  07
5CFE:  MOVWF  FF7
5D00:  CALL   1398
....................          break; 
5D04:  BRA    5D2E
....................       case 1: 
....................          printf(tft_putc,"START"); 
5D06:  MOVLW  22
5D08:  MOVWF  FF6
5D0A:  MOVLW  07
5D0C:  MOVWF  FF7
5D0E:  CALL   1398
....................          break; 
5D12:  BRA    5D2E
....................       case 2: 
....................          printf(tft_putc,"COMMENCER"); 
5D14:  MOVLW  28
5D16:  MOVWF  FF6
5D18:  MOVLW  07
5D1A:  MOVWF  FF7
5D1C:  CALL   1398
....................          break; 
5D20:  BRA    5D2E
....................       case 3: 
....................          printf(tft_putc,"HA\\HAT");  
5D22:  MOVLW  32
5D24:  MOVWF  FF6
5D26:  MOVLW  07
5D28:  MOVWF  FF7
5D2A:  CALL   1398
....................          break; 
....................    } 
....................    tft_putc("?"); 
5D2E:  MOVLW  3C
5D30:  MOVWF  FF6
5D32:  MOVLW  07
5D34:  MOVWF  FF7
5D36:  CALL   1398
....................    return; 
5D3A:  GOTO   5D96 (RETURN)
.................... } 
.................... void printOtroPunto(){ 
....................    printf(tft_putc," >"); 
*
5F30:  MOVLW  20
5F32:  MOVLB  1
5F34:  MOVWF  xF5
5F36:  MOVLB  0
5F38:  CALL   121A
5F3C:  MOVLW  3E
5F3E:  MOVLB  1
5F40:  MOVWF  xF5
5F42:  MOVLB  0
5F44:  CALL   121A
....................    switch(config&0x03){ 
5F48:  MOVF   1A,W
5F4A:  ANDLW  03
5F4C:  ADDLW  FC
5F4E:  BC    5F8C
5F50:  ADDLW  04
5F52:  GOTO   5F9C
....................       case 0: 
....................          printf(tft_putc,"OTRO PUNTO"); 
5F56:  MOVLW  3E
5F58:  MOVWF  FF6
5F5A:  MOVLW  07
5F5C:  MOVWF  FF7
5F5E:  CALL   1398
....................          break; 
5F62:  BRA    5F8C
....................       case 1: 
....................          printf(tft_putc,"ANOTHER POINT"); 
5F64:  MOVLW  4A
5F66:  MOVWF  FF6
5F68:  MOVLW  07
5F6A:  MOVWF  FF7
5F6C:  CALL   1398
....................          break; 
5F70:  BRA    5F8C
....................       case 2: 
....................          printf(tft_putc,"AUTRE POINT"); 
5F72:  MOVLW  58
5F74:  MOVWF  FF6
5F76:  MOVLW  07
5F78:  MOVWF  FF7
5F7A:  CALL   1398
....................          break; 
5F7E:  BRA    5F8C
....................       case 3: 
....................          printf(tft_putc,"PYA TOKA"); 
5F80:  MOVLW  64
5F82:  MOVWF  FF6
5F84:  MOVLW  07
5F86:  MOVWF  FF7
5F88:  CALL   1398
....................          break; 
....................    } 
....................    tft_putc("?"); 
5F8C:  MOVLW  72
5F8E:  MOVWF  FF6
5F90:  MOVLW  07
5F92:  MOVWF  FF7
5F94:  CALL   1398
....................    return; 
5F98:  GOTO   5FDE (RETURN)
.................... } 
.................... void print_temp(long ovr){ 
*
4D10:  MOVFF  17D,1D8
4D14:  MOVFF  17E,1D9
....................    int _x=X,_y=Y; 
....................    tft_gotoxy(X_MAX-4,0); 
4D18:  MOVLW  04
4D1A:  MOVLB  1
4D1C:  SUBWF  x79,W
4D1E:  MOVWF  xDA
4D20:  MOVWF  xF6
4D22:  CLRF   xF7
4D24:  MOVLB  0
4D26:  CALL   10DE
....................    if(ovr==1000){ 
4D2A:  MOVLB  1
4D2C:  MOVF   xD6,W
4D2E:  SUBLW  E8
4D30:  BNZ   4D52
4D32:  MOVF   xD7,W
4D34:  SUBLW  03
4D36:  BNZ   4D52
....................       printf(tft_putc,"MAX"); 
4D38:  MOVLW  74
4D3A:  MOVWF  FF6
4D3C:  MOVLW  07
4D3E:  MOVWF  FF7
4D40:  MOVLB  0
4D42:  CALL   1398
....................       X=_x; 
4D46:  MOVFF  1D8,17D
....................       Y=_y; 
4D4A:  MOVFF  1D9,17E
....................       return; 
4D4E:  BRA    4D8E
4D50:  MOVLB  1
....................    } 
....................    if(ovr==-1){ 
4D52:  INCFSZ xD6,W
4D54:  BRA    4D74
4D56:  INCFSZ xD7,W
4D58:  BRA    4D74
....................       printf(tft_putc,"MIN"); 
4D5A:  MOVLW  78
4D5C:  MOVWF  FF6
4D5E:  MOVLW  07
4D60:  MOVWF  FF7
4D62:  MOVLB  0
4D64:  CALL   1398
....................       X=_x; 
4D68:  MOVFF  1D8,17D
....................       Y=_y; 
4D6C:  MOVFF  1D9,17E
....................       return; 
4D70:  BRA    4D8E
4D72:  MOVLB  1
....................    } 
....................    printf(tft_putc,"%03Lu",ovr); 
4D74:  MOVLW  0A
4D76:  MOVWF  FE9
4D78:  MOVFF  1D7,1EB
4D7C:  MOVFF  1D6,1EA
4D80:  MOVLB  0
4D82:  CALL   33BA
....................    X=_x; 
4D86:  MOVFF  1D8,17D
....................    Y=_y; 
4D8A:  MOVFF  1D9,17E
....................    return; 
4D8E:  RETURN 0
.................... } 
.................... void print_tiempo(long tiempo){ 
*
4E58:  MOVFF  17D,1D6
4E5C:  MOVFF  17E,1D7
....................    int _x=X,_y=Y; 
....................    tft_gotoxy(X_MAX-4,1); 
4E60:  MOVLW  04
4E62:  MOVLB  1
4E64:  SUBWF  x79,W
4E66:  MOVWF  xDA
4E68:  MOVWF  xF6
4E6A:  MOVLW  01
4E6C:  MOVWF  xF7
4E6E:  MOVLB  0
4E70:  CALL   10DE
....................    if((config&0x10)==0x10){ 
4E74:  MOVF   1A,W
4E76:  ANDLW  10
4E78:  SUBLW  10
4E7A:  BNZ   4F00
....................       int min=(tiempo/60)%100,seg=tiempo%60; 
4E7C:  MOVFF  1D5,20A
4E80:  MOVFF  1D4,209
4E84:  MOVLB  2
4E86:  CLRF   x0C
4E88:  MOVLW  3C
4E8A:  MOVWF  x0B
4E8C:  MOVLB  0
4E8E:  CALL   271C
4E92:  MOVFF  02,1DB
4E96:  MOVFF  01,1DA
4E9A:  MOVFF  02,20A
4E9E:  MOVFF  01,209
4EA2:  MOVLB  2
4EA4:  CLRF   x0C
4EA6:  MOVLW  64
4EA8:  MOVWF  x0B
4EAA:  MOVLB  0
4EAC:  CALL   271C
4EB0:  MOVFF  00,1D8
4EB4:  MOVFF  1D5,20A
4EB8:  MOVFF  1D4,209
4EBC:  MOVLB  2
4EBE:  CLRF   x0C
4EC0:  MOVLW  3C
4EC2:  MOVWF  x0B
4EC4:  MOVLB  0
4EC6:  CALL   271C
4ECA:  MOVFF  00,1D9
4ECE:  MOVLB  1
....................       printf(tft_putc,"%02d:%02d",min,seg); 
4ED0:  MOVFF  1D8,1DA
4ED4:  MOVLW  01
4ED6:  MOVWF  xDB
4ED8:  MOVLB  0
4EDA:  RCALL  4D90
4EDC:  MOVLW  3A
4EDE:  MOVLB  1
4EE0:  MOVWF  xF5
4EE2:  MOVLB  0
4EE4:  CALL   121A
4EE8:  MOVFF  1D9,1DA
4EEC:  MOVLW  01
4EEE:  MOVLB  1
4EF0:  MOVWF  xDB
4EF2:  MOVLB  0
4EF4:  RCALL  4D90
....................       X=_x; 
4EF6:  MOVFF  1D6,17D
....................       Y=_y; 
4EFA:  MOVFF  1D7,17E
....................       return; 
4EFE:  BRA    4F4E
....................    } 
....................    if(config&0x03==3){ 
4F00:  BTFSS  1A.0
4F02:  BRA    4F2A
....................       printf(tft_putc,"%04LuC",tiempo); 
4F04:  MOVLW  09
4F06:  MOVWF  FE9
4F08:  MOVFF  1D5,1EB
4F0C:  MOVFF  1D4,1EA
4F10:  CALL   33BA
4F14:  MOVLW  43
4F16:  MOVLB  1
4F18:  MOVWF  xF5
4F1A:  MOVLB  0
4F1C:  CALL   121A
....................       X=_x; 
4F20:  MOVFF  1D6,17D
....................       Y=_y; 
4F24:  MOVFF  1D7,17E
....................       return; 
4F28:  BRA    4F4E
....................    } 
....................    printf(tft_putc,"%04LuS",tiempo); 
4F2A:  MOVLW  09
4F2C:  MOVWF  FE9
4F2E:  MOVFF  1D5,1EB
4F32:  MOVFF  1D4,1EA
4F36:  CALL   33BA
4F3A:  MOVLW  53
4F3C:  MOVLB  1
4F3E:  MOVWF  xF5
4F40:  MOVLB  0
4F42:  CALL   121A
....................    X=_x; 
4F46:  MOVFF  1D6,17D
....................    Y=_y; 
4F4A:  MOVFF  1D7,17E
....................    return; 
4F4E:  RETURN 0
.................... } 
.................... int guardarPuntos(int nPerfil, int nPuntos, struct Punto *Curva){ 
....................    if((config&8)==8){ 
*
558A:  MOVF   1A,W
558C:  ANDLW  08
558E:  SUBLW  08
5590:  BNZ   5654
....................       for(int i=nPuntos;i>1;i--)Curva[i-1].Tiempo-=Curva[i-2].Tiempo; 
5592:  MOVFF  1DB,1DE
5596:  MOVLB  1
5598:  MOVF   xDE,W
559A:  SUBLW  01
559C:  BC    5652
559E:  MOVLW  01
55A0:  SUBWF  xDE,W
55A2:  MOVWF  xE1
55A4:  MOVLB  2
55A6:  CLRF   x07
55A8:  MOVWF  x06
55AA:  CLRF   x09
55AC:  MOVLW  03
55AE:  MOVWF  x08
55B0:  MOVLB  0
55B2:  CALL   10F8
55B6:  MOVFF  01,1E0
55BA:  MOVLW  01
55BC:  MOVLB  1
55BE:  ADDWF  01,W
55C0:  MOVWF  01
55C2:  MOVLW  00
55C4:  ADDWFC 02,W
55C6:  MOVWF  03
55C8:  MOVF   01,W
55CA:  ADDWF  xDC,W
55CC:  MOVWF  01
55CE:  MOVF   xDD,W
55D0:  ADDWFC 03,F
55D2:  MOVFF  01,1E0
55D6:  MOVFF  03,1E1
55DA:  MOVFF  03,FEA
55DE:  MOVFF  01,FE9
55E2:  MOVFF  FEC,1E3
55E6:  MOVF   FED,F
55E8:  MOVFF  FEF,1E2
55EC:  MOVLW  02
55EE:  SUBWF  xDE,W
55F0:  MOVWF  xE5
55F2:  MOVLB  2
55F4:  CLRF   x07
55F6:  MOVWF  x06
55F8:  CLRF   x09
55FA:  MOVLW  03
55FC:  MOVWF  x08
55FE:  MOVLB  0
5600:  CALL   10F8
5604:  MOVFF  02,1E5
5608:  MOVFF  01,1E4
560C:  MOVLW  01
560E:  MOVLB  1
5610:  ADDWF  01,W
5612:  MOVWF  01
5614:  MOVLW  00
5616:  ADDWFC 02,W
5618:  MOVWF  03
561A:  MOVF   01,W
561C:  ADDWF  xDC,W
561E:  MOVWF  FE9
5620:  MOVF   xDD,W
5622:  ADDWFC 03,W
5624:  MOVWF  FEA
5626:  MOVFF  FEC,03
562A:  MOVF   FED,F
562C:  MOVF   FEF,W
562E:  SUBWF  xE2,W
5630:  MOVWF  00
5632:  MOVF   03,W
5634:  SUBWFB xE3,W
5636:  MOVWF  03
5638:  MOVFF  00,1E2
563C:  MOVWF  xE3
563E:  MOVFF  1E1,FEA
5642:  MOVFF  1E0,FE9
5646:  MOVWF  FEC
5648:  MOVF   FED,F
564A:  MOVFF  00,FEF
564E:  DECF   xDE,F
5650:  BRA    5598
5652:  MOVLB  0
....................    } 
....................    if(nPerfil!=0){ 
5654:  MOVLB  1
5656:  MOVF   xDA,F
5658:  BTFSC  FD8.2
565A:  BRA    598A
....................       for(int i=0;i<nPuntos;i++){ 
565C:  CLRF   xDF
565E:  MOVF   xDB,W
5660:  SUBWF  xDF,W
5662:  BTFSC  FD8.0
5664:  BRA    57EA
....................          write_eeprom(0x33*nPerfil-0x32+3*i,~Curva[i].Temperatura); 
5666:  MOVF   xDA,W
5668:  MULLW  33
566A:  MOVF   FF3,W
566C:  ADDLW  CE
566E:  MOVWF  xE0
5670:  MOVF   xDF,W
5672:  MULLW  03
5674:  MOVF   FF3,W
5676:  ADDWF  xE0,F
5678:  MOVLB  2
567A:  CLRF   x07
567C:  MOVFF  1DF,206
5680:  CLRF   x09
5682:  MOVLW  03
5684:  MOVWF  x08
5686:  MOVLB  0
5688:  CALL   10F8
568C:  MOVFF  02,1E2
5690:  MOVFF  01,1E1
5694:  MOVLB  1
5696:  MOVF   xDC,W
5698:  ADDWF  xE1,W
569A:  MOVWF  FE9
569C:  MOVF   xDD,W
569E:  ADDWFC xE2,W
56A0:  MOVWF  FEA
56A2:  MOVF   FEF,W
56A4:  XORLW  FF
56A6:  MOVWF  xE3
56A8:  MOVF   FF2,W
56AA:  MOVWF  00
56AC:  BCF    FF2.7
56AE:  MOVFF  1E0,FA9
56B2:  MOVFF  1E3,FA8
56B6:  BCF    FA6.6
56B8:  BCF    FA6.7
56BA:  BSF    FA6.2
56BC:  MOVLB  F
56BE:  MOVLW  55
56C0:  MOVWF  FA7
56C2:  MOVLW  AA
56C4:  MOVWF  FA7
56C6:  BSF    FA6.1
56C8:  BTFSC  FA6.1
56CA:  BRA    56C8
56CC:  BCF    FA6.2
56CE:  MOVF   00,W
56D0:  IORWF  FF2,F
....................          write_eeprom(0x33*nPerfil-0x31+3*i,~Curva[i].Tiempo>>8); 
56D2:  MOVLB  1
56D4:  MOVF   xDA,W
56D6:  MULLW  33
56D8:  MOVF   FF3,W
56DA:  ADDLW  CF
56DC:  MOVWF  xE0
56DE:  MOVF   xDF,W
56E0:  MULLW  03
56E2:  MOVF   FF3,W
56E4:  ADDWF  xE0,F
56E6:  MOVLB  2
56E8:  CLRF   x07
56EA:  MOVFF  1DF,206
56EE:  CLRF   x09
56F0:  MOVLW  03
56F2:  MOVWF  x08
56F4:  MOVLB  0
56F6:  CALL   10F8
56FA:  MOVFF  02,1E2
56FE:  MOVFF  01,1E1
5702:  MOVLW  01
5704:  MOVLB  1
5706:  ADDWF  xE1,W
5708:  MOVWF  01
570A:  MOVLW  00
570C:  ADDWFC xE2,W
570E:  MOVWF  03
5710:  MOVF   01,W
5712:  ADDWF  xDC,W
5714:  MOVWF  FE9
5716:  MOVF   xDD,W
5718:  ADDWFC 03,W
571A:  MOVWF  FEA
571C:  MOVFF  FEC,03
5720:  MOVF   FED,F
5722:  MOVF   FEF,W
5724:  XORLW  FF
5726:  MOVWF  xE1
5728:  MOVLW  FF
572A:  XORWF  03,W
572C:  MOVWF  xE2
572E:  MOVFF  1E2,1E1
5732:  CLRF   xE2
5734:  MOVF   FF2,W
5736:  MOVWF  00
5738:  BCF    FF2.7
573A:  MOVFF  1E0,FA9
573E:  MOVFF  1E1,FA8
5742:  BCF    FA6.6
5744:  BCF    FA6.7
5746:  BSF    FA6.2
5748:  MOVLB  F
574A:  MOVLW  55
574C:  MOVWF  FA7
574E:  MOVLW  AA
5750:  MOVWF  FA7
5752:  BSF    FA6.1
5754:  BTFSC  FA6.1
5756:  BRA    5754
5758:  BCF    FA6.2
575A:  MOVF   00,W
575C:  IORWF  FF2,F
....................          write_eeprom(0x33*nPerfil-0x30+3*i,~Curva[i].Tiempo); 
575E:  MOVLB  1
5760:  MOVF   xDA,W
5762:  MULLW  33
5764:  MOVF   FF3,W
5766:  ADDLW  D0
5768:  MOVWF  xE0
576A:  MOVF   xDF,W
576C:  MULLW  03
576E:  MOVF   FF3,W
5770:  ADDWF  xE0,F
5772:  MOVLB  2
5774:  CLRF   x07
5776:  MOVFF  1DF,206
577A:  CLRF   x09
577C:  MOVLW  03
577E:  MOVWF  x08
5780:  MOVLB  0
5782:  CALL   10F8
5786:  MOVFF  02,1E2
578A:  MOVFF  01,1E1
578E:  MOVLW  01
5790:  MOVLB  1
5792:  ADDWF  xE1,W
5794:  MOVWF  01
5796:  MOVLW  00
5798:  ADDWFC xE2,W
579A:  MOVWF  03
579C:  MOVF   01,W
579E:  ADDWF  xDC,W
57A0:  MOVWF  FE9
57A2:  MOVF   xDD,W
57A4:  ADDWFC 03,W
57A6:  MOVWF  FEA
57A8:  MOVFF  FEC,03
57AC:  MOVF   FED,F
57AE:  MOVF   FEF,W
57B0:  XORLW  FF
57B2:  MOVWF  xE1
57B4:  MOVLW  FF
57B6:  XORWF  03,W
57B8:  MOVWF  xE2
57BA:  MOVF   FF2,W
57BC:  MOVWF  00
57BE:  BCF    FF2.7
57C0:  MOVFF  1E0,FA9
57C4:  MOVFF  1E1,FA8
57C8:  BCF    FA6.6
57CA:  BCF    FA6.7
57CC:  BSF    FA6.2
57CE:  MOVLB  F
57D0:  MOVLW  55
57D2:  MOVWF  FA7
57D4:  MOVLW  AA
57D6:  MOVWF  FA7
57D8:  BSF    FA6.1
57DA:  BTFSC  FA6.1
57DC:  BRA    57DA
57DE:  BCF    FA6.2
57E0:  MOVF   00,W
57E2:  IORWF  FF2,F
57E4:  MOVLB  1
57E6:  INCF   xDF,F
57E8:  BRA    565E
....................       } 
....................       if(nPuntos<17){//Terminacion de 00 00 00 para que cargar valores sepa donde acaba la curva 
57EA:  MOVF   xDB,W
57EC:  SUBLW  10
57EE:  BTFSS  FD8.0
57F0:  BRA    598A
....................          write_eeprom(0x33*nPerfil-0x32+3*(nPuntos+1),~Curva[(nPuntos+1)].Temperatura); 
57F2:  MOVF   xDA,W
57F4:  MULLW  33
57F6:  MOVF   FF3,W
57F8:  ADDLW  CE
57FA:  MOVWF  xE0
57FC:  MOVLW  01
57FE:  ADDWF  xDB,W
5800:  MULLW  03
5802:  MOVF   FF3,W
5804:  ADDWF  xE0,F
5806:  MOVLW  01
5808:  ADDWF  xDB,W
580A:  MOVWF  xE2
580C:  MOVLB  2
580E:  CLRF   x07
5810:  MOVFF  1E2,206
5814:  CLRF   x09
5816:  MOVLW  03
5818:  MOVWF  x08
581A:  MOVLB  0
581C:  CALL   10F8
5820:  MOVFF  02,1E2
5824:  MOVFF  01,1E1
5828:  MOVLB  1
582A:  MOVF   xDC,W
582C:  ADDWF  xE1,W
582E:  MOVWF  FE9
5830:  MOVF   xDD,W
5832:  ADDWFC xE2,W
5834:  MOVWF  FEA
5836:  MOVF   FEF,W
5838:  XORLW  FF
583A:  MOVWF  xE3
583C:  MOVF   FF2,W
583E:  MOVWF  00
5840:  BCF    FF2.7
5842:  MOVFF  1E0,FA9
5846:  MOVFF  1E3,FA8
584A:  BCF    FA6.6
584C:  BCF    FA6.7
584E:  BSF    FA6.2
5850:  MOVLB  F
5852:  MOVLW  55
5854:  MOVWF  FA7
5856:  MOVLW  AA
5858:  MOVWF  FA7
585A:  BSF    FA6.1
585C:  BTFSC  FA6.1
585E:  BRA    585C
5860:  BCF    FA6.2
5862:  MOVF   00,W
5864:  IORWF  FF2,F
....................          write_eeprom(0x33*nPerfil-0x31+3*(nPuntos+1),~Curva[(nPuntos+1)].Tiempo>>8); 
5866:  MOVLB  1
5868:  MOVF   xDA,W
586A:  MULLW  33
586C:  MOVF   FF3,W
586E:  ADDLW  CF
5870:  MOVWF  xE0
5872:  MOVLW  01
5874:  ADDWF  xDB,W
5876:  MULLW  03
5878:  MOVF   FF3,W
587A:  ADDWF  xE0,F
587C:  MOVLW  01
587E:  ADDWF  xDB,W
5880:  MOVWF  xE2
5882:  MOVLB  2
5884:  CLRF   x07
5886:  MOVFF  1E2,206
588A:  CLRF   x09
588C:  MOVLW  03
588E:  MOVWF  x08
5890:  MOVLB  0
5892:  CALL   10F8
5896:  MOVFF  02,1E2
589A:  MOVFF  01,1E1
589E:  MOVLW  01
58A0:  MOVLB  1
58A2:  ADDWF  xE1,W
58A4:  MOVWF  01
58A6:  MOVLW  00
58A8:  ADDWFC xE2,W
58AA:  MOVWF  03
58AC:  MOVF   01,W
58AE:  ADDWF  xDC,W
58B0:  MOVWF  FE9
58B2:  MOVF   xDD,W
58B4:  ADDWFC 03,W
58B6:  MOVWF  FEA
58B8:  MOVFF  FEC,03
58BC:  MOVF   FED,F
58BE:  MOVF   FEF,W
58C0:  XORLW  FF
58C2:  MOVWF  xE1
58C4:  MOVLW  FF
58C6:  XORWF  03,W
58C8:  MOVWF  xE2
58CA:  MOVFF  1E2,1E1
58CE:  CLRF   xE2
58D0:  MOVF   FF2,W
58D2:  MOVWF  00
58D4:  BCF    FF2.7
58D6:  MOVFF  1E0,FA9
58DA:  MOVFF  1E1,FA8
58DE:  BCF    FA6.6
58E0:  BCF    FA6.7
58E2:  BSF    FA6.2
58E4:  MOVLB  F
58E6:  MOVLW  55
58E8:  MOVWF  FA7
58EA:  MOVLW  AA
58EC:  MOVWF  FA7
58EE:  BSF    FA6.1
58F0:  BTFSC  FA6.1
58F2:  BRA    58F0
58F4:  BCF    FA6.2
58F6:  MOVF   00,W
58F8:  IORWF  FF2,F
....................          write_eeprom(0x33*nPerfil-0x30+3*(nPuntos+1),~Curva[(nPuntos+1)].Tiempo); 
58FA:  MOVLB  1
58FC:  MOVF   xDA,W
58FE:  MULLW  33
5900:  MOVF   FF3,W
5902:  ADDLW  D0
5904:  MOVWF  xE0
5906:  MOVLW  01
5908:  ADDWF  xDB,W
590A:  MULLW  03
590C:  MOVF   FF3,W
590E:  ADDWF  xE0,F
5910:  MOVLW  01
5912:  ADDWF  xDB,W
5914:  MOVWF  xE2
5916:  MOVLB  2
5918:  CLRF   x07
591A:  MOVFF  1E2,206
591E:  CLRF   x09
5920:  MOVLW  03
5922:  MOVWF  x08
5924:  MOVLB  0
5926:  CALL   10F8
592A:  MOVFF  02,1E2
592E:  MOVFF  01,1E1
5932:  MOVLW  01
5934:  MOVLB  1
5936:  ADDWF  xE1,W
5938:  MOVWF  01
593A:  MOVLW  00
593C:  ADDWFC xE2,W
593E:  MOVWF  03
5940:  MOVF   01,W
5942:  ADDWF  xDC,W
5944:  MOVWF  FE9
5946:  MOVF   xDD,W
5948:  ADDWFC 03,W
594A:  MOVWF  FEA
594C:  MOVFF  FEC,03
5950:  MOVF   FED,F
5952:  MOVF   FEF,W
5954:  XORLW  FF
5956:  MOVWF  xE1
5958:  MOVLW  FF
595A:  XORWF  03,W
595C:  MOVWF  xE2
595E:  MOVF   FF2,W
5960:  MOVWF  00
5962:  BCF    FF2.7
5964:  MOVFF  1E0,FA9
5968:  MOVFF  1E1,FA8
596C:  BCF    FA6.6
596E:  BCF    FA6.7
5970:  BSF    FA6.2
5972:  MOVLB  F
5974:  MOVLW  55
5976:  MOVWF  FA7
5978:  MOVLW  AA
597A:  MOVWF  FA7
597C:  BSF    FA6.1
597E:  BTFSC  FA6.1
5980:  BRA    597E
5982:  BCF    FA6.2
5984:  MOVF   00,W
5986:  IORWF  FF2,F
5988:  MOVLB  1
....................       } 
....................    } 
....................    return _Iniciar; 
598A:  MOVLW  1E
598C:  MOVWF  01
598E:  MOVLB  0
5990:  RETURN 0
.................... } 
.................... enum{ 
....................    _CargarTemperatura =100, 
....................    _CargarMinutos, 
....................    _CargarSegundos, 
....................    _CargarTiempo, 
....................    _CheckearSiValido 
.................... }; 
.................... int CargarTemperatura(int *temp, int *nPuntos){ 
*
4F50:  MOVLB  1
4F52:  MOVFF  1CF,FE9
4F56:  MOVFF  1D0,FEA
4F5A:  CLRF   xD4
4F5C:  MOVFF  FEF,1D3
....................    long ovr=*temp; 
....................    Cursor(X_MAX-5,0); 
4F60:  MOVLW  05
4F62:  SUBWF  x79,W
4F64:  MOVWF  xD6
4F66:  MOVWF  xD7
4F68:  CLRF   xD8
4F6A:  MOVLB  0
4F6C:  CALL   2280
....................    while(ultimaTecla!=_TICK){ 
4F70:  MOVF   1B,W
4F72:  SUBLW  0B
4F74:  BTFSC  FD8.2
4F76:  BRA    50DE
....................       if(ultimaTecla==_X){ 
4F78:  MOVF   1B,W
4F7A:  SUBLW  0A
4F7C:  BTFSS  FD8.2
4F7E:  BRA    507C
....................          ultimaTecla=_VISTO; 
4F80:  MOVLW  0C
4F82:  MOVWF  1B
....................          if(ovr==0){ 
4F84:  MOVLB  1
4F86:  MOVF   xD3,F
4F88:  BNZ   5054
4F8A:  MOVF   xD4,F
4F8C:  BNZ   5054
....................             tecl_mode(estatico); 
4F8E:  CLRF   xDA
4F90:  MOVLB  0
4F92:  CALL   141E
....................             if((*nPuntos&0x3F)==1){ 
4F96:  MOVFF  1D2,03
4F9A:  MOVLB  1
4F9C:  MOVFF  1D1,FE9
4FA0:  MOVFF  1D2,FEA
4FA4:  MOVF   FEF,W
4FA6:  ANDLW  3F
4FA8:  SUBLW  01
4FAA:  BNZ   5044
....................                int nPerfil=(config&0xE0)>>5; 
4FAC:  MOVF   1A,W
4FAE:  ANDLW  E0
4FB0:  MOVWF  00
4FB2:  SWAPF  00,W
4FB4:  MOVWF  xD5
4FB6:  RRCF   xD5,F
4FB8:  MOVLW  07
4FBA:  ANDWF  xD5,F
....................                if(nPerfil==0) return _CargarValores; 
4FBC:  MOVF   xD5,F
4FBE:  BNZ   4FC6
4FC0:  MOVLW  06
4FC2:  MOVWF  01
4FC4:  BRA    51CA
....................                if(~read_eeprom(0x33*nPerfil-0x32)==0&&~read_eeprom(0x33*nPerfil-0x31)==0&&~read_eeprom(0x33*nPerfil-0x30)==0) return _Perfil_Crear; 
4FC6:  MOVF   xD5,W
4FC8:  MULLW  33
4FCA:  MOVF   FF3,W
4FCC:  ADDLW  CE
4FCE:  MOVWF  xD6
4FD0:  MOVFF  FF2,1D7
4FD4:  BCF    FF2.7
4FD6:  MOVFF  1D6,FA9
4FDA:  BCF    FA6.6
4FDC:  BCF    FA6.7
4FDE:  BSF    FA6.0
4FE0:  MOVF   FA8,W
4FE2:  BTFSC  xD7.7
4FE4:  BSF    FF2.7
4FE6:  XORLW  FF
4FE8:  XORLW  00
4FEA:  BNZ   503E
4FEC:  MOVF   xD5,W
4FEE:  MULLW  33
4FF0:  MOVF   FF3,W
4FF2:  ADDLW  CF
4FF4:  MOVWF  xD6
4FF6:  MOVFF  FF2,1D8
4FFA:  BCF    FF2.7
4FFC:  MOVFF  1D6,FA9
5000:  BCF    FA6.6
5002:  BCF    FA6.7
5004:  BSF    FA6.0
5006:  MOVF   FA8,W
5008:  BTFSC  xD8.7
500A:  BSF    FF2.7
500C:  XORLW  FF
500E:  XORLW  00
5010:  BNZ   503E
5012:  MOVF   xD5,W
5014:  MULLW  33
5016:  MOVF   FF3,W
5018:  ADDLW  D0
501A:  MOVWF  xD6
501C:  MOVFF  FF2,1D9
5020:  BCF    FF2.7
5022:  MOVFF  1D6,FA9
5026:  BCF    FA6.6
5028:  BCF    FA6.7
502A:  BSF    FA6.0
502C:  MOVF   FA8,W
502E:  BTFSC  xD9.7
5030:  BSF    FF2.7
5032:  XORLW  FF
5034:  XORLW  00
5036:  BNZ   503E
5038:  MOVLW  02
503A:  MOVWF  01
503C:  BRA    51CA
....................                return _Perfil_Editar;   
503E:  MOVLW  04
5040:  MOVWF  01
5042:  BRA    51CA
....................             } 
....................             (*nPuntos)--; 
5044:  MOVFF  1D1,FE9
5048:  MOVFF  1D2,FEA
504C:  DECF   FEF,F
....................             return _OtroPunto;    
504E:  MOVLW  20
5050:  MOVWF  01
5052:  BRA    51CA
....................          } 
....................          ovr/=10; 
5054:  MOVFF  1D4,20A
5058:  MOVFF  1D3,209
505C:  MOVLB  2
505E:  CLRF   x0C
5060:  MOVLW  0A
5062:  MOVWF  x0B
5064:  MOVLB  0
5066:  CALL   271C
506A:  MOVFF  02,1D4
506E:  MOVFF  01,1D3
....................          print_temp(ovr); 
5072:  MOVFF  1D4,1D7
5076:  MOVFF  1D3,1D6
507A:  RCALL  4D10
....................       } 
....................       if(ultimaTecla<10){ 
507C:  MOVF   1B,W
507E:  SUBLW  09
5080:  BNC   50DC
....................          ovr=(ovr*10+ultimaTecla)%1000; 
5082:  MOVFF  1D4,207
5086:  MOVFF  1D3,206
508A:  MOVLB  2
508C:  CLRF   x09
508E:  MOVLW  0A
5090:  MOVWF  x08
5092:  MOVLB  0
5094:  CALL   10F8
5098:  MOVFF  02,1D7
509C:  MOVFF  01,1D6
50A0:  MOVF   1B,W
50A2:  MOVLB  1
50A4:  ADDWF  xD6,F
50A6:  MOVLW  00
50A8:  ADDWFC xD7,F
50AA:  MOVFF  1D7,20A
50AE:  MOVFF  1D6,209
50B2:  MOVLW  03
50B4:  MOVLB  2
50B6:  MOVWF  x0C
50B8:  MOVLW  E8
50BA:  MOVWF  x0B
50BC:  MOVLB  0
50BE:  CALL   271C
50C2:  MOVFF  00,1D3
50C6:  MOVLB  1
50C8:  MOVFF  03,1D4
....................          ultimaTecla=_VISTO; 
50CC:  MOVLW  0C
50CE:  MOVWF  1B
....................          print_temp(ovr); 
50D0:  MOVFF  1D4,1D7
50D4:  MOVFF  1D3,1D6
50D8:  MOVLB  0
50DA:  RCALL  4D10
....................       } 
50DC:  BRA    4F70
....................    } 
....................    ultimaTecla=_VISTO; 
50DE:  MOVLW  0C
50E0:  MOVWF  1B
....................    if((config&4)==4){  
50E2:  MOVF   1A,W
50E4:  ANDLW  04
50E6:  SUBLW  04
50E8:  BNZ   5144
....................       if(ovr<32) ovr=32; 
50EA:  MOVLB  1
50EC:  MOVF   xD4,F
50EE:  BNZ   50FC
50F0:  MOVF   xD3,W
50F2:  SUBLW  1F
50F4:  BNC   50FC
50F6:  CLRF   xD4
50F8:  MOVLW  20
50FA:  MOVWF  xD3
....................       ovr=((ovr-32)*5)/9; 
50FC:  MOVLW  20
50FE:  SUBWF  xD3,W
5100:  MOVWF  xD6
5102:  MOVLW  00
5104:  SUBWFB xD4,W
5106:  MOVWF  xD7
5108:  MOVFF  FE8,207
510C:  MOVFF  1D6,206
5110:  MOVLB  2
5112:  CLRF   x09
5114:  MOVLW  05
5116:  MOVWF  x08
5118:  MOVLB  0
511A:  CALL   10F8
511E:  MOVFF  02,1D7
5122:  MOVFF  01,1D6
5126:  MOVFF  02,20A
512A:  MOVFF  01,209
512E:  MOVLB  2
5130:  CLRF   x0C
5132:  MOVLW  09
5134:  MOVWF  x0B
5136:  MOVLB  0
5138:  CALL   271C
513C:  MOVFF  02,1D4
5140:  MOVFF  01,1D3
....................    } 
....................    if(ovr<=MINTEMP){ 
5144:  MOVLB  1
5146:  MOVF   xD4,F
5148:  BNZ   5166
514A:  MOVF   xD3,W
514C:  SUBLW  20
514E:  BNC   5166
....................       *temp=0; 
5150:  MOVFF  1CF,FE9
5154:  MOVFF  1D0,FEA
5158:  CLRF   FEF
....................       print_temp(-1); 
515A:  SETF   xD7
515C:  SETF   xD6
515E:  MOVLB  0
5160:  RCALL  4D10
....................    }else if(ovr>=255+MINTEMP){ 
5162:  BRA    51AA
5164:  MOVLB  1
5166:  MOVF   xD4,W
5168:  SUBLW  00
516A:  BC    5190
516C:  XORLW  FF
516E:  BNZ   5176
5170:  MOVF   xD3,W
5172:  SUBLW  1E
5174:  BC    5190
....................       *temp=255; 
5176:  MOVFF  1CF,FE9
517A:  MOVFF  1D0,FEA
517E:  SETF   FEF
....................       print_temp(1000); 
5180:  MOVLW  03
5182:  MOVWF  xD7
5184:  MOVLW  E8
5186:  MOVWF  xD6
5188:  MOVLB  0
518A:  RCALL  4D10
....................    }else *temp=ovr-MINTEMP; 
518C:  BRA    51AA
518E:  MOVLB  1
5190:  MOVFF  1CF,FE9
5194:  MOVFF  1D0,FEA
5198:  MOVLW  20
519A:  SUBWF  xD3,W
519C:  MOVWF  00
519E:  MOVLW  00
51A0:  SUBWFB xD4,W
51A2:  MOVWF  03
51A4:  MOVFF  00,FEF
51A8:  MOVLB  0
....................    if((config&16)>>4) return _CargarMinutos; 
51AA:  MOVF   1A,W
51AC:  ANDLW  10
51AE:  MOVWF  00
51B0:  SWAPF  00,F
51B2:  MOVLW  0F
51B4:  ANDWF  00,F
51B6:  MOVF   00,W
51B8:  BZ    51C4
51BA:  MOVLW  65
51BC:  MOVWF  01
51BE:  MOVLB  1
51C0:  BRA    51CA
51C2:  MOVLB  0
....................    return _CargarTiempo; 
51C4:  MOVLW  67
51C6:  MOVWF  01
51C8:  MOVLB  1
51CA:  MOVLB  0
51CC:  GOTO   5C3E (RETURN)
.................... } 
.................... int CargarMinutos(long *tiempo){  
....................    Cursor(X_MAX-5,1); 
51D0:  MOVLW  05
51D2:  MOVLB  1
51D4:  SUBWF  x79,W
51D6:  MOVWF  xD1
51D8:  MOVWF  xD7
51DA:  MOVLW  01
51DC:  MOVWF  xD8
51DE:  MOVLB  0
51E0:  CALL   2280
....................    while(ultimaTecla!=_TICK){ 
51E4:  MOVF   1B,W
51E6:  SUBLW  0B
51E8:  BTFSC  FD8.2
51EA:  BRA    532C
....................       if(ultimaTecla==_X){ 
51EC:  MOVF   1B,W
51EE:  SUBLW  0A
51F0:  BNZ   5280
....................          ultimaTecla=_VISTO; 
51F2:  MOVLW  0C
51F4:  MOVWF  1B
....................          if(*tiempo==0) return _CargarTemperatura; 
51F6:  MOVFF  1D0,03
51FA:  MOVLB  1
51FC:  MOVFF  1CF,FE9
5200:  MOVFF  1D0,FEA
5204:  MOVFF  FEC,1D2
5208:  MOVF   FED,F
520A:  MOVFF  FEF,1D1
520E:  MOVF   xD1,F
5210:  BNZ   521C
5212:  MOVF   xD2,F
5214:  BNZ   521C
5216:  MOVLW  64
5218:  MOVWF  01
521A:  BRA    5364
....................          *tiempo/=10; 
521C:  MOVFF  1D0,03
5220:  MOVFF  1CF,FE9
5224:  MOVFF  1D0,FEA
5228:  MOVFF  FEC,20A
522C:  MOVF   FED,F
522E:  MOVFF  FEF,209
5232:  MOVLB  2
5234:  CLRF   x0C
5236:  MOVLW  0A
5238:  MOVWF  x0B
523A:  MOVLB  0
523C:  CALL   271C
5240:  MOVFF  01,FEF
5244:  MOVFF  02,FEC
....................          print_tiempo(*tiempo*60); 
5248:  MOVFF  1D0,03
524C:  MOVLB  1
524E:  MOVFF  1CF,FE9
5252:  MOVFF  1D0,FEA
5256:  MOVFF  FEC,207
525A:  MOVF   FED,F
525C:  MOVFF  FEF,206
5260:  MOVLB  2
5262:  CLRF   x09
5264:  MOVLW  3C
5266:  MOVWF  x08
5268:  MOVLB  0
526A:  CALL   10F8
526E:  MOVFF  02,1D2
5272:  MOVFF  01,1D1
5276:  MOVFF  02,1D5
527A:  MOVFF  01,1D4
527E:  RCALL  4E58
....................       } 
....................       if(ultimaTecla<10){ 
5280:  MOVF   1B,W
5282:  SUBLW  09
5284:  BNC   532A
....................          *tiempo=(*tiempo*10+ultimaTecla)%100; 
5286:  MOVLB  1
5288:  MOVFF  1CF,1D1
528C:  MOVFF  1D0,1D2
5290:  MOVFF  1D0,03
5294:  MOVFF  1CF,FE9
5298:  MOVFF  1D0,FEA
529C:  MOVFF  FEC,207
52A0:  MOVF   FED,F
52A2:  MOVFF  FEF,206
52A6:  MOVLB  2
52A8:  CLRF   x09
52AA:  MOVLW  0A
52AC:  MOVWF  x08
52AE:  MOVLB  0
52B0:  CALL   10F8
52B4:  MOVFF  02,1D4
52B8:  MOVFF  01,1D3
52BC:  MOVF   1B,W
52BE:  MOVLB  1
52C0:  ADDWF  xD3,F
52C2:  MOVLW  00
52C4:  ADDWFC xD4,F
52C6:  MOVFF  1D4,20A
52CA:  MOVFF  1D3,209
52CE:  MOVLB  2
52D0:  CLRF   x0C
52D2:  MOVLW  64
52D4:  MOVWF  x0B
52D6:  MOVLB  0
52D8:  CALL   271C
52DC:  MOVLB  1
52DE:  MOVFF  1D2,FEA
52E2:  MOVFF  1D1,FE9
52E6:  MOVFF  03,FEC
52EA:  MOVF   FED,F
52EC:  MOVFF  00,FEF
....................          ultimaTecla=_VISTO; 
52F0:  MOVLW  0C
52F2:  MOVWF  1B
....................          print_tiempo(*tiempo*60); 
52F4:  MOVFF  1D0,03
52F8:  MOVFF  1CF,FE9
52FC:  MOVFF  1D0,FEA
5300:  MOVFF  FEC,207
5304:  MOVF   FED,F
5306:  MOVFF  FEF,206
530A:  MOVLB  2
530C:  CLRF   x09
530E:  MOVLW  3C
5310:  MOVWF  x08
5312:  MOVLB  0
5314:  CALL   10F8
5318:  MOVFF  02,1D2
531C:  MOVFF  01,1D1
5320:  MOVFF  02,1D5
5324:  MOVFF  01,1D4
5328:  RCALL  4E58
....................       } 
532A:  BRA    51E4
....................    } 
....................    ultimaTecla=_VISTO; 
532C:  MOVLW  0C
532E:  MOVWF  1B
....................    *tiempo*=60; 
5330:  MOVFF  1D0,03
5334:  MOVLB  1
5336:  MOVFF  1CF,FE9
533A:  MOVFF  1D0,FEA
533E:  MOVFF  FEC,207
5342:  MOVF   FED,F
5344:  MOVFF  FEF,206
5348:  MOVLB  2
534A:  CLRF   x09
534C:  MOVLW  3C
534E:  MOVWF  x08
5350:  MOVLB  0
5352:  CALL   10F8
5356:  MOVFF  01,FEF
535A:  MOVFF  02,FEC
....................    return _CargarSegundos; 
535E:  MOVLW  66
5360:  MOVWF  01
5362:  MOVLB  1
5364:  MOVLB  0
5366:  GOTO   5C54 (RETURN)
.................... } 
.................... int CargarSegundos(long *tiempo){ 
536A:  MOVLB  1
536C:  CLRF   xD1
....................    int seg=0; 
....................    while(ultimaTecla!=_TICK){ 
536E:  MOVF   1B,W
5370:  SUBLW  0B
5372:  BZ    542A
....................       if(ultimaTecla==_X){ 
5374:  MOVF   1B,W
5376:  SUBLW  0A
5378:  BNZ   53C8
....................          ultimaTecla=_VISTO; 
537A:  MOVLW  0C
537C:  MOVWF  1B
....................          if(seg==0) return _CargarMinutos; 
537E:  MOVF   xD1,F
5380:  BNZ   5388
5382:  MOVLW  65
5384:  MOVWF  01
5386:  BRA    544C
....................          seg/=10; 
5388:  MOVFF  1D1,1F8
538C:  MOVLW  0A
538E:  MOVWF  xF9
5390:  MOVLB  0
5392:  CALL   0CE0
5396:  MOVFF  01,1D1
....................          print_tiempo((*tiempo)+seg); 
539A:  MOVFF  1D0,03
539E:  MOVLB  1
53A0:  MOVFF  1CF,FE9
53A4:  MOVFF  1D0,FEA
53A8:  MOVFF  FEC,1D3
53AC:  MOVF   FED,F
53AE:  MOVFF  FEF,1D2
53B2:  MOVF   xD1,W
53B4:  ADDWF  xD2,F
53B6:  MOVLW  00
53B8:  ADDWFC xD3,F
53BA:  MOVFF  1D3,1D5
53BE:  MOVFF  1D2,1D4
53C2:  MOVLB  0
53C4:  RCALL  4E58
53C6:  MOVLB  1
....................       } 
....................       if(ultimaTecla<10){ 
53C8:  MOVF   1B,W
53CA:  SUBLW  09
53CC:  BNC   5428
....................          seg=((seg%10)*10+ultimaTecla); 
53CE:  MOVFF  1D1,1F8
53D2:  MOVLW  0A
53D4:  MOVWF  xF9
53D6:  MOVLB  0
53D8:  CALL   0CE0
53DC:  MOVF   00,W
53DE:  MULLW  0A
53E0:  MOVF   FF3,W
53E2:  ADDWF  1B,W
53E4:  MOVLB  1
53E6:  MOVWF  xD1
....................          ultimaTecla=_VISTO; 
53E8:  MOVLW  0C
53EA:  MOVWF  1B
....................          print_tiempo((*tiempo+(seg%60))); 
53EC:  MOVFF  1D0,03
53F0:  MOVFF  1CF,FE9
53F4:  MOVFF  1D0,FEA
53F8:  MOVFF  FEC,1D3
53FC:  MOVF   FED,F
53FE:  MOVFF  FEF,1D2
5402:  MOVFF  1D1,1F8
5406:  MOVLW  3C
5408:  MOVWF  xF9
540A:  MOVLB  0
540C:  CALL   0CE0
5410:  MOVF   00,W
5412:  MOVLB  1
5414:  ADDWF  xD2,F
5416:  MOVLW  00
5418:  ADDWFC xD3,F
541A:  MOVFF  1D3,1D5
541E:  MOVFF  1D2,1D4
5422:  MOVLB  0
5424:  RCALL  4E58
5426:  MOVLB  1
....................       } 
5428:  BRA    536E
....................    } 
....................    ultimaTecla=_VISTO; 
542A:  MOVLW  0C
542C:  MOVWF  1B
....................    *tiempo+=seg; 
542E:  MOVFF  1CF,FE9
5432:  MOVFF  1D0,FEA
5436:  MOVF   xD1,W
5438:  ADDWF  FEF,W
543A:  MOVWF  01
543C:  MOVLW  00
543E:  ADDWFC FEC,W
5440:  MOVF   FED,F
5442:  MOVFF  01,FEF
5446:  MOVWF  FEC
....................    return _CheckearSiValido; 
5448:  MOVLW  68
544A:  MOVWF  01
544C:  MOVLB  0
544E:  GOTO   5C6A (RETURN)
.................... } 
.................... int CargarTiempo(long *tiempo){ 
....................    Cursor(X_MAX-5,1); 
5452:  MOVLW  05
5454:  MOVLB  1
5456:  SUBWF  x79,W
5458:  MOVWF  xD1
545A:  MOVWF  xD7
545C:  MOVLW  01
545E:  MOVWF  xD8
5460:  MOVLB  0
5462:  CALL   2280
....................    while(ultimaTecla!=_TICK){ 
5466:  MOVF   1B,W
5468:  SUBLW  0B
546A:  BTFSC  FD8.2
546C:  BRA    557A
....................       if(ultimaTecla==_X){ 
546E:  MOVF   1B,W
5470:  SUBLW  0A
5472:  BNZ   54E6
....................          ultimaTecla=_VISTO; 
5474:  MOVLW  0C
5476:  MOVWF  1B
....................          if(*tiempo==0) return _CargarTemperatura; 
5478:  MOVFF  1D0,03
547C:  MOVLB  1
547E:  MOVFF  1CF,FE9
5482:  MOVFF  1D0,FEA
5486:  MOVFF  FEC,1D2
548A:  MOVF   FED,F
548C:  MOVFF  FEF,1D1
5490:  MOVF   xD1,F
5492:  BNZ   549E
5494:  MOVF   xD2,F
5496:  BNZ   549E
5498:  MOVLW  64
549A:  MOVWF  01
549C:  BRA    5584
....................          *tiempo/=10; 
549E:  MOVFF  1D0,03
54A2:  MOVFF  1CF,FE9
54A6:  MOVFF  1D0,FEA
54AA:  MOVFF  FEC,20A
54AE:  MOVF   FED,F
54B0:  MOVFF  FEF,209
54B4:  MOVLB  2
54B6:  CLRF   x0C
54B8:  MOVLW  0A
54BA:  MOVWF  x0B
54BC:  MOVLB  0
54BE:  CALL   271C
54C2:  MOVFF  01,FEF
54C6:  MOVFF  02,FEC
....................          print_tiempo(*tiempo); 
54CA:  MOVFF  1D0,03
54CE:  MOVLB  1
54D0:  MOVFF  1CF,FE9
54D4:  MOVFF  1D0,FEA
54D8:  MOVFF  FEC,1D5
54DC:  MOVF   FED,F
54DE:  MOVFF  FEF,1D4
54E2:  MOVLB  0
54E4:  RCALL  4E58
....................       } 
....................       if(ultimaTecla<10){ 
54E6:  MOVF   1B,W
54E8:  SUBLW  09
54EA:  BNC   5578
....................          *tiempo=((*tiempo%1000)*10+ultimaTecla); 
54EC:  MOVLB  1
54EE:  MOVFF  1CF,1D1
54F2:  MOVFF  1D0,1D2
54F6:  MOVFF  1D0,03
54FA:  MOVFF  1CF,FE9
54FE:  MOVFF  1D0,FEA
5502:  MOVFF  FEC,20A
5506:  MOVF   FED,F
5508:  MOVFF  FEF,209
550C:  MOVLW  03
550E:  MOVLB  2
5510:  MOVWF  x0C
5512:  MOVLW  E8
5514:  MOVWF  x0B
5516:  MOVLB  0
5518:  CALL   271C
551C:  MOVFF  00,1D3
5520:  MOVFF  03,1D4
5524:  MOVFF  03,207
5528:  MOVFF  00,206
552C:  MOVLB  2
552E:  CLRF   x09
5530:  MOVLW  0A
5532:  MOVWF  x08
5534:  MOVLB  0
5536:  CALL   10F8
553A:  MOVFF  01,1D3
553E:  MOVF   1B,W
5540:  MOVLB  1
5542:  ADDWF  01,W
5544:  MOVWF  01
5546:  MOVLW  00
5548:  ADDWFC 02,W
554A:  MOVFF  1D2,FEA
554E:  MOVFF  1D1,FE9
5552:  MOVWF  FEC
5554:  MOVF   FED,F
5556:  MOVFF  01,FEF
....................          ultimaTecla=_VISTO; 
555A:  MOVLW  0C
555C:  MOVWF  1B
....................          print_tiempo(*tiempo); 
555E:  MOVFF  1D0,03
5562:  MOVFF  1CF,FE9
5566:  MOVFF  1D0,FEA
556A:  MOVFF  FEC,1D5
556E:  MOVF   FED,F
5570:  MOVFF  FEF,1D4
5574:  MOVLB  0
5576:  RCALL  4E58
....................       } 
5578:  BRA    5466
....................    } 
....................    ultimaTecla=_VISTO; 
557A:  MOVLW  0C
557C:  MOVWF  1B
....................    return _CheckearSiValido; 
557E:  MOVLW  68
5580:  MOVWF  01
5582:  MOVLB  1
5584:  MOVLB  0
5586:  GOTO   5C80 (RETURN)
.................... } 
.................... int CheckearSiValido(long tiempo, int temp, int nPuntos, struct Punto *Curva){ 
....................    tecl_mode(estatico); 
*
5992:  MOVLB  1
5994:  CLRF   xDA
5996:  MOVLB  0
5998:  CALL   141E
....................    int nPerfil=(config&0xE0)>>5; 
599C:  MOVF   1A,W
599E:  ANDLW  E0
59A0:  MOVWF  00
59A2:  SWAPF  00,W
59A4:  MOVLB  1
59A6:  MOVWF  xD6
59A8:  RRCF   xD6,F
59AA:  MOVLW  07
59AC:  ANDWF  xD6,F
....................    if((tiempo==0)||(((config&8)==8)&&(nPuntos>1)&&(tiempo<Curva[nPuntos-2].Tiempo))) return _PuntoNoValido; 
59AE:  MOVF   xD0,F
59B0:  BNZ   59B6
59B2:  MOVF   xD1,F
59B4:  BZ    5A16
59B6:  MOVF   1A,W
59B8:  ANDLW  08
59BA:  SUBLW  08
59BC:  BNZ   5A1C
59BE:  MOVF   xD3,W
59C0:  SUBLW  01
59C2:  BC    5A1C
59C4:  MOVLW  02
59C6:  SUBWF  xD3,W
59C8:  MOVWF  xDB
59CA:  MOVLB  2
59CC:  CLRF   x07
59CE:  MOVWF  x06
59D0:  CLRF   x09
59D2:  MOVLW  03
59D4:  MOVWF  x08
59D6:  MOVLB  0
59D8:  CALL   10F8
59DC:  MOVFF  02,1DB
59E0:  MOVFF  01,1DA
59E4:  MOVLW  01
59E6:  MOVLB  1
59E8:  ADDWF  01,W
59EA:  MOVWF  01
59EC:  MOVLW  00
59EE:  ADDWFC 02,W
59F0:  MOVWF  03
59F2:  MOVF   01,W
59F4:  ADDWF  xD4,W
59F6:  MOVWF  FE9
59F8:  MOVF   xD5,W
59FA:  ADDWFC 03,W
59FC:  MOVWF  FEA
59FE:  MOVFF  FEC,03
5A02:  MOVF   FED,F
5A04:  MOVFF  FEF,01
5A08:  MOVF   xD1,W
5A0A:  SUBWF  03,W
5A0C:  BNC   5A1C
5A0E:  BNZ   5A16
5A10:  MOVF   01,W
5A12:  SUBWF  xD0,W
5A14:  BC    5A1C
5A16:  MOVLW  1F
5A18:  MOVWF  01
5A1A:  BRA    5ADE
....................    Curva[nPuntos-1].Temperatura=temp; 
5A1C:  MOVLW  01
5A1E:  SUBWF  xD3,W
5A20:  MOVWF  xDB
5A22:  MOVLB  2
5A24:  CLRF   x07
5A26:  MOVWF  x06
5A28:  CLRF   x09
5A2A:  MOVLW  03
5A2C:  MOVWF  x08
5A2E:  MOVLB  0
5A30:  CALL   10F8
5A34:  MOVLB  1
5A36:  MOVF   xD4,W
5A38:  ADDWF  01,W
5A3A:  MOVWF  FE9
5A3C:  MOVF   xD5,W
5A3E:  ADDWFC 02,W
5A40:  MOVWF  FEA
5A42:  MOVFF  1D2,FEF
....................    Curva[nPuntos-1].Tiempo=tiempo; 
5A46:  MOVLW  01
5A48:  SUBWF  xD3,W
5A4A:  MOVWF  xDB
5A4C:  MOVLB  2
5A4E:  CLRF   x07
5A50:  MOVWF  x06
5A52:  CLRF   x09
5A54:  MOVLW  03
5A56:  MOVWF  x08
5A58:  MOVLB  0
5A5A:  CALL   10F8
5A5E:  MOVFF  01,1DA
5A62:  MOVLW  01
5A64:  MOVLB  1
5A66:  ADDWF  01,W
5A68:  MOVWF  01
5A6A:  MOVLW  00
5A6C:  ADDWFC 02,W
5A6E:  MOVWF  03
5A70:  MOVF   01,W
5A72:  ADDWF  xD4,W
5A74:  MOVWF  FE9
5A76:  MOVF   xD5,W
5A78:  ADDWFC 03,W
5A7A:  MOVWF  FEA
5A7C:  MOVFF  1D1,FEC
5A80:  MOVF   FED,F
5A82:  MOVFF  1D0,FEF
....................    if(nPuntos==17) return guardarPuntos(nPerfil,nPuntos,Curva); 
5A86:  MOVF   xD3,W
5A88:  SUBLW  11
5A8A:  BNZ   5AA6
5A8C:  MOVFF  1D6,1DA
5A90:  MOVFF  1D3,1DB
5A94:  MOVFF  1D5,1DD
5A98:  MOVFF  1D4,1DC
5A9C:  MOVLB  0
5A9E:  RCALL  558A
5AA0:  MOVF   01,W
5AA2:  MOVLB  1
5AA4:  BRA    5ADE
....................    struct Punto buff; 
....................    buff = Graf(nPuntos, Curva, 1); 
5AA6:  MOVFF  1D3,1DD
5AAA:  MOVFF  1D5,1DF
5AAE:  MOVFF  1D4,1DE
5AB2:  MOVLW  01
5AB4:  MOVWF  xE0
5AB6:  MOVLB  0
5AB8:  CALL   2936
5ABC:  MOVFF  03,1D9
5AC0:  MOVFF  02,1D8
5AC4:  MOVFF  01,1D7
....................    GrafData(buff); 
5AC8:  MOVFF  1D9,1DE
5ACC:  MOVFF  1D8,1DD
5AD0:  MOVFF  1D7,1DC
5AD4:  CALL   3480
....................    return _OtroPunto; 
5AD8:  MOVLW  20
5ADA:  MOVWF  01
5ADC:  MOVLB  1
5ADE:  MOVLB  0
5AE0:  GOTO   5CAE (RETURN)
.................... } 
.................... #INT_TIMER1 
.................... void isr_timer1(){ 
....................    Setpoint+=dt; 
*
09F4:  BCF    FD8.1
09F6:  MOVFF  24,223
09FA:  MOVFF  23,222
09FE:  MOVFF  22,221
0A02:  MOVFF  21,220
0A06:  MOVFF  20,227
0A0A:  MOVFF  1F,226
0A0E:  MOVFF  1E,225
0A12:  MOVFF  1D,224
0A16:  RCALL  077C
0A18:  MOVFF  03,24
0A1C:  MOVFF  02,23
0A20:  MOVFF  01,22
0A24:  MOVFF  00,21
....................    cont++; 
0A28:  MOVLW  01
0A2A:  ADDWF  25,F
0A2C:  BTFSC  FD8.0
0A2E:  INCF   26,F
0A30:  BTFSC  FD8.2
0A32:  INCF   27,F
0A34:  BTFSC  FD8.2
0A36:  INCF   28,F
....................    return; 
0A38:  BCF    F9E.0
0A3A:  GOTO   0084
.................... } 
.................... void timer1_init(){ 
....................    setup_timer_1(T1_DIV_BY_4|T1_INTERNAL);   //-> Diferencial de tiempo, Granularidad con la que se actualiiza el setpoint. 7.62Hz 
*
6106:  MOVLW  27
6108:  MOVWF  FCD
610A:  CLRF   FCC
....................    enable_interrupts(global);             
610C:  MOVLW  C0
610E:  IORWF  FF2,F
....................    enable_interrupts(INT_TIMER1); 
6110:  BSF    F9D.0
....................    return; 
6112:  GOTO   641A (RETURN)
.................... } 
.................... void adc_init(){ 
....................    setup_adc(ADC_CLOCK_INTERNAL|ADC_CLOCK_DIV_8); // FOSC/8 -> FOSCmax = 10MHz 
*
1EC6:  MOVF   FC0,W
1EC8:  ANDLW  C0
1ECA:  IORLW  07
1ECC:  MOVWF  FC0
1ECE:  BSF    FC0.7
1ED0:  BSF    FC2.0
....................    setup_vref(VREF_2v048); //FVR EN 2.048V 
1ED2:  MOVLW  A0
1ED4:  MOVWF  F7D
....................    setup_adc_ports(port_adc, VSS_FVR); 
1ED6:  MOVF   FC1,W
1ED8:  ANDLW  F0
1EDA:  IORLW  08
1EDC:  MOVWF  FC1
1EDE:  MOVLW  01
1EE0:  MOVLB  F
1EE2:  MOVWF  x5B
1EE4:  MOVLW  00
1EE6:  MOVWF  x5C
1EE8:  MOVWF  x5D
....................    return; 
1EEA:  MOVLB  0
1EEC:  RETURN 0
.................... } 
.................... float MedirTemp(){ 
*
6116:  BSF    FC2.1
6118:  BTFSC  FC2.1
611A:  BRA    6118
611C:  MOVFF  FC4,206
6120:  MOVFF  FC3,205
6124:  MOVLB  0
6126:  CALL   147E
612A:  MOVFF  03,1E9
612E:  MOVFF  02,1E8
6132:  MOVFF  01,1E7
6136:  MOVFF  00,1E6
613A:  MOVFF  1E9,208
613E:  MOVFF  1E8,207
6142:  MOVFF  1E7,206
6146:  MOVFF  1E6,205
614A:  MOVLW  F3
614C:  MOVLB  2
614E:  MOVWF  x0C
6150:  MOVLW  95
6152:  MOVWF  x0B
6154:  MOVLW  1C
6156:  MOVWF  x0A
6158:  MOVLW  7D
615A:  MOVWF  x09
615C:  MOVLB  0
615E:  CALL   1758
6162:  MOVFF  03,1F5
6166:  MOVFF  02,1F4
616A:  MOVFF  01,1F3
616E:  MOVFF  00,1F2
6172:  BCF    FD8.1
6174:  CLRF   19
6176:  BTFSC  FF2.7
6178:  BSF    19.7
617A:  BCF    FF2.7
617C:  MOVFF  03,223
6180:  MOVFF  02,222
6184:  MOVFF  01,221
6188:  MOVFF  00,220
618C:  MOVLB  2
618E:  CLRF   x27
6190:  CLRF   x26
6192:  CLRF   x25
6194:  CLRF   x24
6196:  MOVLB  0
6198:  CALL   077C
619C:  BTFSC  19.7
619E:  BSF    FF2.7
61A0:  MOVFF  03,1ED
61A4:  MOVFF  02,1EC
61A8:  MOVFF  01,1EB
61AC:  MOVFF  00,1EA
61B0:  CLRF   19
61B2:  BTFSC  FF2.7
61B4:  BSF    19.7
61B6:  BCF    FF2.7
....................    float x=read_adc(); 
....................    float temp = (float)x*ESCALADO+OFFSET; 
....................    delay_ms(1); 
61B8:  MOVLW  01
61BA:  MOVLB  2
61BC:  MOVWF  x22
61BE:  MOVLB  0
61C0:  CALL   00D2
61C4:  BTFSC  19.7
61C6:  BSF    FF2.7
....................    float TempContacto; 
....................    TempContacto = temp_tc77(); 
61C8:  CALL   1EEE
61CC:  MOVFF  03,1F1
61D0:  MOVFF  02,1F0
61D4:  MOVFF  01,1EF
61D8:  MOVFF  00,1EE
....................    if(TempContacto <= -99){ 
61DC:  MOVFF  1F1,204
61E0:  MOVFF  1F0,203
61E4:  MOVFF  1EF,202
61E8:  MOVFF  1EE,201
61EC:  MOVLB  2
61EE:  CLRF   x08
61F0:  CLRF   x07
61F2:  MOVLW  C6
61F4:  MOVWF  x06
61F6:  MOVLW  85
61F8:  MOVWF  x05
61FA:  MOVLB  0
61FC:  CALL   1B22
6200:  BC    6204
6202:  BNZ   621A
....................       print_status(-1); 
6204:  MOVLB  1
6206:  SETF   xF2
6208:  MOVLB  0
620A:  CALL   13B8
....................       TempContacto = 0; 
620E:  MOVLB  1
6210:  CLRF   xF1
6212:  CLRF   xF0
6214:  CLRF   xEF
6216:  CLRF   xEE
6218:  MOVLB  0
....................    } 
....................    if(temp>TempContacto)temp-=TempContacto; 
621A:  MOVFF  1F1,204
621E:  MOVFF  1F0,203
6222:  MOVFF  1EF,202
6226:  MOVFF  1EE,201
622A:  MOVFF  1ED,208
622E:  MOVFF  1EC,207
6232:  MOVFF  1EB,206
6236:  MOVFF  1EA,205
623A:  CALL   1B22
623E:  BNC   6282
6240:  BSF    FD8.1
6242:  CLRF   19
6244:  BTFSC  FF2.7
6246:  BSF    19.7
6248:  BCF    FF2.7
624A:  MOVFF  1ED,223
624E:  MOVFF  1EC,222
6252:  MOVFF  1EB,221
6256:  MOVFF  1EA,220
625A:  MOVFF  1F1,227
625E:  MOVFF  1F0,226
6262:  MOVFF  1EF,225
6266:  MOVFF  1EE,224
626A:  CALL   077C
626E:  BTFSC  19.7
6270:  BSF    FF2.7
6272:  MOVFF  03,1ED
6276:  MOVFF  02,1EC
627A:  MOVFF  01,1EB
627E:  MOVFF  00,1EA
....................    if(temp<MINTEMP)temp=MINTEMP; 
6282:  MOVFF  1ED,204
6286:  MOVFF  1EC,203
628A:  MOVFF  1EB,202
628E:  MOVFF  1EA,201
6292:  MOVLB  2
6294:  CLRF   x08
6296:  CLRF   x07
6298:  CLRF   x06
629A:  MOVLW  84
629C:  MOVWF  x05
629E:  MOVLB  0
62A0:  CALL   1B22
62A4:  BNC   62B4
62A6:  MOVLB  1
62A8:  CLRF   xED
62AA:  CLRF   xEC
62AC:  CLRF   xEB
62AE:  MOVLW  84
62B0:  MOVWF  xEA
62B2:  MOVLB  0
....................    return (temp>(255+MINTEMP))? 255:temp-MINTEMP; 
62B4:  MOVLB  2
62B6:  CLRF   x04
62B8:  MOVLW  80
62BA:  MOVWF  x03
62BC:  MOVLW  0F
62BE:  MOVWF  x02
62C0:  MOVLW  87
62C2:  MOVWF  x01
62C4:  MOVFF  1ED,208
62C8:  MOVFF  1EC,207
62CC:  MOVFF  1EB,206
62D0:  MOVFF  1EA,205
62D4:  MOVLB  0
62D6:  CALL   1B22
62DA:  BNC   62EA
62DC:  MOVLW  86
62DE:  MOVWF  00
62E0:  MOVLW  7F
62E2:  MOVWF  01
62E4:  CLRF   02
62E6:  CLRF   03
62E8:  BRA    631A
62EA:  BSF    FD8.1
62EC:  CLRF   19
62EE:  BTFSC  FF2.7
62F0:  BSF    19.7
62F2:  BCF    FF2.7
62F4:  MOVFF  1ED,223
62F8:  MOVFF  1EC,222
62FC:  MOVFF  1EB,221
6300:  MOVFF  1EA,220
6304:  MOVLB  2
6306:  CLRF   x27
6308:  CLRF   x26
630A:  CLRF   x25
630C:  MOVLW  84
630E:  MOVWF  x24
6310:  MOVLB  0
6312:  CALL   077C
6316:  BTFSC  19.7
6318:  BSF    FF2.7
631A:  RETURN 0
.................... } 
.................... void curva_init(struct punto *Curva){ 
....................    for(int i=0;i<17;i++){ 
*
1FC8:  MOVLB  1
1FCA:  CLRF   xC8
1FCC:  MOVF   xC8,W
1FCE:  SUBLW  10
1FD0:  BNC   2032
....................       Curva[i].Temperatura=0; 
1FD2:  MOVLB  2
1FD4:  CLRF   x07
1FD6:  MOVFF  1C8,206
1FDA:  CLRF   x09
1FDC:  MOVLW  03
1FDE:  MOVWF  x08
1FE0:  MOVLB  0
1FE2:  CALL   10F8
1FE6:  MOVLB  1
1FE8:  MOVF   xC6,W
1FEA:  ADDWF  01,W
1FEC:  MOVWF  FE9
1FEE:  MOVF   xC7,W
1FF0:  ADDWFC 02,W
1FF2:  MOVWF  FEA
1FF4:  CLRF   FEF
....................       Curva[i].Tiempo=0; 
1FF6:  MOVLB  2
1FF8:  CLRF   x07
1FFA:  MOVFF  1C8,206
1FFE:  CLRF   x09
2000:  MOVLW  03
2002:  MOVWF  x08
2004:  MOVLB  0
2006:  CALL   10F8
200A:  MOVFF  01,1C9
200E:  MOVLW  01
2010:  MOVLB  1
2012:  ADDWF  01,W
2014:  MOVWF  01
2016:  MOVLW  00
2018:  ADDWFC 02,W
201A:  MOVWF  03
201C:  MOVF   01,W
201E:  ADDWF  xC6,W
2020:  MOVWF  FE9
2022:  MOVF   xC7,W
2024:  ADDWFC 03,W
2026:  MOVWF  FEA
2028:  CLRF   FEC
202A:  MOVF   FED,F
202C:  CLRF   FEF
202E:  INCF   xC8,F
2030:  BRA    1FCC
....................    } 
....................    ultimaTecla=_VISTO; 
2032:  MOVLW  0C
2034:  MOVWF  1B
2036:  MOVLB  0
2038:  RETURN 0
.................... } 
.................... #endif 
....................  
.................... //Funciones de estado 
.................... int SeleccionDePerfil(){ 
....................    Cursor(2,3); 
*
22AA:  MOVLW  02
22AC:  MOVLB  1
22AE:  MOVWF  xD7
22B0:  MOVLW  03
22B2:  MOVWF  xD8
22B4:  MOVLB  0
22B6:  RCALL  2280
....................    while(1){ 
....................       if(ultimaTecla==_X){ 
22B8:  MOVF   1B,W
22BA:  SUBLW  0A
22BC:  BNZ   22C8
....................          ultimaTecla=_VISTO; 
22BE:  MOVLW  0C
22C0:  MOVWF  1B
....................          return _CargarValores; 
22C2:  MOVLW  06
22C4:  MOVWF  01
22C6:  BRA    22DA
....................       } 
....................       if(ultimaTecla==_TICK){ 
22C8:  MOVF   1B,W
22CA:  SUBLW  0B
22CC:  BNZ   22D8
....................          ultimaTecla=_VISTO; 
22CE:  MOVLW  0C
22D0:  MOVWF  1B
....................          return _Perfiles; 
22D2:  MOVLW  01
22D4:  MOVWF  01
22D6:  BRA    22DA
....................            
....................       } 
22D8:  BRA    22B8
....................    } 
22DA:  GOTO   730C (RETURN)
.................... } 
.................... int Perfiles(int *nPuntos,struct Punto *Curva){ 
*
3996:  MOVF   1A,W
3998:  ANDLW  E0
399A:  MOVWF  00
399C:  SWAPF  00,W
399E:  MOVLB  1
39A0:  MOVWF  xCA
39A2:  RRCF   xCA,F
39A4:  MOVLW  07
39A6:  ANDWF  xCA,F
....................    int nPerfil=(config&0xE0)>>5; 
....................    if(nPerfil==0)nPerfil=1; 
39A8:  MOVF   xCA,F
39AA:  BNZ   39B0
39AC:  MOVLW  01
39AE:  MOVWF  xCA
....................    printPerfiles(); 
39B0:  MOVLB  0
39B2:  GOTO   2352
....................    Cursor(3*(nPerfil-1)+1,1); 
39B6:  MOVLW  01
39B8:  MOVLB  1
39BA:  SUBWF  xCA,W
39BC:  MULLW  03
39BE:  MOVF   FF3,W
39C0:  ADDLW  01
39C2:  MOVWF  xCB
39C4:  MOVWF  xD7
39C6:  MOVLW  01
39C8:  MOVWF  xD8
39CA:  MOVLB  0
39CC:  CALL   2280
....................    GrafFrame(); 
39D0:  CALL   24CC
....................    printVacio(); 
39D4:  CALL   2560
....................    GrafPerfil(nPuntos, Curva, nPerfil); 
39D8:  MOVFF  1C7,1CC
39DC:  MOVFF  1C6,1CB
39E0:  MOVFF  1C9,1CE
39E4:  MOVFF  1C8,1CD
39E8:  MOVFF  1CA,1CF
39EC:  RCALL  3858
....................    while(1){ 
....................       if(ultimaTecla==_X){ 
39EE:  MOVF   1B,W
39F0:  SUBLW  0A
39F2:  BNZ   3A36
....................          ultimaTecla=_VISTO; 
39F4:  MOVLW  0C
39F6:  MOVWF  1B
....................          if(nPerfil>5) nPerfil = 1; 
39F8:  MOVLB  1
39FA:  MOVF   xCA,W
39FC:  SUBLW  05
39FE:  BC    3A06
3A00:  MOVLW  01
3A02:  MOVWF  xCA
3A04:  BRA    3A08
....................          else nPerfil++; 
3A06:  INCF   xCA,F
....................          Cursor(3*(nPerfil-1)+1,1); 
3A08:  MOVLW  01
3A0A:  SUBWF  xCA,W
3A0C:  MULLW  03
3A0E:  MOVF   FF3,W
3A10:  ADDLW  01
3A12:  MOVWF  xCB
3A14:  MOVWF  xD7
3A16:  MOVLW  01
3A18:  MOVWF  xD8
3A1A:  MOVLB  0
3A1C:  CALL   2280
....................          GrafPerfil(nPuntos, Curva, nPerfil); 
3A20:  MOVFF  1C7,1CC
3A24:  MOVFF  1C6,1CB
3A28:  MOVFF  1C9,1CE
3A2C:  MOVFF  1C8,1CD
3A30:  MOVFF  1CA,1CF
3A34:  RCALL  3858
....................       } 
....................       if(ultimaTecla==_TICK){ 
3A36:  MOVF   1B,W
3A38:  SUBLW  0B
3A3A:  BTFSS  FD8.2
3A3C:  BRA    3C7C
....................          ultimaTecla=_VISTO; 
3A3E:  MOVLW  0C
3A40:  MOVWF  1B
....................          if(nPerfil>5){ 
3A42:  MOVLB  1
3A44:  MOVF   xCA,W
3A46:  SUBLW  05
3A48:  BC    3A82
....................             fillRect(_width-9,_height-14,2,5,BG_COLOR); 
3A4A:  MOVLW  09
3A4C:  SUBWF  x72,W
3A4E:  MOVWF  xCB
3A50:  MOVLW  0E
3A52:  SUBWF  x73,W
3A54:  MOVWF  xCC
3A56:  MOVLB  2
3A58:  CLRF   x02
3A5A:  MOVFF  1CB,201
3A5E:  MOVWF  x03
3A60:  MOVLW  02
3A62:  MOVWF  x04
3A64:  MOVLW  05
3A66:  MOVWF  x05
3A68:  MOVFF  171,207
3A6C:  MOVFF  170,206
3A70:  MOVLB  0
3A72:  CALL   0EEC
....................             printMenuPrincipal(); 
3A76:  CALL   2168
....................             return _SeleccionDePerfil; 
3A7A:  MOVLW  00
3A7C:  MOVWF  01
3A7E:  BRA    3C7E
3A80:  MOVLB  1
....................          } 
....................          config=(config&0x1F)|(nPerfil<<5); 
3A82:  MOVF   1A,W
3A84:  ANDLW  1F
3A86:  MOVWF  xCB
3A88:  SWAPF  xCA,W
3A8A:  MOVWF  00
3A8C:  RLCF   00,F
3A8E:  MOVLW  E0
3A90:  ANDWF  00,F
3A92:  MOVF   00,W
3A94:  IORWF  xCB,W
3A96:  MOVWF  1A
....................          tft_gotoxy(0,0); 
3A98:  CLRF   xF6
3A9A:  CLRF   xF7
3A9C:  MOVLB  0
3A9E:  CALL   10DE
....................          switch(config&0x03){ 
3AA2:  MOVF   1A,W
3AA4:  ANDLW  03
3AA6:  ADDLW  FC
3AA8:  BC    3AE6
3AAA:  ADDLW  04
3AAC:  GOTO   3C82
....................             case 0: 
....................                printf(tft_putc,"PERFIL"); 
3AB0:  MOVLW  3E
3AB2:  MOVWF  FF6
3AB4:  MOVLW  0A
3AB6:  MOVWF  FF7
3AB8:  CALL   1398
....................                break; 
3ABC:  BRA    3AE6
....................             case 1: 
....................                printf(tft_putc,"PROFILE"); 
3ABE:  MOVLW  46
3AC0:  MOVWF  FF6
3AC2:  MOVLW  0A
3AC4:  MOVWF  FF7
3AC6:  CALL   1398
....................                break; 
3ACA:  BRA    3AE6
....................             case 2: 
....................                printf(tft_putc,"PROFIL"); 
3ACC:  MOVLW  4E
3ACE:  MOVWF  FF6
3AD0:  MOVLW  0A
3AD2:  MOVWF  FF7
3AD4:  CALL   1398
....................                break; 
3AD8:  BRA    3AE6
....................             case 3: 
....................                printf(tft_putc,"PO\\"); 
3ADA:  MOVLW  56
3ADC:  MOVWF  FF6
3ADE:  MOVLW  0A
3AE0:  MOVWF  FF7
3AE2:  CALL   1398
....................                break; 
....................          } 
....................          printf(tft_putc," %d:\n",nPerfil); 
3AE6:  MOVLW  20
3AE8:  MOVLB  1
3AEA:  MOVWF  xF5
3AEC:  MOVLB  0
3AEE:  CALL   121A
3AF2:  MOVFF  1CA,1D0
3AF6:  MOVLW  18
3AF8:  MOVLB  1
3AFA:  MOVWF  xD1
3AFC:  MOVLB  0
3AFE:  RCALL  38CE
3B00:  MOVLW  3A
3B02:  MOVLB  1
3B04:  MOVWF  xF5
3B06:  MOVLB  0
3B08:  CALL   121A
3B0C:  MOVLW  0A
3B0E:  MOVLB  1
3B10:  MOVWF  xF5
3B12:  MOVLB  0
3B14:  CALL   121A
....................          if(perfilVacio(nPerfil)){ 
3B18:  MOVFF  1CA,1D4
3B1C:  CALL   265E
3B20:  MOVF   01,F
3B22:  BZ    3BC6
....................             printf(tft_putc," >"); 
3B24:  MOVLW  20
3B26:  MOVLB  1
3B28:  MOVWF  xF5
3B2A:  MOVLB  0
3B2C:  CALL   121A
3B30:  MOVLW  3E
3B32:  MOVLB  1
3B34:  MOVWF  xF5
3B36:  MOVLB  0
3B38:  CALL   121A
....................             switch(config&0x03){ 
3B3C:  MOVF   1A,W
3B3E:  ANDLW  03
3B40:  ADDLW  FC
3B42:  BC    3B80
3B44:  ADDLW  04
3B46:  GOTO   3CA4
....................                case 0: 
....................                   printf(tft_putc,"CREAR"); 
3B4A:  MOVLW  5E
3B4C:  MOVWF  FF6
3B4E:  MOVLW  0A
3B50:  MOVWF  FF7
3B52:  CALL   1398
....................                   break; 
3B56:  BRA    3B80
....................                case 1: 
....................                   printf(tft_putc,"CREATE"); 
3B58:  MOVLW  64
3B5A:  MOVWF  FF6
3B5C:  MOVLW  0A
3B5E:  MOVWF  FF7
3B60:  CALL   1398
....................                   break; 
3B64:  BRA    3B80
....................                case 2: 
....................                   printf(tft_putc,"CRER"); 
3B66:  MOVLW  6C
3B68:  MOVWF  FF6
3B6A:  MOVLW  0A
3B6C:  MOVWF  FF7
3B6E:  CALL   1398
....................                   break; 
3B72:  BRA    3B80
....................                case 3: 
....................                   printf(tft_putc,"CO[ABAT"); 
3B74:  MOVLW  72
3B76:  MOVWF  FF6
3B78:  MOVLW  0A
3B7A:  MOVWF  FF7
3B7C:  CALL   1398
....................                   break; 
....................             } 
....................             fillRect(X,Y-8,_width-X,8,BG_COLOR); 
3B80:  MOVLW  08
3B82:  MOVLB  1
3B84:  SUBWF  x7E,W
3B86:  MOVWF  xCB
3B88:  MOVF   x7D,W
3B8A:  SUBWF  x72,W
3B8C:  MOVWF  xCC
3B8E:  MOVLB  2
3B90:  CLRF   x02
3B92:  MOVFF  17D,201
3B96:  MOVFF  1CB,203
3B9A:  MOVWF  x04
3B9C:  MOVLW  08
3B9E:  MOVWF  x05
3BA0:  MOVFF  171,207
3BA4:  MOVFF  170,206
3BA8:  MOVLB  0
3BAA:  CALL   0EEC
....................             *nPuntos=1; 
3BAE:  MOVLB  1
3BB0:  MOVFF  1C6,FE9
3BB4:  MOVFF  1C7,FEA
3BB8:  MOVLW  01
3BBA:  MOVWF  FEF
....................             return _Perfil_Crear; 
3BBC:  MOVLW  02
3BBE:  MOVWF  01
3BC0:  MOVLB  0
3BC2:  BRA    3C7E
....................          }else{ 
3BC4:  BRA    3C7C
....................             printEspacios(2); 
3BC6:  MOVLW  02
3BC8:  MOVLB  1
3BCA:  MOVWF  xCB
3BCC:  MOVLB  0
3BCE:  CALL   2076
....................             switch(config&0x03){ 
3BD2:  MOVF   1A,W
3BD4:  ANDLW  03
3BD6:  ADDLW  FC
3BD8:  BC    3C16
3BDA:  ADDLW  04
3BDC:  GOTO   3CC6
....................                case 0: 
....................                   printf(tft_putc,"CARGAR"); 
3BE0:  MOVLW  7C
3BE2:  MOVWF  FF6
3BE4:  MOVLW  0A
3BE6:  MOVWF  FF7
3BE8:  CALL   1398
....................                   break; 
3BEC:  BRA    3C16
....................                case 1: 
....................                   printf(tft_putc,"LOAD"); 
3BEE:  MOVLW  84
3BF0:  MOVWF  FF6
3BF2:  MOVLW  0A
3BF4:  MOVWF  FF7
3BF6:  CALL   1398
....................                   break; 
3BFA:  BRA    3C16
....................                case 2: 
....................                   printf(tft_putc,"CHARGER"); 
3BFC:  MOVLW  8A
3BFE:  MOVWF  FF6
3C00:  MOVLW  0A
3C02:  MOVWF  FF7
3C04:  CALL   1398
....................                   break; 
3C08:  BRA    3C16
....................                case 3: 
....................                   printf(tft_putc,"HAPY[KA"); 
3C0A:  MOVLW  92
3C0C:  MOVWF  FF6
3C0E:  MOVLW  0A
3C10:  MOVWF  FF7
3C12:  CALL   1398
....................                   break; 
....................             } 
....................             printEspacios(2); 
3C16:  MOVLW  02
3C18:  MOVLB  1
3C1A:  MOVWF  xCB
3C1C:  MOVLB  0
3C1E:  CALL   2076
....................             switch(config&0x03){ 
3C22:  MOVF   1A,W
3C24:  ANDLW  03
3C26:  ADDLW  FC
3C28:  BC    3C66
3C2A:  ADDLW  04
3C2C:  GOTO   3CE8
....................                case 0: 
....................                   printf(tft_putc,"EDITAR"); 
3C30:  MOVLW  9C
3C32:  MOVWF  FF6
3C34:  MOVLW  0A
3C36:  MOVWF  FF7
3C38:  CALL   1398
....................                   break; 
3C3C:  BRA    3C66
....................                case 1: 
....................                   printf(tft_putc,"EDIT"); 
3C3E:  MOVLW  A4
3C40:  MOVWF  FF6
3C42:  MOVLW  0A
3C44:  MOVWF  FF7
3C46:  CALL   1398
....................                   break; 
3C4A:  BRA    3C66
....................                case 2: 
....................                   printf(tft_putc,"DITER"); 
3C4C:  MOVLW  AA
3C4E:  MOVWF  FF6
3C50:  MOVLW  0A
3C52:  MOVWF  FF7
3C54:  CALL   1398
....................                   break; 
3C58:  BRA    3C66
....................                case 3: 
....................                   printf(tft_putc,"PEAKT\\POBAT"); 
3C5A:  MOVLW  B2
3C5C:  MOVWF  FF6
3C5E:  MOVLW  0A
3C60:  MOVWF  FF7
3C62:  CALL   1398
....................                   break; 
....................             } 
....................             printEspacios(2); 
3C66:  MOVLW  02
3C68:  MOVLB  1
3C6A:  MOVWF  xCB
3C6C:  MOVLB  0
3C6E:  CALL   2076
....................             printVolver(); 
3C72:  CALL   22DE
....................             return _Perfil_Cargar; 
3C76:  MOVLW  03
3C78:  MOVWF  01
3C7A:  BRA    3C7E
....................          } 
....................       } 
3C7C:  BRA    39EE
....................    }  
3C7E:  GOTO   732C (RETURN)
.................... } 
....................    int Perfil_Crear(){ 
....................       while(1){ 
....................          if(ultimaTecla==_X){ 
*
3D0A:  MOVF   1B,W
3D0C:  SUBLW  0A
3D0E:  BNZ   3D1A
....................             ultimaTecla=_VISTO; 
3D10:  MOVLW  0C
3D12:  MOVWF  1B
....................             return _Perfiles; 
3D14:  MOVLW  01
3D16:  MOVWF  01
3D18:  BRA    3D2C
....................          } 
....................          if(ultimaTecla==_TICK){ 
3D1A:  MOVF   1B,W
3D1C:  SUBLW  0B
3D1E:  BNZ   3D2A
....................             ultimaTecla=_VISTO; 
3D20:  MOVLW  0C
3D22:  MOVWF  1B
....................             return _CargarPunto; 
3D24:  MOVLW  1D
3D26:  MOVWF  01
3D28:  BRA    3D2C
....................          } 
3D2A:  BRA    3D0A
....................       } 
3D2C:  GOTO   7338 (RETURN)
....................    } 
....................    int Perfil_Cargar(){ 
....................       Cursor(1,1); 
3D30:  MOVLW  01
3D32:  MOVLB  1
3D34:  MOVWF  xD7
3D36:  MOVWF  xD8
3D38:  MOVLB  0
3D3A:  CALL   2280
....................       while(1){ 
....................          if(ultimaTecla==_X){ 
3D3E:  MOVF   1B,W
3D40:  SUBLW  0A
3D42:  BNZ   3D4E
....................             ultimaTecla=_VISTO; 
3D44:  MOVLW  0C
3D46:  MOVWF  1B
....................             return _Perfil_Editar;   
3D48:  MOVLW  04
3D4A:  MOVWF  01
3D4C:  BRA    3D60
....................          } 
....................          if(ultimaTecla==_TICK){ 
3D4E:  MOVF   1B,W
3D50:  SUBLW  0B
3D52:  BNZ   3D5E
....................             ultimaTecla=_VISTO; 
3D54:  MOVLW  0C
3D56:  MOVWF  1B
....................             return _Iniciar;   
3D58:  MOVLW  1E
3D5A:  MOVWF  01
3D5C:  BRA    3D60
....................          } 
3D5E:  BRA    3D3E
....................       } 
3D60:  GOTO   7344 (RETURN)
....................    } 
....................    int Perfil_Editar(){ 
....................       Cursor(9,1); 
3D64:  MOVLW  09
3D66:  MOVLB  1
3D68:  MOVWF  xD7
3D6A:  MOVLW  01
3D6C:  MOVWF  xD8
3D6E:  MOVLB  0
3D70:  CALL   2280
....................       while(1){ 
....................          if(ultimaTecla==_X){ 
3D74:  MOVF   1B,W
3D76:  SUBLW  0A
3D78:  BNZ   3D84
....................             ultimaTecla=_VISTO; 
3D7A:  MOVLW  0C
3D7C:  MOVWF  1B
....................             return _Perfil_Volver; 
3D7E:  MOVLW  05
3D80:  MOVWF  01
3D82:  BRA    3D96
....................               
....................          } 
....................          if(ultimaTecla==_TICK){ 
3D84:  MOVF   1B,W
3D86:  SUBLW  0B
3D88:  BNZ   3D94
....................             ultimaTecla=_VISTO; 
3D8A:  MOVLW  0C
3D8C:  MOVWF  1B
....................             return _CargarPunto; 
3D8E:  MOVLW  1D
3D90:  MOVWF  01
3D92:  BRA    3D96
....................          } 
3D94:  BRA    3D74
....................       } 
3D96:  GOTO   7350 (RETURN)
....................    } 
....................    int Perfil_Volver(){ 
....................       Cursor(17,1); 
3D9A:  MOVLW  11
3D9C:  MOVLB  1
3D9E:  MOVWF  xD7
3DA0:  MOVLW  01
3DA2:  MOVWF  xD8
3DA4:  MOVLB  0
3DA6:  CALL   2280
....................       while(1){ 
....................          if(ultimaTecla==_X){ 
3DAA:  MOVF   1B,W
3DAC:  SUBLW  0A
3DAE:  BNZ   3DBA
....................             ultimaTecla=_VISTO; 
3DB0:  MOVLW  0C
3DB2:  MOVWF  1B
....................             return _Perfil_Cargar; 
3DB4:  MOVLW  03
3DB6:  MOVWF  01
3DB8:  BRA    3DCC
....................          } 
....................          if(ultimaTecla==_TICK){ 
3DBA:  MOVF   1B,W
3DBC:  SUBLW  0B
3DBE:  BNZ   3DCA
....................             ultimaTecla=_VISTO; 
3DC0:  MOVLW  0C
3DC2:  MOVWF  1B
....................             return _Perfiles; 
3DC4:  MOVLW  01
3DC6:  MOVWF  01
3DC8:  BRA    3DCC
....................               
....................          } 
3DCA:  BRA    3DAA
....................       } 
3DCC:  GOTO   735C (RETURN)
....................    } 
.................... int CargarValores(int *nPuntos){ 
....................    Cursor(2,5); 
3DD0:  MOVLW  02
3DD2:  MOVLB  1
3DD4:  MOVWF  xD7
3DD6:  MOVLW  05
3DD8:  MOVWF  xD8
3DDA:  MOVLB  0
3DDC:  CALL   2280
....................    *nPuntos=1; 
3DE0:  MOVLB  1
3DE2:  MOVFF  1C4,FE9
3DE6:  MOVFF  1C5,FEA
3DEA:  MOVLW  01
3DEC:  MOVWF  FEF
....................    while(1){ 
....................       if(ultimaTecla==_X){ 
3DEE:  MOVF   1B,W
3DF0:  SUBLW  0A
3DF2:  BNZ   3DFE
....................          ultimaTecla=_VISTO; 
3DF4:  MOVLW  0C
3DF6:  MOVWF  1B
....................          return _Configuracion; 
3DF8:  MOVLW  07
3DFA:  MOVWF  01
3DFC:  BRA    3E28
....................       } 
....................       if(ultimaTecla==_TICK){ 
3DFE:  MOVF   1B,W
3E00:  SUBLW  0B
3E02:  BNZ   3E26
....................          ultimaTecla=_VISTO; 
3E04:  MOVLW  0C
3E06:  MOVWF  1B
....................          config=(config&0x1F); 
3E08:  MOVLW  1F
3E0A:  ANDWF  1A,F
....................          printf(tft_putc,"\fCARGAR VALORES:"); 
3E0C:  MOVLW  C0
3E0E:  MOVWF  FF6
3E10:  MOVLW  0A
3E12:  MOVWF  FF7
3E14:  MOVLB  0
3E16:  CALL   1398
....................          GrafFrame(); 
3E1A:  CALL   24CC
....................          return _CargarPunto; 
3E1E:  MOVLW  1D
3E20:  MOVWF  01
3E22:  MOVLB  1
3E24:  BRA    3E28
....................            
....................       } 
3E26:  BRA    3DEE
....................    }  
3E28:  MOVLB  0
3E2A:  GOTO   7374 (RETURN)
.................... } 
.................... int Configuracion(){ 
....................    Cursor(2,7); 
*
3FD4:  MOVLW  02
3FD6:  MOVLB  1
3FD8:  MOVWF  xD7
3FDA:  MOVLW  07
3FDC:  MOVWF  xD8
3FDE:  MOVLB  0
3FE0:  CALL   2280
....................    while(1){ 
....................       if(ultimaTecla==_X){ 
3FE4:  MOVF   1B,W
3FE6:  SUBLW  0A
3FE8:  BNZ   3FFC
....................          ultimaTecla=_VISTO; 
3FEA:  MOVLW  0C
3FEC:  MOVWF  1B
....................          config=(config&0x1F)|(1<<5);  //Ultimo perfil = 001 
3FEE:  MOVF   1A,W
3FF0:  ANDLW  1F
3FF2:  IORLW  20
3FF4:  MOVWF  1A
....................          return _SeleccionDePerfil; 
3FF6:  MOVLW  00
3FF8:  MOVWF  01
3FFA:  BRA    4010
....................            
....................       } 
....................       if(ultimaTecla==_TICK){ 
3FFC:  MOVF   1B,W
3FFE:  SUBLW  0B
4000:  BNZ   400E
....................          ultimaTecla=_VISTO; 
4002:  MOVLW  0C
4004:  MOVWF  1B
....................          printConfiguracion(); 
4006:  RCALL  3F8A
....................          return _Config_Tiempo; 
4008:  MOVLW  08
400A:  MOVWF  01
400C:  BRA    4010
....................            
....................       } 
400E:  BRA    3FE4
....................    } 
4010:  GOTO   7380 (RETURN)
.................... } 
....................    int Config_Tiempo(){ 
....................       Cursor(2,3); 
*
4148:  MOVLW  02
414A:  MOVLB  1
414C:  MOVWF  xD7
414E:  MOVLW  03
4150:  MOVWF  xD8
4152:  MOVLB  0
4154:  CALL   2280
....................       while(1){ 
....................          if(ultimaTecla==_X){ 
4158:  MOVF   1B,W
415A:  SUBLW  0A
415C:  BNZ   4168
....................             ultimaTecla=_VISTO; 
415E:  MOVLW  0C
4160:  MOVWF  1B
....................             return _Config_Temp; 
4162:  MOVLW  12
4164:  MOVWF  01
4166:  BRA    417C
....................               
....................          } 
....................          if(ultimaTecla==_TICK){ 
4168:  MOVF   1B,W
416A:  SUBLW  0B
416C:  BNZ   417A
....................             ultimaTecla=_VISTO; 
416E:  MOVLW  0C
4170:  MOVWF  1B
....................             printTiempo(); 
4172:  RCALL  40FC
....................             return _Config_Tiempo_Formato; 
4174:  MOVLW  09
4176:  MOVWF  01
4178:  BRA    417C
....................               
....................          } 
417A:  BRA    4158
....................       } 
417C:  GOTO   738C (RETURN)
....................    } 
....................       int Config_Tiempo_Formato(){ 
....................          Cursor(5,5); 
*
4250:  MOVLW  05
4252:  MOVLB  1
4254:  MOVWF  xD7
4256:  MOVWF  xD8
4258:  MOVLB  0
425A:  CALL   2280
....................          while(1){ 
....................             if(ultimaTecla==_X){ 
425E:  MOVF   1B,W
4260:  SUBLW  0A
4262:  BNZ   426E
....................                ultimaTecla=_VISTO; 
4264:  MOVLW  0C
4266:  MOVWF  1B
....................                return _Config_Tiempo_Origen; 
4268:  MOVLW  0D
426A:  MOVWF  01
426C:  BRA    4282
....................                  
....................             } 
....................             if(ultimaTecla==_TICK){ 
426E:  MOVF   1B,W
4270:  SUBLW  0B
4272:  BNZ   4280
....................                ultimaTecla=_VISTO; 
4274:  MOVLW  0C
4276:  MOVWF  1B
....................                printFormato(); 
4278:  BRA    4180
....................                return _Config_Tiempo_Formato_ssss; 
427A:  MOVLW  0B
427C:  MOVWF  01
427E:  BRA    4282
....................                  
....................             } 
4280:  BRA    425E
....................          } 
4282:  GOTO   7398 (RETURN)
....................       } 
....................          int Config_Tiempo_Formato_ssss(){ 
....................             Cursor(8,7); 
*
431E:  MOVLW  08
4320:  MOVLB  1
4322:  MOVWF  xD7
4324:  MOVLW  07
4326:  MOVWF  xD8
4328:  MOVLB  0
432A:  CALL   2280
....................             while(1){ 
....................                if(ultimaTecla==_X){ 
432E:  MOVF   1B,W
4330:  SUBLW  0A
4332:  BNZ   433E
....................                   ultimaTecla=_VISTO; 
4334:  MOVLW  0C
4336:  MOVWF  1B
....................                   return _Config_Tiempo_Formato_mmss; 
4338:  MOVLW  0A
433A:  MOVWF  01
433C:  BRA    43B2
....................                     
....................                } 
....................                if(ultimaTecla==_TICK){ 
433E:  MOVF   1B,W
4340:  SUBLW  0B
4342:  BNZ   43B0
....................                   ultimaTecla=_VISTO; 
4344:  MOVLW  0C
4346:  MOVWF  1B
....................                   write_eeprom(0x00,~(((~read_eeprom(0x00))&(~16))|0)); 
4348:  MOVFF  FF2,1C4
434C:  BCF    FF2.7
434E:  CLRF   FA9
4350:  BCF    FA6.6
4352:  BCF    FA6.7
4354:  BSF    FA6.0
4356:  MOVF   FA8,W
4358:  MOVLB  1
435A:  BTFSC  xC4.7
435C:  BSF    FF2.7
435E:  XORLW  FF
4360:  ANDLW  EF
4362:  XORLW  FF
4364:  MOVWF  xC5
4366:  MOVF   FF2,W
4368:  MOVWF  00
436A:  BCF    FF2.7
436C:  CLRF   FA9
436E:  MOVFF  1C5,FA8
4372:  BCF    FA6.6
4374:  BCF    FA6.7
4376:  BSF    FA6.2
4378:  MOVLB  F
437A:  MOVLW  55
437C:  MOVWF  FA7
437E:  MOVLW  AA
4380:  MOVWF  FA7
4382:  BSF    FA6.1
4384:  BTFSC  FA6.1
4386:  BRA    4384
4388:  BCF    FA6.2
438A:  MOVF   00,W
438C:  IORWF  FF2,F
....................                   config=~read_eeprom(0x00); 
438E:  MOVFF  FF2,1C4
4392:  BCF    FF2.7
4394:  CLRF   FA9
4396:  BCF    FA6.6
4398:  BCF    FA6.7
439A:  BSF    FA6.0
439C:  MOVF   FA8,W
439E:  MOVLB  1
43A0:  BTFSC  xC4.7
43A2:  BSF    FF2.7
43A4:  XORLW  FF
43A6:  MOVWF  1A
....................                   return _Config_Tiempo_Formato_Volver; 
43A8:  MOVLW  0C
43AA:  MOVWF  01
43AC:  MOVLB  0
43AE:  BRA    43B2
....................                     
....................                } 
43B0:  BRA    432E
....................             } 
43B2:  GOTO   73B0 (RETURN)
....................          } 
....................          int Config_Tiempo_Formato_mmss(){ 
....................            Cursor(8,9); 
*
4286:  MOVLW  08
4288:  MOVLB  1
428A:  MOVWF  xD7
428C:  MOVLW  09
428E:  MOVWF  xD8
4290:  MOVLB  0
4292:  CALL   2280
....................             while(1){ 
....................                if(ultimaTecla==_X){ 
4296:  MOVF   1B,W
4298:  SUBLW  0A
429A:  BNZ   42A4
....................                   ultimaTecla=_VISTO; 
429C:  MOVLW  0C
429E:  MOVWF  1B
....................                   return _Config_Tiempo_Formato_Volver; 
42A0:  MOVWF  01
42A2:  BRA    431A
....................                     
....................                } 
....................                if(ultimaTecla==_TICK){ 
42A4:  MOVF   1B,W
42A6:  SUBLW  0B
42A8:  BNZ   4318
....................                   ultimaTecla=_VISTO; 
42AA:  MOVLW  0C
42AC:  MOVWF  1B
....................                   write_eeprom(0x00,~(((~read_eeprom(0x00))&(~16))|16)); 
42AE:  MOVFF  FF2,1C4
42B2:  BCF    FF2.7
42B4:  CLRF   FA9
42B6:  BCF    FA6.6
42B8:  BCF    FA6.7
42BA:  BSF    FA6.0
42BC:  MOVF   FA8,W
42BE:  MOVLB  1
42C0:  BTFSC  xC4.7
42C2:  BSF    FF2.7
42C4:  XORLW  FF
42C6:  ANDLW  EF
42C8:  IORLW  10
42CA:  XORLW  FF
42CC:  MOVWF  xC5
42CE:  MOVF   FF2,W
42D0:  MOVWF  00
42D2:  BCF    FF2.7
42D4:  CLRF   FA9
42D6:  MOVFF  1C5,FA8
42DA:  BCF    FA6.6
42DC:  BCF    FA6.7
42DE:  BSF    FA6.2
42E0:  MOVLB  F
42E2:  MOVLW  55
42E4:  MOVWF  FA7
42E6:  MOVLW  AA
42E8:  MOVWF  FA7
42EA:  BSF    FA6.1
42EC:  BTFSC  FA6.1
42EE:  BRA    42EC
42F0:  BCF    FA6.2
42F2:  MOVF   00,W
42F4:  IORWF  FF2,F
....................                   config=~read_eeprom(0x00); 
42F6:  MOVFF  FF2,1C4
42FA:  BCF    FF2.7
42FC:  CLRF   FA9
42FE:  BCF    FA6.6
4300:  BCF    FA6.7
4302:  BSF    FA6.0
4304:  MOVF   FA8,W
4306:  MOVLB  1
4308:  BTFSC  xC4.7
430A:  BSF    FF2.7
430C:  XORLW  FF
430E:  MOVWF  1A
....................                   return _Config_Tiempo_Formato_Volver; 
4310:  MOVLW  0C
4312:  MOVWF  01
4314:  MOVLB  0
4316:  BRA    431A
....................                     
....................                } 
4318:  BRA    4296
....................             } 
431A:  GOTO   73A4 (RETURN)
....................          } 
....................          int Config_Tiempo_Formato_Volver(){ 
....................             Cursor(8,11); 
*
43B6:  MOVLW  08
43B8:  MOVLB  1
43BA:  MOVWF  xD7
43BC:  MOVLW  0B
43BE:  MOVWF  xD8
43C0:  MOVLB  0
43C2:  CALL   2280
....................             while(1){ 
....................                if(ultimaTecla==_X){ 
43C6:  MOVF   1B,W
43C8:  SUBLW  0A
43CA:  BNZ   43D6
....................                   ultimaTecla=_VISTO; 
43CC:  MOVLW  0C
43CE:  MOVWF  1B
....................                   return _Config_Tiempo_Formato_ssss; 
43D0:  MOVLW  0B
43D2:  MOVWF  01
43D4:  BRA    43EA
....................                     
....................                } 
....................                if(ultimaTecla==_TICK){ 
43D6:  MOVF   1B,W
43D8:  SUBLW  0B
43DA:  BNZ   43E8
....................                   ultimaTecla=_VISTO; 
43DC:  MOVLW  0C
43DE:  MOVWF  1B
....................                   printTiempo(); 
43E0:  RCALL  40FC
....................                   return _Config_Tiempo_Formato; 
43E2:  MOVLW  09
43E4:  MOVWF  01
43E6:  BRA    43EA
....................                     
....................                } 
43E8:  BRA    43C6
....................             } 
43EA:  GOTO   73BC (RETURN)
....................          } 
....................       int Config_Tiempo_Origen(){ 
....................          Cursor(5,7); 
*
452A:  MOVLW  05
452C:  MOVLB  1
452E:  MOVWF  xD7
4530:  MOVLW  07
4532:  MOVWF  xD8
4534:  MOVLB  0
4536:  CALL   2280
....................          while(1){ 
....................             if(ultimaTecla==_X){ 
453A:  MOVF   1B,W
453C:  SUBLW  0A
453E:  BNZ   454A
....................                ultimaTecla=_VISTO; 
4540:  MOVLW  0C
4542:  MOVWF  1B
....................                return _Config_Tiempo_Volver; 
4544:  MOVLW  11
4546:  MOVWF  01
4548:  BRA    455E
....................                  
....................             } 
....................             if(ultimaTecla==_TICK){ 
454A:  MOVF   1B,W
454C:  SUBLW  0B
454E:  BNZ   455C
....................                ultimaTecla=_VISTO; 
4550:  MOVLW  0C
4552:  MOVWF  1B
....................                printOrigen(); 
4554:  BRA    43EE
....................                return _Config_Tiempo_Origen_Relativo; 
4556:  MOVLW  0F
4558:  MOVWF  01
455A:  BRA    455E
....................                  
....................             } 
455C:  BRA    453A
....................          } 
455E:  GOTO   73C8 (RETURN)
....................       } 
....................          int Config_Tiempo_Origen_Relativo(){ 
....................             Cursor(8,7); 
*
45FC:  MOVLW  08
45FE:  MOVLB  1
4600:  MOVWF  xD7
4602:  MOVLW  07
4604:  MOVWF  xD8
4606:  MOVLB  0
4608:  CALL   2280
....................             while(1){ 
....................                if(ultimaTecla==_X){ 
460C:  MOVF   1B,W
460E:  SUBLW  0A
4610:  BNZ   461C
....................                   ultimaTecla=_VISTO; 
4612:  MOVLW  0C
4614:  MOVWF  1B
....................                   return _Config_Tiempo_Origen_Absoluto; 
4616:  MOVLW  0E
4618:  MOVWF  01
461A:  BRA    4690
....................                     
....................                } 
....................                if(ultimaTecla==_TICK){ 
461C:  MOVF   1B,W
461E:  SUBLW  0B
4620:  BNZ   468E
....................                   ultimaTecla=_VISTO; 
4622:  MOVLW  0C
4624:  MOVWF  1B
....................                   write_eeprom(0x00,~(((~read_eeprom(0x00))&(~8))|0)); 
4626:  MOVFF  FF2,1C4
462A:  BCF    FF2.7
462C:  CLRF   FA9
462E:  BCF    FA6.6
4630:  BCF    FA6.7
4632:  BSF    FA6.0
4634:  MOVF   FA8,W
4636:  MOVLB  1
4638:  BTFSC  xC4.7
463A:  BSF    FF2.7
463C:  XORLW  FF
463E:  ANDLW  F7
4640:  XORLW  FF
4642:  MOVWF  xC5
4644:  MOVF   FF2,W
4646:  MOVWF  00
4648:  BCF    FF2.7
464A:  CLRF   FA9
464C:  MOVFF  1C5,FA8
4650:  BCF    FA6.6
4652:  BCF    FA6.7
4654:  BSF    FA6.2
4656:  MOVLB  F
4658:  MOVLW  55
465A:  MOVWF  FA7
465C:  MOVLW  AA
465E:  MOVWF  FA7
4660:  BSF    FA6.1
4662:  BTFSC  FA6.1
4664:  BRA    4662
4666:  BCF    FA6.2
4668:  MOVF   00,W
466A:  IORWF  FF2,F
....................                   config=~read_eeprom(0x00); 
466C:  MOVFF  FF2,1C4
4670:  BCF    FF2.7
4672:  CLRF   FA9
4674:  BCF    FA6.6
4676:  BCF    FA6.7
4678:  BSF    FA6.0
467A:  MOVF   FA8,W
467C:  MOVLB  1
467E:  BTFSC  xC4.7
4680:  BSF    FF2.7
4682:  XORLW  FF
4684:  MOVWF  1A
....................                   return _Config_Tiempo_Origen_Volver; 
4686:  MOVLW  10
4688:  MOVWF  01
468A:  MOVLB  0
468C:  BRA    4690
....................                     
....................                } 
468E:  BRA    460C
....................             } 
4690:  GOTO   73E0 (RETURN)
....................          } 
....................          int Config_Tiempo_Origen_Absoluto(){ 
....................             Cursor(8,9); 
*
4562:  MOVLW  08
4564:  MOVLB  1
4566:  MOVWF  xD7
4568:  MOVLW  09
456A:  MOVWF  xD8
456C:  MOVLB  0
456E:  CALL   2280
....................             while(1){ 
....................                if(ultimaTecla==_X){ 
4572:  MOVF   1B,W
4574:  SUBLW  0A
4576:  BNZ   4582
....................                   ultimaTecla=_VISTO; 
4578:  MOVLW  0C
457A:  MOVWF  1B
....................                   return _Config_Tiempo_Origen_Volver; 
457C:  MOVLW  10
457E:  MOVWF  01
4580:  BRA    45F8
....................                     
....................                } 
....................                if(ultimaTecla==_TICK){ 
4582:  MOVF   1B,W
4584:  SUBLW  0B
4586:  BNZ   45F6
....................                   ultimaTecla=_VISTO; 
4588:  MOVLW  0C
458A:  MOVWF  1B
....................                   write_eeprom(0x00,~(((~read_eeprom(0x00))&(~8))|8)); 
458C:  MOVFF  FF2,1C4
4590:  BCF    FF2.7
4592:  CLRF   FA9
4594:  BCF    FA6.6
4596:  BCF    FA6.7
4598:  BSF    FA6.0
459A:  MOVF   FA8,W
459C:  MOVLB  1
459E:  BTFSC  xC4.7
45A0:  BSF    FF2.7
45A2:  XORLW  FF
45A4:  ANDLW  F7
45A6:  IORLW  08
45A8:  XORLW  FF
45AA:  MOVWF  xC5
45AC:  MOVF   FF2,W
45AE:  MOVWF  00
45B0:  BCF    FF2.7
45B2:  CLRF   FA9
45B4:  MOVFF  1C5,FA8
45B8:  BCF    FA6.6
45BA:  BCF    FA6.7
45BC:  BSF    FA6.2
45BE:  MOVLB  F
45C0:  MOVLW  55
45C2:  MOVWF  FA7
45C4:  MOVLW  AA
45C6:  MOVWF  FA7
45C8:  BSF    FA6.1
45CA:  BTFSC  FA6.1
45CC:  BRA    45CA
45CE:  BCF    FA6.2
45D0:  MOVF   00,W
45D2:  IORWF  FF2,F
....................                   config=~read_eeprom(0x00); 
45D4:  MOVFF  FF2,1C4
45D8:  BCF    FF2.7
45DA:  CLRF   FA9
45DC:  BCF    FA6.6
45DE:  BCF    FA6.7
45E0:  BSF    FA6.0
45E2:  MOVF   FA8,W
45E4:  MOVLB  1
45E6:  BTFSC  xC4.7
45E8:  BSF    FF2.7
45EA:  XORLW  FF
45EC:  MOVWF  1A
....................                   return _Config_Tiempo_Origen_Volver; 
45EE:  MOVLW  10
45F0:  MOVWF  01
45F2:  MOVLB  0
45F4:  BRA    45F8
....................                     
....................                } 
45F6:  BRA    4572
....................             } 
45F8:  GOTO   73D4 (RETURN)
....................          } 
....................          int Config_Tiempo_Origen_Volver(){ 
....................             Cursor(8,11); 
*
4694:  MOVLW  08
4696:  MOVLB  1
4698:  MOVWF  xD7
469A:  MOVLW  0B
469C:  MOVWF  xD8
469E:  MOVLB  0
46A0:  CALL   2280
....................             while(1){ 
....................                if(ultimaTecla==_X){ 
46A4:  MOVF   1B,W
46A6:  SUBLW  0A
46A8:  BNZ   46B4
....................                   ultimaTecla=_VISTO; 
46AA:  MOVLW  0C
46AC:  MOVWF  1B
....................                   return _Config_Tiempo_Origen_Relativo; 
46AE:  MOVLW  0F
46B0:  MOVWF  01
46B2:  BRA    46C8
....................                     
....................                } 
....................                if(ultimaTecla==_TICK){ 
46B4:  MOVF   1B,W
46B6:  SUBLW  0B
46B8:  BNZ   46C6
....................                   ultimaTecla=_VISTO; 
46BA:  MOVLW  0C
46BC:  MOVWF  1B
....................                   printTiempo(); 
46BE:  RCALL  40FC
....................                   return _Config_Tiempo_Origen; 
46C0:  MOVLW  0D
46C2:  MOVWF  01
46C4:  BRA    46C8
....................                     
....................                } 
46C6:  BRA    46A4
....................             } 
46C8:  GOTO   73EC (RETURN)
....................          } 
....................       int Config_Tiempo_Volver(){ 
....................          Cursor(5,9); 
46CC:  MOVLW  05
46CE:  MOVLB  1
46D0:  MOVWF  xD7
46D2:  MOVLW  09
46D4:  MOVWF  xD8
46D6:  MOVLB  0
46D8:  CALL   2280
....................          while(1){ 
....................             if(ultimaTecla==_X){ 
46DC:  MOVF   1B,W
46DE:  SUBLW  0A
46E0:  BNZ   46EC
....................                ultimaTecla=_VISTO; 
46E2:  MOVLW  0C
46E4:  MOVWF  1B
....................                return _Config_Tiempo_Formato; 
46E6:  MOVLW  09
46E8:  MOVWF  01
46EA:  BRA    4700
....................                  
....................             } 
....................             if(ultimaTecla==_TICK){ 
46EC:  MOVF   1B,W
46EE:  SUBLW  0B
46F0:  BNZ   46FE
....................                ultimaTecla=_VISTO; 
46F2:  MOVLW  0C
46F4:  MOVWF  1B
....................                printConfiguracion(); 
46F6:  RCALL  3F8A
....................                return _Config_Tiempo; 
46F8:  MOVLW  08
46FA:  MOVWF  01
46FC:  BRA    4700
....................                  
....................             } 
46FE:  BRA    46DC
....................          } 
4700:  GOTO   73F8 (RETURN)
....................       } 
....................    int Config_Temp(){ 
....................       Cursor(2,5); 
*
4798:  MOVLW  02
479A:  MOVLB  1
479C:  MOVWF  xD7
479E:  MOVLW  05
47A0:  MOVWF  xD8
47A2:  MOVLB  0
47A4:  CALL   2280
....................       while(1){ 
....................          if(ultimaTecla==_X){ 
47A8:  MOVF   1B,W
47AA:  SUBLW  0A
47AC:  BNZ   47B8
....................             ultimaTecla=_VISTO; 
47AE:  MOVLW  0C
47B0:  MOVWF  1B
....................             return _Config_Idioma; 
47B2:  MOVLW  16
47B4:  MOVWF  01
47B6:  BRA    47CC
....................               
....................          } 
....................          if(ultimaTecla==_TICK){ 
47B8:  MOVF   1B,W
47BA:  SUBLW  0B
47BC:  BNZ   47CA
....................             ultimaTecla=_VISTO; 
47BE:  MOVLW  0C
47C0:  MOVWF  1B
....................             printTemperatura(); 
47C2:  BRA    4704
....................             return _Config_Temp_C; 
47C4:  MOVLW  13
47C6:  MOVWF  01
47C8:  BRA    47CC
....................               
....................          } 
47CA:  BRA    47A8
....................       } 
47CC:  GOTO   7404 (RETURN)
....................    } 
....................       int Config_Temp_C(){ 
....................          Cursor(5,5); 
47D0:  MOVLW  05
47D2:  MOVLB  1
47D4:  MOVWF  xD7
47D6:  MOVWF  xD8
47D8:  MOVLB  0
47DA:  CALL   2280
....................          while(1){ 
....................             if(ultimaTecla==_X){ 
47DE:  MOVF   1B,W
47E0:  SUBLW  0A
47E2:  BNZ   47EE
....................                ultimaTecla=_VISTO; 
47E4:  MOVLW  0C
47E6:  MOVWF  1B
....................                return _Config_Temp_F; 
47E8:  MOVLW  14
47EA:  MOVWF  01
47EC:  BRA    4862
....................                  
....................             } 
....................             if(ultimaTecla==_TICK){ 
47EE:  MOVF   1B,W
47F0:  SUBLW  0B
47F2:  BNZ   4860
....................                ultimaTecla=_VISTO; 
47F4:  MOVLW  0C
47F6:  MOVWF  1B
....................                write_eeprom(0x00,~(((~read_eeprom(0x00))&(~4))|0)); 
47F8:  MOVFF  FF2,1C4
47FC:  BCF    FF2.7
47FE:  CLRF   FA9
4800:  BCF    FA6.6
4802:  BCF    FA6.7
4804:  BSF    FA6.0
4806:  MOVF   FA8,W
4808:  MOVLB  1
480A:  BTFSC  xC4.7
480C:  BSF    FF2.7
480E:  XORLW  FF
4810:  ANDLW  FB
4812:  XORLW  FF
4814:  MOVWF  xC5
4816:  MOVF   FF2,W
4818:  MOVWF  00
481A:  BCF    FF2.7
481C:  CLRF   FA9
481E:  MOVFF  1C5,FA8
4822:  BCF    FA6.6
4824:  BCF    FA6.7
4826:  BSF    FA6.2
4828:  MOVLB  F
482A:  MOVLW  55
482C:  MOVWF  FA7
482E:  MOVLW  AA
4830:  MOVWF  FA7
4832:  BSF    FA6.1
4834:  BTFSC  FA6.1
4836:  BRA    4834
4838:  BCF    FA6.2
483A:  MOVF   00,W
483C:  IORWF  FF2,F
....................                config=~read_eeprom(0x00); 
483E:  MOVFF  FF2,1C4
4842:  BCF    FF2.7
4844:  CLRF   FA9
4846:  BCF    FA6.6
4848:  BCF    FA6.7
484A:  BSF    FA6.0
484C:  MOVF   FA8,W
484E:  MOVLB  1
4850:  BTFSC  xC4.7
4852:  BSF    FF2.7
4854:  XORLW  FF
4856:  MOVWF  1A
....................                return _Config_Temp_Volver; 
4858:  MOVLW  15
485A:  MOVWF  01
485C:  MOVLB  0
485E:  BRA    4862
....................                  
....................             } 
4860:  BRA    47DE
....................          } 
4862:  GOTO   7410 (RETURN)
....................       } 
....................       int Config_Temp_F(){ 
....................          Cursor(5,7); 
4866:  MOVLW  05
4868:  MOVLB  1
486A:  MOVWF  xD7
486C:  MOVLW  07
486E:  MOVWF  xD8
4870:  MOVLB  0
4872:  CALL   2280
....................          while(1){ 
....................             if(ultimaTecla==_X){ 
4876:  MOVF   1B,W
4878:  SUBLW  0A
487A:  BNZ   4886
....................                ultimaTecla=_VISTO; 
487C:  MOVLW  0C
487E:  MOVWF  1B
....................                return _Config_Temp_Volver; 
4880:  MOVLW  15
4882:  MOVWF  01
4884:  BRA    48FC
....................             } 
....................             if(ultimaTecla==_TICK){ 
4886:  MOVF   1B,W
4888:  SUBLW  0B
488A:  BNZ   48FA
....................                ultimaTecla=_VISTO; 
488C:  MOVLW  0C
488E:  MOVWF  1B
....................                write_eeprom(0x00,~(((~read_eeprom(0x00))&(~4))|4)); 
4890:  MOVFF  FF2,1C4
4894:  BCF    FF2.7
4896:  CLRF   FA9
4898:  BCF    FA6.6
489A:  BCF    FA6.7
489C:  BSF    FA6.0
489E:  MOVF   FA8,W
48A0:  MOVLB  1
48A2:  BTFSC  xC4.7
48A4:  BSF    FF2.7
48A6:  XORLW  FF
48A8:  ANDLW  FB
48AA:  IORLW  04
48AC:  XORLW  FF
48AE:  MOVWF  xC5
48B0:  MOVF   FF2,W
48B2:  MOVWF  00
48B4:  BCF    FF2.7
48B6:  CLRF   FA9
48B8:  MOVFF  1C5,FA8
48BC:  BCF    FA6.6
48BE:  BCF    FA6.7
48C0:  BSF    FA6.2
48C2:  MOVLB  F
48C4:  MOVLW  55
48C6:  MOVWF  FA7
48C8:  MOVLW  AA
48CA:  MOVWF  FA7
48CC:  BSF    FA6.1
48CE:  BTFSC  FA6.1
48D0:  BRA    48CE
48D2:  BCF    FA6.2
48D4:  MOVF   00,W
48D6:  IORWF  FF2,F
....................                config=~read_eeprom(0x00); 
48D8:  MOVFF  FF2,1C4
48DC:  BCF    FF2.7
48DE:  CLRF   FA9
48E0:  BCF    FA6.6
48E2:  BCF    FA6.7
48E4:  BSF    FA6.0
48E6:  MOVF   FA8,W
48E8:  MOVLB  1
48EA:  BTFSC  xC4.7
48EC:  BSF    FF2.7
48EE:  XORLW  FF
48F0:  MOVWF  1A
....................                return _Config_Temp_Volver; 
48F2:  MOVLW  15
48F4:  MOVWF  01
48F6:  MOVLB  0
48F8:  BRA    48FC
....................             } 
48FA:  BRA    4876
....................          } 
48FC:  GOTO   741C (RETURN)
....................       } 
....................       int Config_Temp_Volver(){ 
....................          Cursor(5,9); 
4900:  MOVLW  05
4902:  MOVLB  1
4904:  MOVWF  xD7
4906:  MOVLW  09
4908:  MOVWF  xD8
490A:  MOVLB  0
490C:  CALL   2280
....................          while(1){ 
....................             if(ultimaTecla==_X){ 
4910:  MOVF   1B,W
4912:  SUBLW  0A
4914:  BNZ   4920
....................                ultimaTecla=_VISTO; 
4916:  MOVLW  0C
4918:  MOVWF  1B
....................                return _Config_Temp_C; 
491A:  MOVLW  13
491C:  MOVWF  01
491E:  BRA    4936
....................                  
....................             } 
....................             if(ultimaTecla==_TICK){ 
4920:  MOVF   1B,W
4922:  SUBLW  0B
4924:  BNZ   4934
....................                ultimaTecla=_VISTO; 
4926:  MOVLW  0C
4928:  MOVWF  1B
....................                printConfiguracion(); 
492A:  CALL   3F8A
....................                return _Config_Temp; 
492E:  MOVLW  12
4930:  MOVWF  01
4932:  BRA    4936
....................                  
....................             } 
4934:  BRA    4910
....................          } 
4936:  GOTO   7428 (RETURN)
....................       } 
....................    int Config_Idioma(){ 
....................       Cursor(2,7); 
*
49F8:  MOVLW  02
49FA:  MOVLB  1
49FC:  MOVWF  xD7
49FE:  MOVLW  07
4A00:  MOVWF  xD8
4A02:  MOVLB  0
4A04:  CALL   2280
....................       while(1){ 
....................          if(ultimaTecla==_X){ 
4A08:  MOVF   1B,W
4A0A:  SUBLW  0A
4A0C:  BNZ   4A18
....................             ultimaTecla=_VISTO; 
4A0E:  MOVLW  0C
4A10:  MOVWF  1B
....................             return _Config_Volver; 
4A12:  MOVLW  1C
4A14:  MOVWF  01
4A16:  BRA    4A2C
....................               
....................          } 
....................          if(ultimaTecla==_TICK){ 
4A18:  MOVF   1B,W
4A1A:  SUBLW  0B
4A1C:  BNZ   4A2A
....................             ultimaTecla=_VISTO; 
4A1E:  MOVLW  0C
4A20:  MOVWF  1B
....................             printIdioma(); 
4A22:  RCALL  493A
....................             return _Config_Idioma_Es;   
4A24:  MOVLW  17
4A26:  MOVWF  01
4A28:  BRA    4A2C
....................          } 
4A2A:  BRA    4A08
....................       } 
4A2C:  GOTO   7434 (RETURN)
....................    } 
....................       int Config_Idioma_Es(){ 
....................          Cursor(5,5); 
4A30:  MOVLW  05
4A32:  MOVLB  1
4A34:  MOVWF  xD7
4A36:  MOVWF  xD8
4A38:  MOVLB  0
4A3A:  CALL   2280
....................          while(1){ 
....................             if(ultimaTecla==_X){ 
4A3E:  MOVF   1B,W
4A40:  SUBLW  0A
4A42:  BNZ   4A4E
....................                ultimaTecla=_VISTO; 
4A44:  MOVLW  0C
4A46:  MOVWF  1B
....................                return _Config_Idioma_En; 
4A48:  MOVLW  18
4A4A:  MOVWF  01
4A4C:  BRA    4AC4
....................                  
....................             } 
....................             if(ultimaTecla==_TICK){ 
4A4E:  MOVF   1B,W
4A50:  SUBLW  0B
4A52:  BNZ   4AC2
....................                ultimaTecla=_VISTO; 
4A54:  MOVLW  0C
4A56:  MOVWF  1B
....................                write_eeprom(0x00,~(((~read_eeprom(0x00))&(~3))|0)); 
4A58:  MOVFF  FF2,1C4
4A5C:  BCF    FF2.7
4A5E:  CLRF   FA9
4A60:  BCF    FA6.6
4A62:  BCF    FA6.7
4A64:  BSF    FA6.0
4A66:  MOVF   FA8,W
4A68:  MOVLB  1
4A6A:  BTFSC  xC4.7
4A6C:  BSF    FF2.7
4A6E:  XORLW  FF
4A70:  ANDLW  FC
4A72:  XORLW  FF
4A74:  MOVWF  xC5
4A76:  MOVF   FF2,W
4A78:  MOVWF  00
4A7A:  BCF    FF2.7
4A7C:  CLRF   FA9
4A7E:  MOVFF  1C5,FA8
4A82:  BCF    FA6.6
4A84:  BCF    FA6.7
4A86:  BSF    FA6.2
4A88:  MOVLB  F
4A8A:  MOVLW  55
4A8C:  MOVWF  FA7
4A8E:  MOVLW  AA
4A90:  MOVWF  FA7
4A92:  BSF    FA6.1
4A94:  BTFSC  FA6.1
4A96:  BRA    4A94
4A98:  BCF    FA6.2
4A9A:  MOVF   00,W
4A9C:  IORWF  FF2,F
....................                config=~read_eeprom(0x00); 
4A9E:  MOVFF  FF2,1C4
4AA2:  BCF    FF2.7
4AA4:  CLRF   FA9
4AA6:  BCF    FA6.6
4AA8:  BCF    FA6.7
4AAA:  BSF    FA6.0
4AAC:  MOVF   FA8,W
4AAE:  MOVLB  1
4AB0:  BTFSC  xC4.7
4AB2:  BSF    FF2.7
4AB4:  XORLW  FF
4AB6:  MOVWF  1A
....................                printIdioma(); 
4AB8:  MOVLB  0
4ABA:  RCALL  493A
....................                return _Config_Idioma_Volver; 
4ABC:  MOVLW  1B
4ABE:  MOVWF  01
4AC0:  BRA    4AC4
....................                  
....................             } 
4AC2:  BRA    4A3E
....................          } 
4AC4:  GOTO   7440 (RETURN)
....................       } 
....................       int Config_Idioma_En(){ 
....................          Cursor(5,7); 
4AC8:  MOVLW  05
4ACA:  MOVLB  1
4ACC:  MOVWF  xD7
4ACE:  MOVLW  07
4AD0:  MOVWF  xD8
4AD2:  MOVLB  0
4AD4:  CALL   2280
....................          while(1){ 
....................             if(ultimaTecla==_X){ 
4AD8:  MOVF   1B,W
4ADA:  SUBLW  0A
4ADC:  BNZ   4AE8
....................                ultimaTecla=_VISTO; 
4ADE:  MOVLW  0C
4AE0:  MOVWF  1B
....................                return _Config_Idioma_Fr; 
4AE2:  MOVLW  19
4AE4:  MOVWF  01
4AE6:  BRA    4B60
....................                  
....................             } 
....................             if(ultimaTecla==_TICK){ 
4AE8:  MOVF   1B,W
4AEA:  SUBLW  0B
4AEC:  BNZ   4B5E
....................                ultimaTecla=_VISTO; 
4AEE:  MOVLW  0C
4AF0:  MOVWF  1B
....................                write_eeprom(0x00,~(((~read_eeprom(0x00))&(~3))|1)); 
4AF2:  MOVFF  FF2,1C4
4AF6:  BCF    FF2.7
4AF8:  CLRF   FA9
4AFA:  BCF    FA6.6
4AFC:  BCF    FA6.7
4AFE:  BSF    FA6.0
4B00:  MOVF   FA8,W
4B02:  MOVLB  1
4B04:  BTFSC  xC4.7
4B06:  BSF    FF2.7
4B08:  XORLW  FF
4B0A:  ANDLW  FC
4B0C:  IORLW  01
4B0E:  XORLW  FF
4B10:  MOVWF  xC5
4B12:  MOVF   FF2,W
4B14:  MOVWF  00
4B16:  BCF    FF2.7
4B18:  CLRF   FA9
4B1A:  MOVFF  1C5,FA8
4B1E:  BCF    FA6.6
4B20:  BCF    FA6.7
4B22:  BSF    FA6.2
4B24:  MOVLB  F
4B26:  MOVLW  55
4B28:  MOVWF  FA7
4B2A:  MOVLW  AA
4B2C:  MOVWF  FA7
4B2E:  BSF    FA6.1
4B30:  BTFSC  FA6.1
4B32:  BRA    4B30
4B34:  BCF    FA6.2
4B36:  MOVF   00,W
4B38:  IORWF  FF2,F
....................                config=~read_eeprom(0x00); 
4B3A:  MOVFF  FF2,1C4
4B3E:  BCF    FF2.7
4B40:  CLRF   FA9
4B42:  BCF    FA6.6
4B44:  BCF    FA6.7
4B46:  BSF    FA6.0
4B48:  MOVF   FA8,W
4B4A:  MOVLB  1
4B4C:  BTFSC  xC4.7
4B4E:  BSF    FF2.7
4B50:  XORLW  FF
4B52:  MOVWF  1A
....................                printIdioma(); 
4B54:  MOVLB  0
4B56:  RCALL  493A
....................                return _Config_Idioma_Volver; 
4B58:  MOVLW  1B
4B5A:  MOVWF  01
4B5C:  BRA    4B60
....................                  
....................             } 
4B5E:  BRA    4AD8
....................          } 
4B60:  GOTO   744C (RETURN)
....................       } 
....................       int Config_Idioma_Fr(){ 
....................          Cursor(5,9); 
4B64:  MOVLW  05
4B66:  MOVLB  1
4B68:  MOVWF  xD7
4B6A:  MOVLW  09
4B6C:  MOVWF  xD8
4B6E:  MOVLB  0
4B70:  CALL   2280
....................          while(1){ 
....................             if(ultimaTecla==_X){ 
4B74:  MOVF   1B,W
4B76:  SUBLW  0A
4B78:  BNZ   4B84
....................                ultimaTecla=_VISTO; 
4B7A:  MOVLW  0C
4B7C:  MOVWF  1B
....................                return _Config_Idioma_Ru; 
4B7E:  MOVLW  1A
4B80:  MOVWF  01
4B82:  BRA    4BFC
....................                  
....................             } 
....................             if(ultimaTecla==_TICK){ 
4B84:  MOVF   1B,W
4B86:  SUBLW  0B
4B88:  BNZ   4BFA
....................                ultimaTecla=_VISTO; 
4B8A:  MOVLW  0C
4B8C:  MOVWF  1B
....................                write_eeprom(0x00,~(((~read_eeprom(0x00))&(~3))|2)); 
4B8E:  MOVFF  FF2,1C4
4B92:  BCF    FF2.7
4B94:  CLRF   FA9
4B96:  BCF    FA6.6
4B98:  BCF    FA6.7
4B9A:  BSF    FA6.0
4B9C:  MOVF   FA8,W
4B9E:  MOVLB  1
4BA0:  BTFSC  xC4.7
4BA2:  BSF    FF2.7
4BA4:  XORLW  FF
4BA6:  ANDLW  FC
4BA8:  IORLW  02
4BAA:  XORLW  FF
4BAC:  MOVWF  xC5
4BAE:  MOVF   FF2,W
4BB0:  MOVWF  00
4BB2:  BCF    FF2.7
4BB4:  CLRF   FA9
4BB6:  MOVFF  1C5,FA8
4BBA:  BCF    FA6.6
4BBC:  BCF    FA6.7
4BBE:  BSF    FA6.2
4BC0:  MOVLB  F
4BC2:  MOVLW  55
4BC4:  MOVWF  FA7
4BC6:  MOVLW  AA
4BC8:  MOVWF  FA7
4BCA:  BSF    FA6.1
4BCC:  BTFSC  FA6.1
4BCE:  BRA    4BCC
4BD0:  BCF    FA6.2
4BD2:  MOVF   00,W
4BD4:  IORWF  FF2,F
....................                config=~read_eeprom(0x00); 
4BD6:  MOVFF  FF2,1C4
4BDA:  BCF    FF2.7
4BDC:  CLRF   FA9
4BDE:  BCF    FA6.6
4BE0:  BCF    FA6.7
4BE2:  BSF    FA6.0
4BE4:  MOVF   FA8,W
4BE6:  MOVLB  1
4BE8:  BTFSC  xC4.7
4BEA:  BSF    FF2.7
4BEC:  XORLW  FF
4BEE:  MOVWF  1A
....................                printIdioma(); 
4BF0:  MOVLB  0
4BF2:  RCALL  493A
....................                return _Config_Idioma_Volver; 
4BF4:  MOVLW  1B
4BF6:  MOVWF  01
4BF8:  BRA    4BFC
....................                  
....................             } 
4BFA:  BRA    4B74
....................          } 
4BFC:  GOTO   7458 (RETURN)
....................       } 
....................       int Config_Idioma_Ru(){ 
....................          Cursor(5,11); 
4C00:  MOVLW  05
4C02:  MOVLB  1
4C04:  MOVWF  xD7
4C06:  MOVLW  0B
4C08:  MOVWF  xD8
4C0A:  MOVLB  0
4C0C:  CALL   2280
....................          while(1){ 
....................             if(ultimaTecla==_X){ 
4C10:  MOVF   1B,W
4C12:  SUBLW  0A
4C14:  BNZ   4C20
....................                ultimaTecla=_VISTO; 
4C16:  MOVLW  0C
4C18:  MOVWF  1B
....................                return _Config_Idioma_Volver; 
4C1A:  MOVLW  1B
4C1C:  MOVWF  01
4C1E:  BRA    4C98
....................                  
....................             } 
....................             if(ultimaTecla==_TICK){ 
4C20:  MOVF   1B,W
4C22:  SUBLW  0B
4C24:  BNZ   4C96
....................                ultimaTecla=_VISTO; 
4C26:  MOVLW  0C
4C28:  MOVWF  1B
....................                write_eeprom(0x00,~(((~read_eeprom(0x00))&(~3))|3)); 
4C2A:  MOVFF  FF2,1C4
4C2E:  BCF    FF2.7
4C30:  CLRF   FA9
4C32:  BCF    FA6.6
4C34:  BCF    FA6.7
4C36:  BSF    FA6.0
4C38:  MOVF   FA8,W
4C3A:  MOVLB  1
4C3C:  BTFSC  xC4.7
4C3E:  BSF    FF2.7
4C40:  XORLW  FF
4C42:  ANDLW  FC
4C44:  IORLW  03
4C46:  XORLW  FF
4C48:  MOVWF  xC5
4C4A:  MOVF   FF2,W
4C4C:  MOVWF  00
4C4E:  BCF    FF2.7
4C50:  CLRF   FA9
4C52:  MOVFF  1C5,FA8
4C56:  BCF    FA6.6
4C58:  BCF    FA6.7
4C5A:  BSF    FA6.2
4C5C:  MOVLB  F
4C5E:  MOVLW  55
4C60:  MOVWF  FA7
4C62:  MOVLW  AA
4C64:  MOVWF  FA7
4C66:  BSF    FA6.1
4C68:  BTFSC  FA6.1
4C6A:  BRA    4C68
4C6C:  BCF    FA6.2
4C6E:  MOVF   00,W
4C70:  IORWF  FF2,F
....................                config=~read_eeprom(0x00); 
4C72:  MOVFF  FF2,1C4
4C76:  BCF    FF2.7
4C78:  CLRF   FA9
4C7A:  BCF    FA6.6
4C7C:  BCF    FA6.7
4C7E:  BSF    FA6.0
4C80:  MOVF   FA8,W
4C82:  MOVLB  1
4C84:  BTFSC  xC4.7
4C86:  BSF    FF2.7
4C88:  XORLW  FF
4C8A:  MOVWF  1A
....................                printIdioma(); 
4C8C:  MOVLB  0
4C8E:  RCALL  493A
....................                return _Config_Idioma_Volver; 
4C90:  MOVLW  1B
4C92:  MOVWF  01
4C94:  BRA    4C98
....................                  
....................             } 
4C96:  BRA    4C10
....................          } 
4C98:  GOTO   7464 (RETURN)
....................       } 
....................       int Config_Idioma_Volver(){ 
....................          Cursor(5,13); 
4C9C:  MOVLW  05
4C9E:  MOVLB  1
4CA0:  MOVWF  xD7
4CA2:  MOVLW  0D
4CA4:  MOVWF  xD8
4CA6:  MOVLB  0
4CA8:  CALL   2280
....................          while(1){ 
....................             if(ultimaTecla==_X){ 
4CAC:  MOVF   1B,W
4CAE:  SUBLW  0A
4CB0:  BNZ   4CBC
....................                ultimaTecla=_VISTO; 
4CB2:  MOVLW  0C
4CB4:  MOVWF  1B
....................                return _Config_Idioma_Es; 
4CB6:  MOVLW  17
4CB8:  MOVWF  01
4CBA:  BRA    4CD2
....................                  
....................             } 
....................             if(ultimaTecla==_TICK){ 
4CBC:  MOVF   1B,W
4CBE:  SUBLW  0B
4CC0:  BNZ   4CD0
....................                ultimaTecla=_VISTO; 
4CC2:  MOVLW  0C
4CC4:  MOVWF  1B
....................                printConfiguracion(); 
4CC6:  CALL   3F8A
....................                return _Config_Idioma; 
4CCA:  MOVLW  16
4CCC:  MOVWF  01
4CCE:  BRA    4CD2
....................                  
....................             } 
4CD0:  BRA    4CAC
....................          } 
4CD2:  GOTO   7470 (RETURN)
....................       } 
....................    int Config_Volver(){ 
....................       Cursor(2,9); 
4CD6:  MOVLW  02
4CD8:  MOVLB  1
4CDA:  MOVWF  xD7
4CDC:  MOVLW  09
4CDE:  MOVWF  xD8
4CE0:  MOVLB  0
4CE2:  CALL   2280
....................       while(1){ 
....................          if(ultimaTecla==_X){ 
4CE6:  MOVF   1B,W
4CE8:  SUBLW  0A
4CEA:  BNZ   4CF6
....................             ultimaTecla=_VISTO; 
4CEC:  MOVLW  0C
4CEE:  MOVWF  1B
....................             return _Config_Tiempo; 
4CF0:  MOVLW  08
4CF2:  MOVWF  01
4CF4:  BRA    4D0C
....................               
....................          } 
....................          if(ultimaTecla==_TICK){ 
4CF6:  MOVF   1B,W
4CF8:  SUBLW  0B
4CFA:  BNZ   4D0A
....................             ultimaTecla=_VISTO; 
4CFC:  MOVLW  0C
4CFE:  MOVWF  1B
....................             printMenuPrincipal(); 
4D00:  CALL   2168
....................             return _Configuracion; 
4D04:  MOVLW  07
4D06:  MOVWF  01
4D08:  BRA    4D0C
....................               
....................          } 
4D0A:  BRA    4CE6
....................       } 
4D0C:  GOTO   747C (RETURN)
....................    } 
.................... int CargarPunto(int *nPuntos,struct Punto *Curva){ 
*
5AE4:  MOVLB  1
5AE6:  CLRF   xCA
5AE8:  CLRF   xCC
5AEA:  CLRF   xCB
5AEC:  MOVLW  43
5AEE:  MOVWF  xCD
....................    int temp=0; 
....................    long tiempo=0; 
....................    char unidad='C'; 
....................    if((config&4)>>2)unidad='F'; 
5AF0:  MOVF   1A,W
5AF2:  ANDLW  04
5AF4:  MOVWF  00
5AF6:  RRCF   00,F
5AF8:  RRCF   00,F
5AFA:  MOVLW  3F
5AFC:  ANDWF  00,F
5AFE:  MOVF   00,W
5B00:  BZ    5B06
5B02:  MOVLW  46
5B04:  MOVWF  xCD
....................    int subestado=_CargarTemperatura; 
5B06:  MOVLW  64
5B08:  MOVWF  xCE
....................    tft_gotoxy(0,1); 
5B0A:  CLRF   xF6
5B0C:  MOVLW  01
5B0E:  MOVWF  xF7
5B10:  MOVLB  0
5B12:  CALL   10DE
....................    switch(config&0x03){ 
5B16:  MOVF   1A,W
5B18:  ANDLW  03
5B1A:  ADDLW  FC
5B1C:  BC    5B5A
5B1E:  ADDLW  04
5B20:  GOTO   5CC8
....................       case 0: 
....................          printf(tft_putc,"PUNTO"); 
5B24:  MOVLW  D2
5B26:  MOVWF  FF6
5B28:  MOVLW  0A
5B2A:  MOVWF  FF7
5B2C:  CALL   1398
....................          break; 
5B30:  BRA    5B5A
....................       case 1: 
....................          printf(tft_putc,"POINT"); 
5B32:  MOVLW  D8
5B34:  MOVWF  FF6
5B36:  MOVLW  0A
5B38:  MOVWF  FF7
5B3A:  CALL   1398
....................          break; 
5B3E:  BRA    5B5A
....................       case 2: 
....................          printf(tft_putc,"POINT"); 
5B40:  MOVLW  DE
5B42:  MOVWF  FF6
5B44:  MOVLW  0A
5B46:  MOVWF  FF7
5B48:  CALL   1398
....................          break; 
5B4C:  BRA    5B5A
....................       case 3: 
....................          printf(tft_putc,"TOKA"); 
5B4E:  MOVLW  E4
5B50:  MOVWF  FF6
5B52:  MOVLW  0A
5B54:  MOVWF  FF7
5B56:  CALL   1398
....................          break; 
....................    } 
....................    printf(tft_putc," %d:",*nPuntos); 
5B5A:  MOVFF  1C7,03
5B5E:  MOVLB  1
5B60:  MOVFF  1C6,FE9
5B64:  MOVFF  1C7,FEA
5B68:  MOVFF  FEF,1CF
5B6C:  MOVLW  20
5B6E:  MOVWF  xF5
5B70:  MOVLB  0
5B72:  CALL   121A
5B76:  MOVFF  1CF,1D0
5B7A:  MOVLW  18
5B7C:  MOVLB  1
5B7E:  MOVWF  xD1
5B80:  MOVLB  0
5B82:  CALL   38CE
5B86:  MOVLW  3A
5B88:  MOVLB  1
5B8A:  MOVWF  xF5
5B8C:  MOVLB  0
5B8E:  CALL   121A
....................    fillRect(X,10,_width-30-X,8,BG_COLOR); 
5B92:  MOVLW  1E
5B94:  MOVLB  1
5B96:  SUBWF  x72,W
5B98:  BSF    FD8.0
5B9A:  SUBFWB x7D,W
5B9C:  MOVWF  xCF
5B9E:  MOVLB  2
5BA0:  CLRF   x02
5BA2:  MOVFF  17D,201
5BA6:  MOVLW  0A
5BA8:  MOVWF  x03
5BAA:  MOVFF  1CF,204
5BAE:  MOVLW  08
5BB0:  MOVWF  x05
5BB2:  MOVFF  171,207
5BB6:  MOVFF  170,206
5BBA:  MOVLB  0
5BBC:  CALL   0EEC
....................    tft_gotoxy(X_MAX-1,0); 
5BC0:  MOVLW  01
5BC2:  MOVLB  1
5BC4:  SUBWF  x79,W
5BC6:  MOVWF  xCF
5BC8:  MOVWF  xF6
5BCA:  CLRF   xF7
5BCC:  MOVLB  0
5BCE:  CALL   10DE
....................    printf(tft_putc,"%c",unidad); 
5BD2:  MOVLW  B0
5BD4:  MOVLB  1
5BD6:  MOVWF  xF5
5BD8:  MOVLB  0
5BDA:  CALL   121A
5BDE:  MOVFF  1CD,1F5
5BE2:  CALL   121A
....................    print_temp(0); 
5BE6:  MOVLB  1
5BE8:  CLRF   xD7
5BEA:  CLRF   xD6
5BEC:  MOVLB  0
5BEE:  CALL   4D10
....................    print_tiempo(0); 
5BF2:  MOVLB  1
5BF4:  CLRF   xD5
5BF6:  CLRF   xD4
5BF8:  MOVLB  0
5BFA:  CALL   4E58
....................    tecl_mode(escaneo); 
5BFE:  MOVLW  01
5C00:  MOVLB  1
5C02:  MOVWF  xDA
5C04:  MOVLB  0
5C06:  CALL   141E
....................    while(1){ 
....................       switch(subestado){ 
5C0A:  MOVLB  1
5C0C:  MOVF   xCE,W
5C0E:  XORLW  64
5C10:  MOVLB  0
5C12:  BZ    5C26
5C14:  XORLW  01
5C16:  BZ    5C44
5C18:  XORLW  03
5C1A:  BZ    5C5A
5C1C:  XORLW  01
5C1E:  BZ    5C70
5C20:  XORLW  0F
5C22:  BZ    5C86
5C24:  BRA    5CB4
....................          case _CargarTemperatura: 
....................             subestado=CargarTemperatura(&temp,nPuntos); 
5C26:  MOVLW  01
5C28:  MOVLB  1
5C2A:  MOVWF  xD0
5C2C:  MOVLW  CA
5C2E:  MOVWF  xCF
5C30:  MOVFF  1C7,1D2
5C34:  MOVFF  1C6,1D1
5C38:  MOVLB  0
5C3A:  GOTO   4F50
5C3E:  MOVFF  01,1CE
....................             break; 
5C42:  BRA    5CBE
....................          case _CargarMinutos: 
....................             subestado=CargarMinutos(&tiempo); 
5C44:  MOVLW  01
5C46:  MOVLB  1
5C48:  MOVWF  xD0
5C4A:  MOVLW  CB
5C4C:  MOVWF  xCF
5C4E:  MOVLB  0
5C50:  GOTO   51D0
5C54:  MOVFF  01,1CE
....................             break; 
5C58:  BRA    5CBE
....................          case _CargarSegundos: 
....................             subestado=CargarSegundos(&tiempo); 
5C5A:  MOVLW  01
5C5C:  MOVLB  1
5C5E:  MOVWF  xD0
5C60:  MOVLW  CB
5C62:  MOVWF  xCF
5C64:  MOVLB  0
5C66:  GOTO   536A
5C6A:  MOVFF  01,1CE
....................             break; 
5C6E:  BRA    5CBE
....................          case _CargarTiempo: 
....................             subestado=CargarTiempo(&tiempo); 
5C70:  MOVLW  01
5C72:  MOVLB  1
5C74:  MOVWF  xD0
5C76:  MOVLW  CB
5C78:  MOVWF  xCF
5C7A:  MOVLB  0
5C7C:  GOTO   5452
5C80:  MOVFF  01,1CE
....................             break; 
5C84:  BRA    5CBE
....................          case _CheckearSiValido: 
....................             subestado=CheckearSiValido(tiempo, temp, *nPuntos, Curva); 
5C86:  MOVFF  1C7,03
5C8A:  MOVFF  1C6,FE9
5C8E:  MOVFF  1C7,FEA
5C92:  MOVFF  FEF,1D3
5C96:  MOVFF  1CC,1D1
5C9A:  MOVFF  1CB,1D0
5C9E:  MOVFF  1CA,1D2
5CA2:  MOVFF  1C9,1D5
5CA6:  MOVFF  1C8,1D4
5CAA:  MOVLB  0
5CAC:  BRA    5992
5CAE:  MOVFF  01,1CE
....................             break; 
5CB2:  BRA    5CBE
....................          default: 
....................             return subestado; 
5CB4:  MOVLB  1
5CB6:  MOVFF  1CE,01
5CBA:  BRA    5CC2
5CBC:  MOVLB  0
....................       } 
5CBE:  BRA    5C0A
5CC0:  MOVLB  1
....................    } 
5CC2:  MOVLB  0
5CC4:  GOTO   749C (RETURN)
.................... } 
.................... int Iniciar(int *nPuntos,struct Punto *Curva){ 
....................    fillRect(X_BEGIN,Y_BEGIN-8,_width,16,BG_COLOR); 
*
5D60:  MOVLW  08
5D62:  MOVLB  1
5D64:  SUBWF  x7C,W
5D66:  MOVWF  xCA
5D68:  MOVLB  2
5D6A:  CLRF   x02
5D6C:  MOVFF  17A,201
5D70:  MOVWF  x03
5D72:  MOVFF  172,204
5D76:  MOVLW  10
5D78:  MOVWF  x05
5D7A:  MOVFF  171,207
5D7E:  MOVFF  170,206
5D82:  MOVLB  0
5D84:  CALL   0EEC
....................    tft_gotoxy(0,0); 
5D88:  MOVLB  1
5D8A:  CLRF   xF6
5D8C:  CLRF   xF7
5D8E:  MOVLB  0
5D90:  CALL   10DE
....................    printIniciar(); 
5D94:  BRA    5CEA
....................    while(1){ 
....................       if(ultimaTecla==_X){ 
5D96:  MOVF   1B,W
5D98:  SUBLW  0A
5D9A:  BNZ   5DB6
....................          ultimaTecla=_VISTO; 
5D9C:  MOVLW  0C
5D9E:  MOVWF  1B
....................          *nPuntos=1; 
5DA0:  MOVLB  1
5DA2:  MOVFF  1C6,FE9
5DA6:  MOVFF  1C7,FEA
5DAA:  MOVLW  01
5DAC:  MOVWF  FEF
....................          return _SeleccionDePerfil; 
5DAE:  MOVLW  00
5DB0:  MOVWF  01
5DB2:  BRA    5E60
5DB4:  MOVLB  0
....................            
....................       } 
....................       if(ultimaTecla==_TICK){ 
5DB6:  MOVF   1B,W
5DB8:  SUBLW  0B
5DBA:  BNZ   5E5C
....................          ultimaTecla=_VISTO; 
5DBC:  MOVLW  0C
5DBE:  MOVWF  1B
....................          Graf(*nPuntos, Curva, 0); 
5DC0:  MOVFF  1C7,03
5DC4:  MOVLB  1
5DC6:  MOVFF  1C6,FE9
5DCA:  MOVFF  1C7,FEA
5DCE:  MOVFF  FEF,1DD
5DD2:  MOVFF  1C9,1DF
5DD6:  MOVFF  1C8,1DE
5DDA:  CLRF   xE0
5DDC:  MOVLB  0
5DDE:  CALL   2936
....................          if((config&0xE0)!=((~read_eeprom(0x00))&0xE0)) write_eeprom(0x00,~(((~read_eeprom(0x00))&(~0xE0))|(config&0xE0))); 
5DE2:  MOVF   1A,W
5DE4:  ANDLW  E0
5DE6:  MOVLB  1
5DE8:  MOVWF  xCA
5DEA:  MOVFF  FF2,1CB
5DEE:  BCF    FF2.7
5DF0:  CLRF   FA9
5DF2:  BCF    FA6.6
5DF4:  BCF    FA6.7
5DF6:  BSF    FA6.0
5DF8:  MOVF   FA8,W
5DFA:  BTFSC  xCB.7
5DFC:  BSF    FF2.7
5DFE:  XORLW  FF
5E00:  ANDLW  E0
5E02:  SUBWF  xCA,W
5E04:  BZ    5E54
5E06:  MOVFF  FF2,1CA
5E0A:  BCF    FF2.7
5E0C:  CLRF   FA9
5E0E:  BCF    FA6.6
5E10:  BCF    FA6.7
5E12:  BSF    FA6.0
5E14:  MOVF   FA8,W
5E16:  BTFSC  xCA.7
5E18:  BSF    FF2.7
5E1A:  XORLW  FF
5E1C:  ANDLW  1F
5E1E:  MOVWF  xCB
5E20:  MOVF   1A,W
5E22:  ANDLW  E0
5E24:  IORWF  xCB,W
5E26:  XORLW  FF
5E28:  MOVWF  xCB
5E2A:  MOVF   FF2,W
5E2C:  MOVWF  00
5E2E:  BCF    FF2.7
5E30:  CLRF   FA9
5E32:  MOVFF  1CB,FA8
5E36:  BCF    FA6.6
5E38:  BCF    FA6.7
5E3A:  BSF    FA6.2
5E3C:  MOVLB  F
5E3E:  MOVLW  55
5E40:  MOVWF  FA7
5E42:  MOVLW  AA
5E44:  MOVWF  FA7
5E46:  BSF    FA6.1
5E48:  BTFSC  FA6.1
5E4A:  BRA    5E48
5E4C:  BCF    FA6.2
5E4E:  MOVF   00,W
5E50:  IORWF  FF2,F
5E52:  MOVLB  1
....................          return _Soldando; 
5E54:  MOVLW  21
5E56:  MOVWF  01
5E58:  BRA    5E60
5E5A:  MOVLB  0
....................            
....................       } 
5E5C:  BRA    5D96
5E5E:  MOVLB  1
....................    } 
5E60:  MOVLB  0
5E62:  GOTO   74BC (RETURN)
.................... } 
.................... int PuntoNoValido(){ 
....................    tecl_mode(escaneo); 
5E66:  MOVLW  01
5E68:  MOVLB  1
5E6A:  MOVWF  xDA
5E6C:  MOVLB  0
5E6E:  CALL   141E
....................    disable_interrupts(global); 
5E72:  BCF    FF2.6
5E74:  BCF    FF2.7
5E76:  BTFSC  FF2.7
5E78:  BRA    5E74
....................    tft_gotoxy(0,1); 
5E7A:  MOVLB  1
5E7C:  CLRF   xF6
5E7E:  MOVLW  01
5E80:  MOVWF  xF7
5E82:  MOVLB  0
5E84:  CALL   10DE
....................    switch(config&0x03){ 
5E88:  MOVF   1A,W
5E8A:  ANDLW  03
5E8C:  ADDLW  FC
5E8E:  BC    5ECC
5E90:  ADDLW  04
5E92:  GOTO   5F0E
....................       case 0: 
....................          printf(tft_putc,"PUNTO NO VALIDO"); 
5E96:  MOVLW  EA
5E98:  MOVWF  FF6
5E9A:  MOVLW  0A
5E9C:  MOVWF  FF7
5E9E:  CALL   1398
....................          break; 
5EA2:  BRA    5ECC
....................       case 1: 
....................          printf(tft_putc,"POINT NOT VALID"); 
5EA4:  MOVLW  FA
5EA6:  MOVWF  FF6
5EA8:  MOVLW  0A
5EAA:  MOVWF  FF7
5EAC:  CALL   1398
....................          break; 
5EB0:  BRA    5ECC
....................       case 2: 
....................          printf(tft_putc,"POINT NON VALIDE"); 
5EB2:  MOVLW  0A
5EB4:  MOVWF  FF6
5EB6:  MOVLW  0B
5EB8:  MOVWF  FF7
5EBA:  CALL   1398
....................          break; 
5EBE:  BRA    5ECC
....................       case 3: 
....................          printf(tft_putc,"TOKA HE\nE]CTB\\TEHA"); 
5EC0:  MOVLW  1C
5EC2:  MOVWF  FF6
5EC4:  MOVLW  0B
5EC6:  MOVWF  FF7
5EC8:  CALL   1398
....................          break; 
....................    } 
....................    tft_gotoxy(X_MAX-5,1); 
5ECC:  MOVLW  05
5ECE:  MOVLB  1
5ED0:  SUBWF  x79,W
5ED2:  MOVWF  xC4
5ED4:  MOVWF  xF6
5ED6:  MOVLW  01
5ED8:  MOVWF  xF7
5EDA:  MOVLB  0
5EDC:  CALL   10DE
....................    printf(tft_putc," "); 
5EE0:  MOVLW  20
5EE2:  MOVLB  1
5EE4:  MOVWF  xF5
5EE6:  MOVLB  0
5EE8:  CALL   121A
....................    enable_interrupts(global); 
5EEC:  MOVLW  C0
5EEE:  IORWF  FF2,F
....................    while(ultimaTecla==_VISTO){} 
5EF0:  MOVF   1B,W
5EF2:  SUBLW  0C
5EF4:  BTFSC  FD8.2
5EF6:  BRA    5EF0
....................    ultimaTecla=_VISTO; 
5EF8:  MOVLW  0C
5EFA:  MOVWF  1B
....................    tecl_mode(estatico); 
5EFC:  MOVLB  1
5EFE:  CLRF   xDA
5F00:  MOVLB  0
5F02:  CALL   141E
....................    return _CargarPunto; 
5F06:  MOVLW  1D
5F08:  MOVWF  01
5F0A:  GOTO   74C8 (RETURN)
....................         
.................... } 
.................... int OtroPunto(int *nPuntos, struct Punto *Curva){ 
*
5FBE:  MOVF   1A,W
5FC0:  ANDLW  E0
5FC2:  MOVWF  00
5FC4:  SWAPF  00,W
5FC6:  MOVLB  1
5FC8:  MOVWF  xCA
5FCA:  RRCF   xCA,F
5FCC:  MOVLW  07
5FCE:  ANDWF  xCA,F
....................    int nPerfil=(config&0xE0)>>5; 
....................    tft_gotoxy(0,1); 
5FD0:  CLRF   xF6
5FD2:  MOVLW  01
5FD4:  MOVWF  xF7
5FD6:  MOVLB  0
5FD8:  CALL   10DE
....................    printOtroPunto();  
5FDC:  BRA    5F30
....................    tft_gotoxy(X_MAX-5,1); 
5FDE:  MOVLW  05
5FE0:  MOVLB  1
5FE2:  SUBWF  x79,W
5FE4:  MOVWF  xCB
5FE6:  MOVWF  xF6
5FE8:  MOVLW  01
5FEA:  MOVWF  xF7
5FEC:  MOVLB  0
5FEE:  CALL   10DE
....................    printf(tft_putc," ");  
5FF2:  MOVLW  20
5FF4:  MOVLB  1
5FF6:  MOVWF  xF5
5FF8:  MOVLB  0
5FFA:  CALL   121A
....................    while(1){ 
....................       if(ultimaTecla==_X){ 
5FFE:  MOVF   1B,W
6000:  SUBLW  0A
6002:  BNZ   602E
....................          ultimaTecla=_VISTO; 
6004:  MOVLW  0C
6006:  MOVWF  1B
....................          return guardarPuntos(nPerfil,*nPuntos,Curva);  
6008:  MOVFF  1C7,03
600C:  MOVFF  1C6,FE9
6010:  MOVFF  1C7,FEA
6014:  MOVFF  FEF,1DB
6018:  MOVFF  1CA,1DA
601C:  MOVFF  1C9,1DD
6020:  MOVFF  1C8,1DC
6024:  MOVLB  0
6026:  CALL   558A
602A:  MOVF   01,W
602C:  BRA    604E
....................       } 
....................       if(ultimaTecla==_TICK){ 
602E:  MOVF   1B,W
6030:  SUBLW  0B
6032:  BNZ   604C
....................          ultimaTecla=_VISTO; 
6034:  MOVLW  0C
6036:  MOVWF  1B
....................          (*nPuntos)++; 
6038:  MOVLB  1
603A:  MOVFF  1C6,FE9
603E:  MOVFF  1C7,FEA
6042:  INCF   FEF,F
....................          return _CargarPunto; 
6044:  MOVLW  1D
6046:  MOVWF  01
6048:  MOVLB  0
604A:  BRA    604E
....................       } 
604C:  BRA    5FFE
....................    }   
604E:  GOTO   74E8 (RETURN)
.................... } 
.................... int Soldando(int nPuntos, struct punto *Curva){ 
....................    printSoldando(); //No solo imprime tmb in habilita el tick 
*
6410:  RCALL  6052
....................    //Varibles para el seguimiento e inicializacion de los modulos 
....................    int1 EtapaEnCurso, TemperauraNoAlcanzada, SoldandoEnPantalla = TRUE; 
....................    float Temp, K; 
6412:  MOVLB  1
6414:  BSF    xC8.2
....................    timer1_init(); 
6416:  MOVLB  0
6418:  BRA    6106
....................    K=(freq)/(4*65536*presc); //Frecuencia de saturacion del Timer1 
641A:  MOVLB  1
641C:  CLRF   xD0
641E:  CLRF   xCF
6420:  MOVLW  60
6422:  MOVWF  xCE
6424:  MOVLW  81
6426:  MOVWF  xCD
....................    adc_init(); 
6428:  MOVLB  0
642A:  CALL   1EC6
642E:  CLRF   19
6430:  BTFSC  FF2.7
6432:  BSF    19.7
6434:  BCF    FF2.7
....................    delay_ms(1); 
6436:  MOVLW  01
6438:  MOVLB  2
643A:  MOVWF  x22
643C:  MOVLB  0
643E:  CALL   00D2
6442:  BTFSC  19.7
6444:  BSF    FF2.7
....................    Temp=MedirTemp(); 
6446:  RCALL  6116
6448:  MOVFF  03,1CC
644C:  MOVFF  02,1CB
6450:  MOVFF  01,1CA
6454:  MOVFF  00,1C9
6458:  CLRF   19
645A:  BTFSC  FF2.7
645C:  BSF    19.7
645E:  BCF    FF2.7
....................    delay_ms(1); 
6460:  MOVLW  01
6462:  MOVLB  2
6464:  MOVWF  x22
6466:  MOVLB  0
6468:  CALL   00D2
646C:  BTFSC  19.7
646E:  BSF    FF2.7
....................    Setpoint=Temp; 
6470:  MOVFF  1CC,24
6474:  MOVFF  1CB,23
6478:  MOVFF  1CA,22
647C:  MOVFF  1C9,21
....................    //Variables dibujo 
....................    long contTotal=0,prevCont=0, Pixel_X=0; 
....................    int yM=(_height-13), xM=(_width-30); 
....................    struct Punto Max; 
6480:  MOVLB  1
6482:  CLRF   xD2
6484:  CLRF   xD1
6486:  CLRF   xD4
6488:  CLRF   xD3
648A:  CLRF   xD6
648C:  CLRF   xD5
648E:  MOVLW  0D
6490:  SUBWF  x73,W
6492:  MOVWF  xD7
6494:  MOVLW  1E
6496:  SUBWF  x72,W
6498:  MOVWF  xD8
....................    Max.Tiempo = 0; 
649A:  CLRF   xDB
649C:  CLRF   xDA
....................    Max.Temperatura = 0; 
649E:  CLRF   xD9
....................    for(int i=0; i<nPuntos; i++){ 
64A0:  CLRF   xDC
64A2:  MOVF   xC5,W
64A4:  SUBWF  xDC,W
64A6:  BC    6542
....................       if(Curva[i].Temperatura>Max.Temperatura)Max.Temperatura=Curva[i].Temperatura; 
64A8:  MOVLB  2
64AA:  CLRF   x07
64AC:  MOVFF  1DC,206
64B0:  CLRF   x09
64B2:  MOVLW  03
64B4:  MOVWF  x08
64B6:  MOVLB  0
64B8:  CALL   10F8
64BC:  MOVFF  02,1E7
64C0:  MOVFF  01,1E6
64C4:  MOVLB  1
64C6:  MOVF   xC6,W
64C8:  ADDWF  01,W
64CA:  MOVWF  FE9
64CC:  MOVF   xC7,W
64CE:  ADDWFC 02,W
64D0:  MOVWF  FEA
64D2:  MOVF   FEF,W
64D4:  SUBWF  xD9,W
64D6:  BC    64FE
64D8:  MOVLB  2
64DA:  CLRF   x07
64DC:  MOVFF  1DC,206
64E0:  CLRF   x09
64E2:  MOVLW  03
64E4:  MOVWF  x08
64E6:  MOVLB  0
64E8:  CALL   10F8
64EC:  MOVLB  1
64EE:  MOVF   xC6,W
64F0:  ADDWF  01,W
64F2:  MOVWF  FE9
64F4:  MOVF   xC7,W
64F6:  ADDWFC 02,W
64F8:  MOVWF  FEA
64FA:  MOVFF  FEF,1D9
....................       Max.Tiempo += Curva[i].Tiempo; 
64FE:  MOVLB  2
6500:  CLRF   x07
6502:  MOVFF  1DC,206
6506:  CLRF   x09
6508:  MOVLW  03
650A:  MOVWF  x08
650C:  MOVLB  0
650E:  CALL   10F8
6512:  MOVFF  01,1E6
6516:  MOVLW  01
6518:  MOVLB  1
651A:  ADDWF  01,W
651C:  MOVWF  01
651E:  MOVLW  00
6520:  ADDWFC 02,W
6522:  MOVWF  03
6524:  MOVF   01,W
6526:  ADDWF  xC6,W
6528:  MOVWF  FE9
652A:  MOVF   xC7,W
652C:  ADDWFC 03,W
652E:  MOVWF  FEA
6530:  MOVFF  FEC,03
6534:  MOVF   FED,F
6536:  MOVF   FEF,W
6538:  ADDWF  xDA,F
653A:  MOVF   03,W
653C:  ADDWFC xDB,F
653E:  INCF   xDC,F
6540:  BRA    64A2
....................    } 
....................    float prev_y=yM; 
....................    float Kd=(float)(xM-1)/Max.Tiempo; //Pixeles/segundo 
6542:  MOVLB  2
6544:  CLRF   x06
6546:  MOVFF  1D7,205
654A:  MOVLB  0
654C:  CALL   147E
6550:  MOVFF  03,1E0
6554:  MOVFF  02,1DF
6558:  MOVFF  01,1DE
655C:  MOVFF  00,1DD
6560:  MOVLW  01
6562:  MOVLB  1
6564:  SUBWF  xD8,W
6566:  MOVLB  2
6568:  CLRF   x06
656A:  MOVWF  x05
656C:  MOVLB  0
656E:  CALL   147E
6572:  MOVFF  03,1E9
6576:  MOVFF  02,1E8
657A:  MOVFF  01,1E7
657E:  MOVFF  00,1E6
6582:  MOVFF  1DB,206
6586:  MOVFF  1DA,205
658A:  CALL   147E
658E:  MOVFF  1E9,206
6592:  MOVFF  1E8,205
6596:  MOVFF  1E7,204
659A:  MOVFF  1E6,203
659E:  MOVFF  03,20A
65A2:  MOVFF  02,209
65A6:  MOVFF  01,208
65AA:  MOVFF  00,207
65AE:  CALL   14B4
65B2:  MOVFF  03,1E4
65B6:  MOVFF  02,1E3
65BA:  MOVFF  01,1E2
65BE:  MOVFF  00,1E1
....................    //Bucle de soldado 
....................    for(int i=0; i<nPuntos; i++){ 
65C2:  MOVLB  1
65C4:  CLRF   xE5
65C6:  MOVF   xC5,W
65C8:  SUBWF  xE5,W
65CA:  BTFSC  FD8.0
65CC:  GOTO   6E3C
....................       //Determinar el delta termico de la etapa 
....................       dt=((float)Curva[i].Temperatura-Temp)/(Curva[i].Tiempo*K); 
65D0:  MOVLB  2
65D2:  CLRF   x07
65D4:  MOVFF  1E5,206
65D8:  CLRF   x09
65DA:  MOVLW  03
65DC:  MOVWF  x08
65DE:  MOVLB  0
65E0:  CALL   10F8
65E4:  MOVFF  02,1E7
65E8:  MOVFF  01,1E6
65EC:  MOVLB  1
65EE:  MOVF   xC6,W
65F0:  ADDWF  01,W
65F2:  MOVWF  FE9
65F4:  MOVF   xC7,W
65F6:  ADDWFC 02,W
65F8:  MOVWF  FEA
65FA:  MOVF   FEF,W
65FC:  MOVLB  2
65FE:  CLRF   x06
6600:  MOVWF  x05
6602:  MOVLB  0
6604:  CALL   147E
6608:  MOVFF  03,1EB
660C:  MOVFF  02,1EA
6610:  MOVFF  01,1E9
6614:  MOVFF  00,1E8
6618:  MOVFF  FEA,1ED
661C:  MOVFF  FE9,1EC
6620:  BSF    FD8.1
6622:  CLRF   19
6624:  BTFSC  FF2.7
6626:  BSF    19.7
6628:  BCF    FF2.7
662A:  MOVFF  03,223
662E:  MOVFF  02,222
6632:  MOVFF  01,221
6636:  MOVFF  00,220
663A:  MOVFF  1CC,227
663E:  MOVFF  1CB,226
6642:  MOVFF  1CA,225
6646:  MOVFF  1C9,224
664A:  CALL   077C
664E:  BTFSC  19.7
6650:  BSF    FF2.7
6652:  MOVFF  1ED,FEA
6656:  MOVFF  1EC,FE9
665A:  MOVFF  03,1EB
665E:  MOVFF  02,1EA
6662:  MOVFF  01,1E9
6666:  MOVFF  00,1E8
666A:  MOVLB  2
666C:  CLRF   x07
666E:  MOVFF  1E5,206
6672:  CLRF   x09
6674:  MOVLW  03
6676:  MOVWF  x08
6678:  MOVLB  0
667A:  CALL   10F8
667E:  MOVFF  01,1EE
6682:  MOVLW  01
6684:  MOVLB  1
6686:  ADDWF  01,W
6688:  MOVWF  01
668A:  MOVLW  00
668C:  ADDWFC 02,W
668E:  MOVWF  03
6690:  MOVF   01,W
6692:  ADDWF  xC6,W
6694:  MOVWF  FE9
6696:  MOVF   xC7,W
6698:  ADDWFC 03,W
669A:  MOVWF  FEA
669C:  MOVFF  FEC,206
66A0:  MOVF   FED,F
66A2:  MOVFF  FEF,205
66A6:  MOVLB  0
66A8:  CALL   147E
66AC:  MOVFF  03,208
66B0:  MOVFF  02,207
66B4:  MOVFF  01,206
66B8:  MOVFF  00,205
66BC:  MOVFF  1D0,20C
66C0:  MOVFF  1CF,20B
66C4:  MOVFF  1CE,20A
66C8:  MOVFF  1CD,209
66CC:  CALL   1758
66D0:  MOVFF  1EB,206
66D4:  MOVFF  1EA,205
66D8:  MOVFF  1E9,204
66DC:  MOVFF  1E8,203
66E0:  MOVFF  03,20A
66E4:  MOVFF  02,209
66E8:  MOVFF  01,208
66EC:  MOVFF  00,207
66F0:  CALL   14B4
66F4:  MOVFF  03,20
66F8:  MOVFF  02,1F
66FC:  MOVFF  01,1E
6700:  MOVFF  00,1D
....................       //Resetear los flags de finalizacion 
....................       EtapaEnCurso = TRUE; 
6704:  MOVLB  1
6706:  BSF    xC8.0
....................       TemperauraNoAlcanzada = TRUE; 
6708:  BSF    xC8.1
....................       cont = 0; 
670A:  CLRF   28
670C:  CLRF   27
670E:  CLRF   26
6710:  CLRF   25
....................       //Bucle de la etapa 
....................       while(EtapaEnCurso||TemperauraNoAlcanzada){ 
6712:  BTFSC  xC8.0
6714:  BRA    671A
6716:  BTFSS  xC8.1
6718:  BRA    6E36
....................          //Etapa terminada 
....................          if(cont >= k*Curva[i].Tiempo) EtapaEnCurso = FALSE; 
671A:  MOVLB  2
671C:  CLRF   x07
671E:  MOVFF  1E5,206
6722:  CLRF   x09
6724:  MOVLW  03
6726:  MOVWF  x08
6728:  MOVLB  0
672A:  CALL   10F8
672E:  MOVFF  02,1E7
6732:  MOVFF  01,1E6
6736:  MOVLW  01
6738:  MOVLB  1
673A:  ADDWF  01,W
673C:  MOVWF  01
673E:  MOVLW  00
6740:  ADDWFC 02,W
6742:  MOVWF  03
6744:  MOVF   01,W
6746:  ADDWF  xC6,W
6748:  MOVWF  FE9
674A:  MOVF   xC7,W
674C:  ADDWFC 03,W
674E:  MOVWF  FEA
6750:  MOVFF  FEC,03
6754:  MOVF   FED,F
6756:  MOVFF  FEF,205
675A:  MOVFF  03,206
675E:  MOVLB  0
6760:  CALL   147E
6764:  MOVFF  1D0,208
6768:  MOVFF  1CF,207
676C:  MOVFF  1CE,206
6770:  MOVFF  1CD,205
6774:  MOVFF  03,20C
6778:  MOVFF  02,20B
677C:  MOVFF  01,20A
6780:  MOVFF  00,209
6784:  CALL   1758
6788:  MOVFF  03,1E9
678C:  MOVFF  02,1E8
6790:  MOVFF  01,1E7
6794:  MOVFF  00,1E6
6798:  MOVFF  28,1ED
679C:  MOVFF  27,1EC
67A0:  MOVFF  26,1EB
67A4:  MOVFF  25,1EA
67A8:  BRA    631C
67AA:  MOVFF  1E9,204
67AE:  MOVFF  1E8,203
67B2:  MOVFF  1E7,202
67B6:  MOVFF  1E6,201
67BA:  MOVFF  03,208
67BE:  MOVFF  02,207
67C2:  MOVFF  01,206
67C6:  MOVFF  00,205
67CA:  CALL   1B22
67CE:  BC    67D2
67D0:  BNZ   67D8
67D2:  MOVLB  1
67D4:  BCF    xC8.0
67D6:  MOVLB  0
....................          //Medir temperatura 
....................          Temp=MedirTemp(); 
67D8:  RCALL  6116
67DA:  MOVFF  03,1CC
67DE:  MOVFF  02,1CB
67E2:  MOVFF  01,1CA
67E6:  MOVFF  00,1C9
....................          //Prender o apagar los elementos activos del horno 
....................          if(Temp<=(Setpoint-_H)) ON(SALIDA); 
67EA:  BSF    FD8.1
67EC:  CLRF   19
67EE:  BTFSC  FF2.7
67F0:  BSF    19.7
67F2:  BCF    FF2.7
67F4:  MOVFF  24,223
67F8:  MOVFF  23,222
67FC:  MOVFF  22,221
6800:  MOVFF  21,220
6804:  MOVLB  2
6806:  CLRF   x27
6808:  CLRF   x26
680A:  CLRF   x25
680C:  MOVLW  80
680E:  MOVWF  x24
6810:  MOVLB  0
6812:  CALL   077C
6816:  BTFSC  19.7
6818:  BSF    FF2.7
681A:  MOVFF  1CC,204
681E:  MOVFF  1CB,203
6822:  MOVFF  1CA,202
6826:  MOVFF  1C9,201
682A:  MOVFF  03,208
682E:  MOVFF  02,207
6832:  MOVFF  01,206
6836:  MOVFF  00,205
683A:  CALL   1B22
683E:  BC    6842
6840:  BNZ   6846
6842:  BCF    F92.6
6844:  BSF    F89.6
....................          if(Temp>=(Setpoint+_H)) OFF(SALIDA); 
6846:  BCF    FD8.1
6848:  CLRF   19
684A:  BTFSC  FF2.7
684C:  BSF    19.7
684E:  BCF    FF2.7
6850:  MOVFF  24,223
6854:  MOVFF  23,222
6858:  MOVFF  22,221
685C:  MOVFF  21,220
6860:  MOVLB  2
6862:  CLRF   x27
6864:  CLRF   x26
6866:  CLRF   x25
6868:  MOVLW  80
686A:  MOVWF  x24
686C:  MOVLB  0
686E:  CALL   077C
6872:  BTFSC  19.7
6874:  BSF    FF2.7
6876:  MOVFF  03,204
687A:  MOVFF  02,203
687E:  MOVFF  01,202
6882:  MOVFF  00,201
6886:  MOVFF  1CC,208
688A:  MOVFF  1CB,207
688E:  MOVFF  1CA,206
6892:  MOVFF  1C9,205
6896:  CALL   1B22
689A:  BC    689E
689C:  BNZ   68A2
689E:  BCF    F92.6
68A0:  BCF    F89.6
....................          //Temperatura Alcanzada 
....................          if(abs(Temp-Curva[i].Temperatura)<_H) TemperauraNoAlcanzada = FALSE; 
68A2:  MOVLB  2
68A4:  CLRF   x07
68A6:  MOVFF  1E5,206
68AA:  CLRF   x09
68AC:  MOVLW  03
68AE:  MOVWF  x08
68B0:  MOVLB  0
68B2:  CALL   10F8
68B6:  MOVFF  02,1E7
68BA:  MOVFF  01,1E6
68BE:  MOVLB  1
68C0:  MOVF   xC6,W
68C2:  ADDWF  01,W
68C4:  MOVWF  FE9
68C6:  MOVF   xC7,W
68C8:  ADDWFC 02,W
68CA:  MOVWF  FEA
68CC:  MOVF   FEF,W
68CE:  MOVLB  2
68D0:  CLRF   x06
68D2:  MOVWF  x05
68D4:  MOVLB  0
68D6:  CALL   147E
68DA:  MOVFF  FEA,1E9
68DE:  MOVFF  FE9,1E8
68E2:  BSF    FD8.1
68E4:  CLRF   19
68E6:  BTFSC  FF2.7
68E8:  BSF    19.7
68EA:  BCF    FF2.7
68EC:  MOVFF  1CC,223
68F0:  MOVFF  1CB,222
68F4:  MOVFF  1CA,221
68F8:  MOVFF  1C9,220
68FC:  MOVFF  03,227
6900:  MOVFF  02,226
6904:  MOVFF  01,225
6908:  MOVFF  00,224
690C:  CALL   077C
6910:  BTFSC  19.7
6912:  BSF    FF2.7
6914:  MOVFF  1E9,FEA
6918:  MOVFF  1E8,FE9
691C:  MOVFF  03,1ED
6920:  MOVFF  02,1EC
6924:  MOVFF  01,1EB
6928:  MOVFF  00,1EA
692C:  MOVFF  00,00
6930:  MOVFF  01,01
6934:  MOVFF  02,02
6938:  MOVFF  03,03
693C:  BCF    01.7
693E:  MOVFF  03,1ED
6942:  MOVFF  02,1EC
6946:  MOVFF  01,1EB
694A:  MOVFF  00,1EA
694E:  MOVFF  03,204
6952:  MOVFF  02,203
6956:  MOVFF  01,202
695A:  MOVFF  00,201
695E:  MOVLB  2
6960:  CLRF   x08
6962:  CLRF   x07
6964:  CLRF   x06
6966:  MOVLW  80
6968:  MOVWF  x05
696A:  MOVLB  0
696C:  CALL   1B22
6970:  BNC   6978
6972:  MOVLB  1
6974:  BCF    xC8.1
6976:  MOVLB  0
....................          //Manejo de teclas 
....................          if(ultimaTecla==_X){ 
6978:  MOVF   1B,W
697A:  SUBLW  0A
697C:  BNZ   699E
....................             ultimaTecla=_VISTO; 
697E:  MOVLW  0C
6980:  MOVWF  1B
....................             if(SoldandoEnPantalla){ 
6982:  MOVLB  1
6984:  BTFSS  xC8.2
6986:  BRA    6992
....................                SoldandoEnPantalla = FALSE; 
6988:  BCF    xC8.2
....................                printCancelar(); 
698A:  MOVLB  0
698C:  BRA    6356
....................             } else { 
698E:  BRA    699E
6990:  MOVLB  1
....................                printSoldando(); 
6992:  MOVLB  0
6994:  CALL   6052
....................                SoldandoEnPantalla = TRUE; 
6998:  MOVLB  1
699A:  BSF    xC8.2
699C:  MOVLB  0
....................             } 
....................          } 
....................          if(ultimaTecla==_TICK && SoldandoEnPantalla==FALSE){  
699E:  MOVF   1B,W
69A0:  SUBLW  0B
69A2:  BNZ   69BA
69A4:  MOVLB  1
69A6:  BTFSS  xC8.2
69A8:  BRA    69AE
69AA:  MOVLB  0
69AC:  BRA    69BA
....................             ultimaTecla=_VISTO; 
69AE:  MOVLW  0C
69B0:  MOVWF  1B
....................             return _Terminado; 
69B2:  MOVLW  22
69B4:  MOVWF  01
69B6:  BRA    6E40
69B8:  MOVLB  0
....................          } 
....................          if(prevCont!=Cont){ 
69BA:  MOVF   25,W
69BC:  MOVLB  1
69BE:  SUBWF  xD3,W
69C0:  BNZ   69D2
69C2:  MOVF   26,W
69C4:  SUBWF  xD4,W
69C6:  BNZ   69D2
69C8:  MOVF   27,F
69CA:  BNZ   69D2
69CC:  MOVF   28,F
69CE:  BTFSC  FD8.2
69D0:  BRA    6E34
....................             prevCont=Cont; 
69D2:  MOVFF  26,1D4
69D6:  MOVFF  25,1D3
....................             ContTotal++; 
69DA:  INCF   xD1,F
69DC:  BTFSC  FD8.2
69DE:  INCF   xD2,F
....................             Pixel_X = (float)ContTotal*(Kd/K); 
69E0:  MOVFF  1D2,206
69E4:  MOVFF  1D1,205
69E8:  MOVLB  0
69EA:  CALL   147E
69EE:  MOVFF  03,1E9
69F2:  MOVFF  02,1E8
69F6:  MOVFF  01,1E7
69FA:  MOVFF  00,1E6
69FE:  MOVFF  1E4,206
6A02:  MOVFF  1E3,205
6A06:  MOVFF  1E2,204
6A0A:  MOVFF  1E1,203
6A0E:  MOVFF  1D0,20A
6A12:  MOVFF  1CF,209
6A16:  MOVFF  1CE,208
6A1A:  MOVFF  1CD,207
6A1E:  CALL   14B4
6A22:  MOVFF  1E9,208
6A26:  MOVFF  1E8,207
6A2A:  MOVFF  1E7,206
6A2E:  MOVFF  1E6,205
6A32:  MOVFF  03,20C
6A36:  MOVFF  02,20B
6A3A:  MOVFF  01,20A
6A3E:  MOVFF  00,209
6A42:  CALL   1758
6A46:  MOVFF  03,202
6A4A:  MOVFF  02,201
6A4E:  MOVFF  01,200
6A52:  MOVFF  00,1FF
6A56:  CALL   26DE
6A5A:  MOVFF  02,1D6
6A5E:  MOVFF  01,1D5
....................             y = yM-((float)(_height-36)/Max.Temperatura)*Temp; 
6A62:  MOVLW  24
6A64:  MOVLB  1
6A66:  SUBWF  x73,W
6A68:  MOVLB  2
6A6A:  CLRF   x06
6A6C:  MOVWF  x05
6A6E:  MOVLB  0
6A70:  CALL   147E
6A74:  MOVFF  03,1E9
6A78:  MOVFF  02,1E8
6A7C:  MOVFF  01,1E7
6A80:  MOVFF  00,1E6
6A84:  MOVLB  2
6A86:  CLRF   x06
6A88:  MOVFF  1D9,205
6A8C:  MOVLB  0
6A8E:  CALL   147E
6A92:  MOVFF  1E9,206
6A96:  MOVFF  1E8,205
6A9A:  MOVFF  1E7,204
6A9E:  MOVFF  1E6,203
6AA2:  MOVFF  03,20A
6AA6:  MOVFF  02,209
6AAA:  MOVFF  01,208
6AAE:  MOVFF  00,207
6AB2:  CALL   14B4
6AB6:  MOVFF  03,1E9
6ABA:  MOVFF  02,1E8
6ABE:  MOVFF  01,1E7
6AC2:  MOVFF  00,1E6
6AC6:  MOVFF  03,208
6ACA:  MOVFF  02,207
6ACE:  MOVFF  01,206
6AD2:  MOVFF  00,205
6AD6:  MOVFF  1CC,20C
6ADA:  MOVFF  1CB,20B
6ADE:  MOVFF  1CA,20A
6AE2:  MOVFF  1C9,209
6AE6:  CALL   1758
6AEA:  MOVFF  03,1E9
6AEE:  MOVFF  02,1E8
6AF2:  MOVFF  01,1E7
6AF6:  MOVFF  00,1E6
6AFA:  MOVLB  2
6AFC:  CLRF   x06
6AFE:  MOVFF  1D7,205
6B02:  MOVLB  0
6B04:  CALL   147E
6B08:  BSF    FD8.1
6B0A:  CLRF   19
6B0C:  BTFSC  FF2.7
6B0E:  BSF    19.7
6B10:  BCF    FF2.7
6B12:  MOVFF  03,223
6B16:  MOVFF  02,222
6B1A:  MOVFF  01,221
6B1E:  MOVFF  00,220
6B22:  MOVFF  1E9,227
6B26:  MOVFF  1E8,226
6B2A:  MOVFF  1E7,225
6B2E:  MOVFF  1E6,224
6B32:  CALL   077C
6B36:  BTFSC  19.7
6B38:  BSF    FF2.7
6B3A:  MOVFF  03,202
6B3E:  MOVFF  02,201
6B42:  MOVFF  01,200
6B46:  MOVFF  00,1FF
6B4A:  CALL   26DE
6B4E:  MOVFF  01,17E
....................             if(prev_y-y>=0) drawVLine(Pixel_X+22,y,abs(y-prev_y)+1,HeatMap(0,255,~(int)Temp)); 
6B52:  MOVLB  2
6B54:  CLRF   x06
6B56:  MOVFF  17E,205
6B5A:  MOVLB  0
6B5C:  CALL   147E
6B60:  BSF    FD8.1
6B62:  CLRF   19
6B64:  BTFSC  FF2.7
6B66:  BSF    19.7
6B68:  BCF    FF2.7
6B6A:  MOVFF  1E0,223
6B6E:  MOVFF  1DF,222
6B72:  MOVFF  1DE,221
6B76:  MOVFF  1DD,220
6B7A:  MOVFF  03,227
6B7E:  MOVFF  02,226
6B82:  MOVFF  01,225
6B86:  MOVFF  00,224
6B8A:  CALL   077C
6B8E:  BTFSC  19.7
6B90:  BSF    FF2.7
6B92:  MOVFF  03,1E9
6B96:  MOVFF  02,1E8
6B9A:  MOVFF  01,1E7
6B9E:  MOVFF  00,1E6
6BA2:  MOVLB  2
6BA4:  CLRF   x04
6BA6:  CLRF   x03
6BA8:  CLRF   x02
6BAA:  CLRF   x01
6BAC:  MOVFF  03,208
6BB0:  MOVFF  02,207
6BB4:  MOVFF  01,206
6BB8:  MOVFF  00,205
6BBC:  MOVLB  0
6BBE:  CALL   1B22
6BC2:  BC    6BC8
6BC4:  BTFSS  FD8.2
6BC6:  BRA    6CE2
6BC8:  MOVLW  16
6BCA:  MOVLB  1
6BCC:  ADDWF  xD5,W
6BCE:  MOVWF  xE6
6BD0:  MOVLW  00
6BD2:  ADDWFC xD6,W
6BD4:  MOVWF  xE7
6BD6:  MOVLB  2
6BD8:  CLRF   x06
6BDA:  MOVFF  17E,205
6BDE:  MOVLB  0
6BE0:  CALL   147E
6BE4:  BSF    FD8.1
6BE6:  CLRF   19
6BE8:  BTFSC  FF2.7
6BEA:  BSF    19.7
6BEC:  BCF    FF2.7
6BEE:  MOVFF  03,223
6BF2:  MOVFF  02,222
6BF6:  MOVFF  01,221
6BFA:  MOVFF  00,220
6BFE:  MOVFF  1E0,227
6C02:  MOVFF  1DF,226
6C06:  MOVFF  1DE,225
6C0A:  MOVFF  1DD,224
6C0E:  CALL   077C
6C12:  BTFSC  19.7
6C14:  BSF    FF2.7
6C16:  MOVFF  03,1EB
6C1A:  MOVFF  02,1EA
6C1E:  MOVFF  01,1E9
6C22:  MOVFF  00,1E8
6C26:  MOVFF  00,00
6C2A:  MOVFF  01,01
6C2E:  MOVFF  02,02
6C32:  MOVFF  03,03
6C36:  BCF    01.7
6C38:  MOVFF  03,1EB
6C3C:  MOVFF  02,1EA
6C40:  MOVFF  01,1E9
6C44:  MOVFF  00,1E8
6C48:  BCF    FD8.1
6C4A:  CLRF   19
6C4C:  BTFSC  FF2.7
6C4E:  BSF    19.7
6C50:  BCF    FF2.7
6C52:  MOVFF  03,223
6C56:  MOVFF  02,222
6C5A:  MOVFF  01,221
6C5E:  MOVFF  00,220
6C62:  MOVLB  2
6C64:  CLRF   x27
6C66:  CLRF   x26
6C68:  CLRF   x25
6C6A:  MOVLW  7F
6C6C:  MOVWF  x24
6C6E:  MOVLB  0
6C70:  CALL   077C
6C74:  BTFSC  19.7
6C76:  BSF    FF2.7
6C78:  MOVFF  03,202
6C7C:  MOVFF  02,201
6C80:  MOVFF  01,200
6C84:  MOVFF  00,1FF
6C88:  CALL   26DE
6C8C:  MOVFF  01,1E8
6C90:  MOVFF  1CC,202
6C94:  MOVFF  1CB,201
6C98:  MOVFF  1CA,200
6C9C:  MOVFF  1C9,1FF
6CA0:  CALL   26DE
6CA4:  MOVFF  01,1E9
6CA8:  MOVLB  1
6CAA:  COMF   xE9,F
6CAC:  MOVLB  2
6CAE:  CLRF   x00
6CB0:  SETF   x01
6CB2:  MOVFF  1E9,202
6CB6:  MOVLB  0
6CB8:  CALL   2762
6CBC:  MOVFF  02,1EA
6CC0:  MOVFF  01,1E9
6CC4:  MOVFF  1E7,1FF
6CC8:  MOVFF  1E6,1FE
6CCC:  MOVFF  17E,200
6CD0:  MOVFF  1E8,201
6CD4:  MOVFF  02,203
6CD8:  MOVFF  01,202
6CDC:  CALL   2436
6CE0:  BRA    6E14
....................             else drawVLine(Pixel_X+22,prev_y,abs(y-prev_y)+1,HeatMap(0,255,~(int)Temp)); 
6CE2:  MOVLW  16
6CE4:  MOVLB  1
6CE6:  ADDWF  xD5,W
6CE8:  MOVWF  xE6
6CEA:  MOVLW  00
6CEC:  ADDWFC xD6,W
6CEE:  MOVWF  xE7
6CF0:  MOVFF  1E0,202
6CF4:  MOVFF  1DF,201
6CF8:  MOVFF  1DE,200
6CFC:  MOVFF  1DD,1FF
6D00:  MOVLB  0
6D02:  CALL   26DE
6D06:  MOVFF  01,1E8
6D0A:  MOVLB  2
6D0C:  CLRF   x06
6D0E:  MOVFF  17E,205
6D12:  MOVLB  0
6D14:  CALL   147E
6D18:  BSF    FD8.1
6D1A:  CLRF   19
6D1C:  BTFSC  FF2.7
6D1E:  BSF    19.7
6D20:  BCF    FF2.7
6D22:  MOVFF  03,223
6D26:  MOVFF  02,222
6D2A:  MOVFF  01,221
6D2E:  MOVFF  00,220
6D32:  MOVFF  1E0,227
6D36:  MOVFF  1DF,226
6D3A:  MOVFF  1DE,225
6D3E:  MOVFF  1DD,224
6D42:  CALL   077C
6D46:  BTFSC  19.7
6D48:  BSF    FF2.7
6D4A:  MOVFF  03,1EC
6D4E:  MOVFF  02,1EB
6D52:  MOVFF  01,1EA
6D56:  MOVFF  00,1E9
6D5A:  MOVFF  00,00
6D5E:  MOVFF  01,01
6D62:  MOVFF  02,02
6D66:  MOVFF  03,03
6D6A:  BCF    01.7
6D6C:  MOVFF  03,1EC
6D70:  MOVFF  02,1EB
6D74:  MOVFF  01,1EA
6D78:  MOVFF  00,1E9
6D7C:  BCF    FD8.1
6D7E:  CLRF   19
6D80:  BTFSC  FF2.7
6D82:  BSF    19.7
6D84:  BCF    FF2.7
6D86:  MOVFF  03,223
6D8A:  MOVFF  02,222
6D8E:  MOVFF  01,221
6D92:  MOVFF  00,220
6D96:  MOVLB  2
6D98:  CLRF   x27
6D9A:  CLRF   x26
6D9C:  CLRF   x25
6D9E:  MOVLW  7F
6DA0:  MOVWF  x24
6DA2:  MOVLB  0
6DA4:  CALL   077C
6DA8:  BTFSC  19.7
6DAA:  BSF    FF2.7
6DAC:  MOVFF  03,202
6DB0:  MOVFF  02,201
6DB4:  MOVFF  01,200
6DB8:  MOVFF  00,1FF
6DBC:  CALL   26DE
6DC0:  MOVFF  01,1E9
6DC4:  MOVFF  1CC,202
6DC8:  MOVFF  1CB,201
6DCC:  MOVFF  1CA,200
6DD0:  MOVFF  1C9,1FF
6DD4:  CALL   26DE
6DD8:  MOVFF  01,1EA
6DDC:  MOVLB  1
6DDE:  COMF   xEA,F
6DE0:  MOVLB  2
6DE2:  CLRF   x00
6DE4:  SETF   x01
6DE6:  MOVFF  1EA,202
6DEA:  MOVLB  0
6DEC:  CALL   2762
6DF0:  MOVFF  02,1EB
6DF4:  MOVFF  01,1EA
6DF8:  MOVFF  1E7,1FF
6DFC:  MOVFF  1E6,1FE
6E00:  MOVFF  1E8,200
6E04:  MOVFF  1E9,201
6E08:  MOVFF  02,203
6E0C:  MOVFF  01,202
6E10:  CALL   2436
....................             prev_y=y; 
6E14:  MOVLB  2
6E16:  CLRF   x06
6E18:  MOVFF  17E,205
6E1C:  MOVLB  0
6E1E:  CALL   147E
6E22:  MOVFF  03,1E0
6E26:  MOVFF  02,1DF
6E2A:  MOVFF  01,1DE
6E2E:  MOVFF  00,1DD
6E32:  MOVLB  1
....................          } 
6E34:  BRA    6712
....................       } 
6E36:  INCF   xE5,F
6E38:  GOTO   65C6
....................    } 
....................    return _Terminado; 
6E3C:  MOVLW  22
6E3E:  MOVWF  01
6E40:  MOVLB  0
6E42:  GOTO   7504 (RETURN)
.................... } 
.................... int Terminado(struct punto *Curva){ 
....................    tecl_mode(escaneo); 
*
6EF0:  MOVLW  01
6EF2:  MOVLB  1
6EF4:  MOVWF  xDA
6EF6:  MOVLB  0
6EF8:  CALL   141E
....................    disable_interrupts(INT_TIMER1); 
6EFC:  BCF    F9D.0
....................    OFF(SALIDA); 
6EFE:  BCF    F92.6
6F00:  BCF    F89.6
....................    printTermiando(); 
6F02:  BRA    6E46
....................    while(ultimaTecla==_VISTO){} 
6F04:  MOVF   1B,W
6F06:  SUBLW  0C
6F08:  BTFSC  FD8.2
6F0A:  BRA    6F04
....................    ultimaTecla=_VISTO; 
6F0C:  MOVLW  0C
6F0E:  MOVWF  1B
....................    tecl_mode(estatico); 
6F10:  MOVLB  1
6F12:  CLRF   xDA
6F14:  MOVLB  0
6F16:  CALL   141E
....................    curva_init(Curva); 
6F1A:  MOVFF  1C5,1C7
6F1E:  MOVFF  1C4,1C6
6F22:  CALL   1FC8
....................    fillScreen(BG_COLOR); 
6F26:  MOVFF  171,1CD
6F2A:  MOVFF  170,1CC
6F2E:  CALL   1004
....................    printMenuPrincipal(); 
6F32:  CALL   2168
....................    if((config&0xE0)>>5==0) return _CargarValores; 
6F36:  MOVF   1A,W
6F38:  ANDLW  E0
6F3A:  MOVWF  00
6F3C:  SWAPF  00,F
6F3E:  RRCF   00,F
6F40:  MOVLW  07
6F42:  ANDWF  00,F
6F44:  MOVF   00,W
6F46:  BNZ   6F4E
6F48:  MOVLW  06
6F4A:  MOVWF  01
6F4C:  BRA    6F52
....................    return _SeleccionDePerfil;   
6F4E:  MOVLW  00
6F50:  MOVWF  01
6F52:  GOTO   751A (RETURN)
.................... } 
.................... #endif 
....................  
....................  
.................... void main(){ 
6F56:  CLRF   FF8
6F58:  BCF    FD0.7
6F5A:  BSF    07.7
6F5C:  MOVLW  60
6F5E:  MOVWF  FD3
6F60:  CLRF   FD2
6F62:  CLRF   F9B
6F64:  BCF    FC6.5
6F66:  MOVLW  40
6F68:  MOVWF  FC7
6F6A:  MOVLW  30
6F6C:  MOVWF  FC6
6F6E:  BCF    F93.3
6F70:  BSF    F93.0
6F72:  BCF    F93.1
6F74:  MOVFF  FF2,1C4
6F78:  BCF    FF2.7
6F7A:  CLRF   FA9
6F7C:  BCF    FA6.6
6F7E:  BCF    FA6.7
6F80:  BSF    FA6.0
6F82:  MOVF   FA8,W
6F84:  MOVLB  1
6F86:  BTFSC  xC4.7
6F88:  BSF    FF2.7
6F8A:  XORLW  FF
6F8C:  MOVWF  1A
6F8E:  MOVLW  30
6F90:  MOVWF  1C
6F92:  SETF   x6F
6F94:  SETF   x6E
6F96:  CLRF   x71
6F98:  CLRF   x70
6F9A:  CLRF   x82
6F9C:  CLRF   x81
6F9E:  MOVLB  F
6FA0:  CLRF   x5B
6FA2:  CLRF   x5C
6FA4:  CLRF   x5D
6FA6:  CLRF   F9A
6FA8:  CLRF   F99
6FAA:  CLRF   F98
6FAC:  BRA    70F6
6FAE:  DATA 06,40
6FB0:  DATA 29,00
6FB2:  DATA D7,80
6FB4:  DATA 02,05
6FB6:  DATA 02,00
6FB8:  DATA 3E,41
6FBA:  DATA C1,41
6FBC:  DATA 22,7C
6FBE:  DATA 55,56
6FC0:  DATA 54,54
6FC2:  DATA 7C,54
6FC4:  DATA 56,55
6FC6:  DATA 54,30
6FC8:  DATA 48,45
6FCA:  DATA 40,20
6FCC:  DATA 20,41
6FCE:  DATA 3F,01
6FD0:  DATA 7F,7F
6FD2:  DATA 49,49
6FD4:  DATA 49,73
6FD6:  DATA 7F,40
6FD8:  DATA 7F,40
6FDA:  DATA FF,7F
6FDC:  DATA 01,01
6FDE:  DATA 01,03
6FE0:  DATA 70,29
6FE2:  DATA 27,21
6FE4:  DATA 7F,7F
6FE6:  DATA 48,30
6FE8:  DATA 00,7F
6FEA:  DATA 00,50
6FEC:  DATA 30,00
6FEE:  DATA 00,7F
6FF0:  DATA 48,48
6FF2:  DATA 48,38
6FF4:  DATA 00,30
6FF6:  DATA 30,00
6FF8:  DATA 00,7F
6FFA:  DATA 08,3E
6FFC:  DATA 41,3E
6FFE:  DATA 3E,51
7000:  DATA 49,45
7002:  DATA 3E,00
7004:  DATA 42,7F
7006:  DATA 40,00
7008:  DATA 42,61
700A:  DATA 51,49
700C:  DATA 46,21
700E:  DATA 41,45
7010:  DATA 4B,31
7012:  DATA 18,14
7014:  DATA 12,7F
7016:  DATA 10,27
7018:  DATA 45,45
701A:  DATA 45,39
701C:  DATA 3C,4A
701E:  DATA 49,49
7020:  DATA 30,01
7022:  DATA 71,09
7024:  DATA 05,03
7026:  DATA 36,49
7028:  DATA 49,49
702A:  DATA 36,06
702C:  DATA 49,49
702E:  DATA 29,1E
7030:  DATA 00,36
7032:  DATA 36,00
7034:  DATA 00,7F
7036:  DATA 01,01
7038:  DATA 01,7F
703A:  DATA 38,44
703C:  DATA 46,45
703E:  DATA 38,7D
7040:  DATA 0A,12
7042:  DATA 21,7D
7044:  DATA 00,41
7046:  DATA 22,14
7048:  DATA 08,02
704A:  DATA 01,51
704C:  DATA 09,06
704E:  DATA 46,29
7050:  DATA 19,09
7052:  DATA 7F,7E
7054:  DATA 11,11
7056:  DATA 11,7E
7058:  DATA 7F,49
705A:  DATA 49,49
705C:  DATA 36,3E
705E:  DATA 41,41
7060:  DATA 41,22
7062:  DATA 7F,41
7064:  DATA 41,41
7066:  DATA 3E,7F
7068:  DATA 49,49
706A:  DATA 49,41
706C:  DATA 7F,09
706E:  DATA 09,09
7070:  DATA 01,3E
7072:  DATA 41,49
7074:  DATA 49,7A
7076:  DATA 7F,08
7078:  DATA 08,08
707A:  DATA 7F,00
707C:  DATA 41,7F
707E:  DATA 41,00
7080:  DATA 20,40
7082:  DATA 41,3F
7084:  DATA 01,7F
7086:  DATA 08,14
7088:  DATA 22,41
708A:  DATA 7F,04
708C:  DATA C0,40
708E:  DATA 5A,80
7090:  DATA 7F,02
7092:  DATA 04,02
7094:  DATA 7F,7F
7096:  DATA 04,08
7098:  DATA 10,7F
709A:  DATA 3E,41
709C:  DATA 41,41
709E:  DATA 3E,7F
70A0:  DATA 09,09
70A2:  DATA 09,06
70A4:  DATA 3E,41
70A6:  DATA 51,21
70A8:  DATA 5E,7F
70AA:  DATA 09,19
70AC:  DATA 29,46
70AE:  DATA 46,49
70B0:  DATA 49,49
70B2:  DATA 31,01
70B4:  DATA 01,7F
70B6:  DATA 01,01
70B8:  DATA 3F,40
70BA:  DATA 40,40
70BC:  DATA 3F,1F
70BE:  DATA 20,40
70C0:  DATA 20,1F
70C2:  DATA 3F,40
70C4:  DATA 38,40
70C6:  DATA 3F,63
70C8:  DATA 14,08
70CA:  DATA 14,63
70CC:  DATA 07,08
70CE:  DATA 70,08
70D0:  DATA 07,61
70D2:  DATA 51,49
70D4:  DATA 45,43
70D6:  DATA 41,49
70D8:  DATA 49,49
70DA:  DATA 36,7F
70DC:  DATA 10,08
70DE:  DATA 04,7F
70E0:  DATA 7C,21
70E2:  DATA 12,09
70E4:  DATA 7C,1C
70E6:  DATA 22,7F
70E8:  DATA 22,1C
70EA:  DATA 05,C0
70EC:  DATA 40,05
70EE:  DATA 80,07
70F0:  DATA 08,08
70F2:  DATA 08,7F
70F4:  DATA 00,00
70F6:  MOVLW  00
70F8:  MOVWF  FF8
70FA:  MOVLW  6F
70FC:  MOVWF  FF7
70FE:  MOVLW  AE
7100:  MOVWF  FF6
7102:  TBLRD*+
7104:  MOVF   FF5,W
7106:  MOVWF  00
7108:  XORLW  00
710A:  BZ    7132
710C:  TBLRD*+
710E:  MOVF   FF5,W
7110:  MOVWF  01
7112:  BTFSC  FE8.7
7114:  BRA    7120
7116:  ANDLW  0F
7118:  MOVWF  FEA
711A:  TBLRD*+
711C:  MOVFF  FF5,FE9
7120:  BTFSC  01.6
7122:  TBLRD*+
7124:  BTFSS  01.6
7126:  TBLRD*+
7128:  MOVFF  FF5,FEE
712C:  DCFSNZ 00,F
712E:  BRA    7102
7130:  BRA    7124
7132:  CLRF   FF8
....................    init_sequence(); 
7134:  MOVLB  0
7136:  GOTO   1B9C
....................    delay_ms(1000); 
713A:  MOVLW  04
713C:  MOVLB  1
713E:  MOVWF  xC4
7140:  CLRF   19
7142:  BTFSC  FF2.7
7144:  BSF    19.7
7146:  BCF    FF2.7
7148:  MOVLW  FA
714A:  MOVLB  2
714C:  MOVWF  x22
714E:  MOVLB  0
7150:  CALL   00D2
7154:  BTFSC  19.7
7156:  BSF    FF2.7
7158:  MOVLB  1
715A:  DECFSZ xC4,F
715C:  BRA    7140
....................    adc_init(); 
715E:  MOVLB  0
7160:  CALL   1EC6
7164:  CLRF   19
7166:  BTFSC  FF2.7
7168:  BSF    19.7
716A:  BCF    FF2.7
....................    delay_ms(1); 
716C:  MOVLW  01
716E:  MOVLB  2
7170:  MOVWF  x22
7172:  MOVLB  0
7174:  CALL   00D2
7178:  BTFSC  19.7
717A:  BSF    FF2.7
....................     
....................    while(1){ 
....................       float x=read_adc(); 
....................       float temp = (float)x*ESCALADO+OFFSET; 
717C:  BSF    FC2.1
717E:  BTFSC  FC2.1
7180:  BRA    717E
7182:  MOVFF  FC4,206
7186:  MOVFF  FC3,205
718A:  MOVLB  0
718C:  CALL   147E
7190:  MOVFF  03,186
7194:  MOVFF  02,185
7198:  MOVFF  01,184
719C:  MOVFF  00,183
71A0:  MOVFF  186,208
71A4:  MOVFF  185,207
71A8:  MOVFF  184,206
71AC:  MOVFF  183,205
71B0:  MOVLW  F3
71B2:  MOVLB  2
71B4:  MOVWF  x0C
71B6:  MOVLW  95
71B8:  MOVWF  x0B
71BA:  MOVLW  1C
71BC:  MOVWF  x0A
71BE:  MOVLW  7D
71C0:  MOVWF  x09
71C2:  MOVLB  0
71C4:  CALL   1758
71C8:  MOVFF  03,1C7
71CC:  MOVFF  02,1C6
71D0:  MOVFF  01,1C5
71D4:  MOVFF  00,1C4
71D8:  BCF    FD8.1
71DA:  CLRF   19
71DC:  BTFSC  FF2.7
71DE:  BSF    19.7
71E0:  BCF    FF2.7
71E2:  MOVFF  03,223
71E6:  MOVFF  02,222
71EA:  MOVFF  01,221
71EE:  MOVFF  00,220
71F2:  MOVLB  2
71F4:  CLRF   x27
71F6:  CLRF   x26
71F8:  CLRF   x25
71FA:  CLRF   x24
71FC:  MOVLB  0
71FE:  CALL   077C
7202:  BTFSC  19.7
7204:  BSF    FF2.7
7206:  MOVFF  03,18A
720A:  MOVFF  02,189
720E:  MOVFF  01,188
7212:  MOVFF  00,187
7216:  CLRF   19
7218:  BTFSC  FF2.7
721A:  BSF    19.7
721C:  BCF    FF2.7
....................       delay_ms(1); 
721E:  MOVLW  01
7220:  MOVLB  2
7222:  MOVWF  x22
7224:  MOVLB  0
7226:  CALL   00D2
722A:  BTFSC  19.7
722C:  BSF    FF2.7
....................       float TempContacto; 
....................       TempContacto = temp_tc77(); 
722E:  CALL   1EEE
7232:  MOVFF  03,18E
7236:  MOVFF  02,18D
723A:  MOVFF  01,18C
723E:  MOVFF  00,18B
....................       /*if(TempContacto <= -99){ 
....................          print_status(-1); 
....................          TempContacto = 0; 
....................       }*/ 
....................       //if(temp>TempContacto)temp-=TempContacto; 
....................       //if(temp<MINTEMP)temp=MINTEMP; 
....................       //temp = (temp>(255+MINTEMP))? 255+MINTEMP:temp; 
....................        
....................       printf(tft_putc,"\f%f %f",  temp, TempContacto); 
7242:  MOVLW  0C
7244:  MOVLB  1
7246:  MOVWF  xF5
7248:  MOVLB  0
724A:  CALL   121A
724E:  MOVLW  89
7250:  MOVWF  FE9
7252:  MOVFF  18A,1CF
7256:  MOVFF  189,1CE
725A:  MOVFF  188,1CD
725E:  MOVFF  187,1CC
7262:  MOVLW  02
7264:  MOVLB  1
7266:  MOVWF  xD0
7268:  MOVLB  0
726A:  CALL   1926
726E:  MOVLW  20
7270:  MOVLB  1
7272:  MOVWF  xF5
7274:  MOVLB  0
7276:  CALL   121A
727A:  MOVLW  89
727C:  MOVWF  FE9
727E:  MOVFF  18E,1CF
7282:  MOVFF  18D,1CE
7286:  MOVFF  18C,1CD
728A:  MOVFF  18B,1CC
728E:  MOVLW  02
7290:  MOVLB  1
7292:  MOVWF  xD0
7294:  MOVLB  0
7296:  CALL   1926
....................       delay_ms(1000); 
729A:  MOVLW  04
729C:  MOVLB  1
729E:  MOVWF  xC4
72A0:  CLRF   19
72A2:  BTFSC  FF2.7
72A4:  BSF    19.7
72A6:  BCF    FF2.7
72A8:  MOVLW  FA
72AA:  MOVLB  2
72AC:  MOVWF  x22
72AE:  MOVLB  0
72B0:  CALL   00D2
72B4:  BTFSC  19.7
72B6:  BSF    FF2.7
72B8:  MOVLB  1
72BA:  DECFSZ xC4,F
72BC:  BRA    72A0
72BE:  MOVLB  0
72C0:  BRA    717C
....................    } 
....................  
....................    int estado=_SeleccionDePerfil; 
....................    int nPuntos=1; 
72C2:  MOVLB  1
72C4:  CLRF   x8F
72C6:  MOVLW  01
72C8:  MOVWF  x90
....................    if((config&0xE0)>>5==0)estado=_CargarValores; 
72CA:  MOVF   1A,W
72CC:  ANDLW  E0
72CE:  MOVWF  00
72D0:  SWAPF  00,F
72D2:  RRCF   00,F
72D4:  MOVLW  07
72D6:  ANDWF  00,F
72D8:  MOVF   00,W
72DA:  BNZ   72E0
72DC:  MOVLW  06
72DE:  MOVWF  x8F
....................    struct Punto Curva[17]; 
....................    curva_init(Curva); 
72E0:  MOVLW  01
72E2:  MOVWF  xC7
72E4:  MOVLW  91
72E6:  MOVWF  xC6
72E8:  MOVLB  0
72EA:  CALL   1FC8
....................    printMenuPrincipal(); 
72EE:  CALL   2168
....................    enable_interrupts(GLOBAL); 
72F2:  MOVLW  C0
72F4:  IORWF  FF2,F
....................     
....................    while(1){ 
....................       switch(estado){ 
72F6:  MOVLB  1
72F8:  MOVF   x8F,W
72FA:  ADDLW  DD
72FC:  BTFSC  FD8.0
72FE:  BRA    7524
7300:  ADDLW  23
7302:  MOVLB  0
7304:  GOTO   7528
....................          case _SeleccionDePerfil: 
....................             estado=SeleccionDePerfil(); 
7308:  GOTO   22AA
730C:  MOVFF  01,18F
....................             break; 
7310:  MOVLB  1
7312:  BRA    7524
....................          case _Perfiles: 
....................             estado=Perfiles(&nPuntos, Curva); 
7314:  MOVLW  01
7316:  MOVLB  1
7318:  MOVWF  xC7
731A:  MOVLW  90
731C:  MOVWF  xC6
731E:  MOVLW  01
7320:  MOVWF  xC9
7322:  MOVLW  91
7324:  MOVWF  xC8
7326:  MOVLB  0
7328:  GOTO   3996
732C:  MOVFF  01,18F
....................             break; 
7330:  MOVLB  1
7332:  BRA    7524
....................          case _Perfil_Crear: 
....................             estado=Perfil_Crear(); 
7334:  GOTO   3D0A
7338:  MOVFF  01,18F
....................             break; 
733C:  MOVLB  1
733E:  BRA    7524
....................          case _Perfil_Cargar: 
....................             estado=Perfil_Cargar(); 
7340:  GOTO   3D30
7344:  MOVFF  01,18F
....................             break; 
7348:  MOVLB  1
734A:  BRA    7524
....................          case _Perfil_Editar: 
....................             estado=Perfil_Editar(); 
734C:  GOTO   3D64
7350:  MOVFF  01,18F
....................             break; 
7354:  MOVLB  1
7356:  BRA    7524
....................          case _Perfil_Volver: 
....................             estado=Perfil_Volver(); 
7358:  GOTO   3D9A
735C:  MOVFF  01,18F
....................             break; 
7360:  MOVLB  1
7362:  BRA    7524
....................          case _CargarValores: 
....................             estado=CargarValores(&nPuntos); 
7364:  MOVLW  01
7366:  MOVLB  1
7368:  MOVWF  xC5
736A:  MOVLW  90
736C:  MOVWF  xC4
736E:  MOVLB  0
7370:  GOTO   3DD0
7374:  MOVFF  01,18F
....................             break; 
7378:  MOVLB  1
737A:  BRA    7524
....................          case _Configuracion: 
....................             estado=Configuracion(); 
737C:  GOTO   3FD4
7380:  MOVFF  01,18F
....................             break; 
7384:  MOVLB  1
7386:  BRA    7524
....................          case _Config_Tiempo: 
....................             estado=Config_Tiempo(); 
7388:  GOTO   4148
738C:  MOVFF  01,18F
....................             break; 
7390:  MOVLB  1
7392:  BRA    7524
....................          case _Config_Tiempo_Formato: 
....................             estado=Config_Tiempo_Formato(); 
7394:  GOTO   4250
7398:  MOVFF  01,18F
....................             break; 
739C:  MOVLB  1
739E:  BRA    7524
....................          case _Config_Tiempo_Formato_mmss: 
....................             estado=Config_Tiempo_Formato_mmss(); 
73A0:  GOTO   4286
73A4:  MOVFF  01,18F
....................             break; 
73A8:  MOVLB  1
73AA:  BRA    7524
....................          case _Config_Tiempo_Formato_ssss: 
....................             estado=Config_Tiempo_Formato_ssss(); 
73AC:  GOTO   431E
73B0:  MOVFF  01,18F
....................             break; 
73B4:  MOVLB  1
73B6:  BRA    7524
....................          case _Config_Tiempo_Formato_Volver: 
....................             estado=Config_Tiempo_Formato_Volver(); 
73B8:  GOTO   43B6
73BC:  MOVFF  01,18F
....................             break; 
73C0:  MOVLB  1
73C2:  BRA    7524
....................          case _Config_Tiempo_Origen: 
....................             estado=Config_Tiempo_Origen(); 
73C4:  GOTO   452A
73C8:  MOVFF  01,18F
....................             break; 
73CC:  MOVLB  1
73CE:  BRA    7524
....................          case _Config_Tiempo_Origen_Absoluto: 
....................             estado=Config_Tiempo_Origen_Absoluto(); 
73D0:  GOTO   4562
73D4:  MOVFF  01,18F
....................             break; 
73D8:  MOVLB  1
73DA:  BRA    7524
....................          case _Config_Tiempo_Origen_Relativo: 
....................             estado=Config_Tiempo_Origen_Relativo(); 
73DC:  GOTO   45FC
73E0:  MOVFF  01,18F
....................             break; 
73E4:  MOVLB  1
73E6:  BRA    7524
....................          case _Config_Tiempo_Origen_Volver: 
....................             estado=Config_Tiempo_Origen_Volver(); 
73E8:  GOTO   4694
73EC:  MOVFF  01,18F
....................             break; 
73F0:  MOVLB  1
73F2:  BRA    7524
....................          case _Config_Tiempo_Volver: 
....................             estado=Config_Tiempo_Volver(); 
73F4:  GOTO   46CC
73F8:  MOVFF  01,18F
....................             break; 
73FC:  MOVLB  1
73FE:  BRA    7524
....................          case _Config_Temp: 
....................             estado=Config_Temp(); 
7400:  GOTO   4798
7404:  MOVFF  01,18F
....................             break; 
7408:  MOVLB  1
740A:  BRA    7524
....................          case _Config_Temp_C: 
....................             estado=Config_Temp_C(); 
740C:  GOTO   47D0
7410:  MOVFF  01,18F
....................             break; 
7414:  MOVLB  1
7416:  BRA    7524
....................          case _Config_Temp_F: 
....................             estado=Config_Temp_F(); 
7418:  GOTO   4866
741C:  MOVFF  01,18F
....................             break; 
7420:  MOVLB  1
7422:  BRA    7524
....................          case _Config_Temp_Volver: 
....................             estado=Config_Temp_Volver(); 
7424:  GOTO   4900
7428:  MOVFF  01,18F
....................             break; 
742C:  MOVLB  1
742E:  BRA    7524
....................          case _Config_Idioma: 
....................             estado=Config_Idioma(); 
7430:  GOTO   49F8
7434:  MOVFF  01,18F
....................             break; 
7438:  MOVLB  1
743A:  BRA    7524
....................          case _Config_Idioma_Es: 
....................             estado=Config_Idioma_Es(); 
743C:  GOTO   4A30
7440:  MOVFF  01,18F
....................             break; 
7444:  MOVLB  1
7446:  BRA    7524
....................          case _Config_Idioma_En: 
....................             estado=Config_Idioma_En(); 
7448:  GOTO   4AC8
744C:  MOVFF  01,18F
....................             break; 
7450:  MOVLB  1
7452:  BRA    7524
....................          case _Config_Idioma_Fr: 
....................             estado=Config_Idioma_Fr(); 
7454:  GOTO   4B64
7458:  MOVFF  01,18F
....................             break; 
745C:  MOVLB  1
745E:  BRA    7524
....................          case _Config_Idioma_Ru: 
....................             estado=Config_Idioma_Ru(); 
7460:  GOTO   4C00
7464:  MOVFF  01,18F
....................             break; 
7468:  MOVLB  1
746A:  BRA    7524
....................          case _Config_Idioma_Volver: 
....................             estado=Config_Idioma_Volver(); 
746C:  GOTO   4C9C
7470:  MOVFF  01,18F
....................             break; 
7474:  MOVLB  1
7476:  BRA    7524
....................          case _Config_Volver: 
....................             estado=Config_Volver(); 
7478:  GOTO   4CD6
747C:  MOVFF  01,18F
....................             break; 
7480:  MOVLB  1
7482:  BRA    7524
....................          case _CargarPunto: 
....................             estado=CargarPunto(&nPuntos, Curva); 
7484:  MOVLW  01
7486:  MOVLB  1
7488:  MOVWF  xC7
748A:  MOVLW  90
748C:  MOVWF  xC6
748E:  MOVLW  01
7490:  MOVWF  xC9
7492:  MOVLW  91
7494:  MOVWF  xC8
7496:  MOVLB  0
7498:  GOTO   5AE4
749C:  MOVFF  01,18F
....................             break; 
74A0:  MOVLB  1
74A2:  BRA    7524
....................          case _Iniciar: 
....................             estado=Iniciar(&nPuntos, Curva); 
74A4:  MOVLW  01
74A6:  MOVLB  1
74A8:  MOVWF  xC7
74AA:  MOVLW  90
74AC:  MOVWF  xC6
74AE:  MOVLW  01
74B0:  MOVWF  xC9
74B2:  MOVLW  91
74B4:  MOVWF  xC8
74B6:  MOVLB  0
74B8:  GOTO   5D60
74BC:  MOVFF  01,18F
....................             break; 
74C0:  MOVLB  1
74C2:  BRA    7524
....................          case _PuntoNoValido: 
....................             estado=PuntoNoValido(); 
74C4:  GOTO   5E66
74C8:  MOVFF  01,18F
....................             break; 
74CC:  MOVLB  1
74CE:  BRA    7524
....................          case _OtroPunto: 
....................             estado=OtroPunto(&nPuntos, Curva); 
74D0:  MOVLW  01
74D2:  MOVLB  1
74D4:  MOVWF  xC7
74D6:  MOVLW  90
74D8:  MOVWF  xC6
74DA:  MOVLW  01
74DC:  MOVWF  xC9
74DE:  MOVLW  91
74E0:  MOVWF  xC8
74E2:  MOVLB  0
74E4:  GOTO   5FBE
74E8:  MOVFF  01,18F
....................             break; 
74EC:  MOVLB  1
74EE:  BRA    7524
....................          case _Soldando: 
....................             estado=Soldando(nPuntos, Curva); 
74F0:  MOVFF  190,1C5
74F4:  MOVLW  01
74F6:  MOVLB  1
74F8:  MOVWF  xC7
74FA:  MOVLW  91
74FC:  MOVWF  xC6
74FE:  MOVLB  0
7500:  GOTO   6410
7504:  MOVFF  01,18F
....................             break; 
7508:  MOVLB  1
750A:  BRA    7524
....................          case _Terminado: 
....................             estado=Terminado(Curva); 
750C:  MOVLW  01
750E:  MOVLB  1
7510:  MOVWF  xC5
7512:  MOVLW  91
7514:  MOVWF  xC4
7516:  MOVLB  0
7518:  BRA    6EF0
751A:  MOVFF  01,18F
....................             break; 
751E:  MOVLB  1
7520:  BRA    7524
7522:  MOVLB  1
....................       } 
7524:  BRA    72F8
....................    } 
....................    return; 
.................... } 
7526:  SLEEP 

Configuration Fuses:
   Word  1: C821   PLL3X NOPLLEN NOCPUDIV LS48MHZ INTRC_IO PRIMARY_SW FCMEN IESO
   Word  2: 3C59   NOPUT NOBROWNOUT BORV19 NOLPBOR NOWDT WDT32768
   Word  3: 5300   CCP2C1 PBADEN T3CKC0 SDOB3 NOMCLR
   Word  4: 0081   STVREN NOLVP NOXINST NODEBUG
   Word  5: C00F   NOPROTECT NOCPB NOCPD
   Word  6: E00F   NOWRT NOWRTC NOWRTB NOWRTD
   Word  7: 400F   NOEBTR NOEBTRB

ROM data:
007FDC: 09 01 80 96 11 80 FF 3A 81 55 0A 36 01 08 2A 04    .......:.U.6..*.
007FEC: 00 00 00 F0 2B 04 00 00 01 40 21 80 0A 13 80 0A    ....+....@!.....
007FFC: 29 80 FF                                           )..
