CCS PCH C Compiler, Version 5.070, 56587               04-ene.-22 18:44

               Filename:   E:\Horno\HornoDeRefusion-Codigo\2550\REFLOW_2550.lst

               ROM used:   26368 bytes (80%)
                           Largest free fragment is 6396
               RAM used:   431 (21%) at main() level
                           535 (26%) worst case
               Stack used: 11 locations (9 in main + 2 for interrupts)
               Stack size: 31

*
0000:  GOTO   622C
*
0008:  MOVWF  04
000A:  MOVFF  FD8,05
000E:  MOVFF  FE0,06
0012:  MOVLB  0
0014:  MOVFF  FE9,0C
0018:  MOVFF  FEA,07
001C:  MOVFF  FE1,08
0020:  MOVFF  FE2,09
0024:  MOVFF  FD9,0A
0028:  MOVFF  FDA,0B
002C:  MOVFF  FF3,12
0030:  MOVFF  FF4,13
0034:  MOVFF  FFA,14
0038:  MOVFF  FF5,15
003C:  MOVFF  FF6,16
0040:  MOVFF  FF7,17
0044:  MOVFF  00,0E
0048:  MOVFF  01,0F
004C:  MOVFF  02,10
0050:  MOVFF  03,11
0054:  BTFSS  FF2.5
0056:  GOTO   0060
005A:  BTFSC  FF2.2
005C:  GOTO   017C
0060:  BTFSS  F9D.0
0062:  GOTO   006C
0066:  BTFSC  F9E.0
0068:  GOTO   0762
006C:  BTFSS  FF0.4
006E:  GOTO   0078
0072:  BTFSC  FF0.1
0074:  GOTO   00C6
0078:  MOVFF  0E,00
007C:  MOVFF  0F,01
0080:  MOVFF  10,02
0084:  MOVFF  11,03
0088:  MOVFF  0C,FE9
008C:  MOVFF  07,FEA
0090:  BSF    07.7
0092:  MOVFF  08,FE1
0096:  MOVFF  09,FE2
009A:  MOVFF  0A,FD9
009E:  MOVFF  0B,FDA
00A2:  MOVFF  12,FF3
00A6:  MOVFF  13,FF4
00AA:  MOVFF  14,FFA
00AE:  MOVFF  15,FF5
00B2:  MOVFF  16,FF6
00B6:  MOVFF  17,FF7
00BA:  MOVF   04,W
00BC:  MOVFF  06,FE0
00C0:  MOVFF  05,FD8
00C4:  RETFIE 0
.................... #include <18f2550.h> 
.................... //////////// Standard Header file for the PIC18F2550 device //////////////// 
.................... /////////////////////////////////////////////////////////////////////////// 
.................... ////        (C) Copyright 1996, 2014 Custom Computer Services          //// 
.................... //// This source code may only be used by licensed users of the CCS C  //// 
.................... //// compiler.  This source code may only be distributed to other      //// 
.................... //// licensed users of the CCS C compiler.  No other use, reproduction //// 
.................... //// or distribution is permitted without written permission.          //// 
.................... //// Derivative programs created using this software in object code    //// 
.................... //// form are not restricted in any way.                               //// 
.................... /////////////////////////////////////////////////////////////////////////// 
.................... #device PIC18F2550 
*
01C0:  DATA 20,20
01C2:  DATA 0A,20
01C4:  DATA 20,20
01C6:  DATA 00,00
01C8:  DATA 54,54
01CA:  DATA 54,54
01CC:  DATA 54,00
01CE:  DATA 56,41
01D0:  DATA 43,49
01D2:  DATA 4F,00
01D4:  DATA 45,4D
01D6:  DATA 50,54
01D8:  DATA 59,00
01DA:  DATA 56,49
01DC:  DATA 44,45
01DE:  DATA 00,00
01E0:  DATA CF,59
01E2:  DATA 43,54
01E4:  DATA 4F,5D
01E6:  DATA 00,00
01E8:  DATA 20,00
01EA:  DATA 50,45
01EC:  DATA 52,46
01EE:  DATA 49,4C
01F0:  DATA 45,53
01F2:  DATA 00,00
01F4:  DATA 50,52
01F6:  DATA 4F,46
01F8:  DATA 49,4C
01FA:  DATA 45,53
01FC:  DATA 00,00
01FE:  DATA 50,52
0200:  DATA 4F,46
0202:  DATA 49,4C
0204:  DATA 53,00
0206:  DATA CF,50
0208:  DATA 4F,D4
020A:  DATA 5C,CB
020C:  DATA 5C,00
020E:  DATA 43,4F
0210:  DATA 4E,46
0212:  DATA 49,47
0214:  DATA 55,52
0216:  DATA 41,43
0218:  DATA 49,D3
021A:  DATA 4E,00
021C:  DATA 53,45
021E:  DATA 54,54
0220:  DATA 49,4E
0222:  DATA 47,53
0224:  DATA 00,00
0226:  DATA 50,41
0228:  DATA 52,41
022A:  DATA 4D,C8
022C:  DATA 54,52
022E:  DATA 45,53
0230:  DATA 00,00
0232:  DATA CF,41
0234:  DATA 50,41
0236:  DATA 4D,45
0238:  DATA 54,50
023A:  DATA 00,00
023C:  DATA 54,49
023E:  DATA 45,4D
0240:  DATA 50,4F
0242:  DATA 00,00
0244:  DATA 54,49
0246:  DATA 4D,45
0248:  DATA 00,00
024A:  DATA 54,45
024C:  DATA 4D,50
024E:  DATA 53,00
0250:  DATA CF,4F
0252:  DATA C3,4F
0254:  DATA C4,41
0256:  DATA 00,00
0258:  DATA 54,45
025A:  DATA 4D,50
025C:  DATA 45,52
025E:  DATA 41,54
0260:  DATA 55,52
0262:  DATA 41,00
0264:  DATA 54,49
0266:  DATA 4D,45
0268:  DATA 00,00
026A:  DATA 54,45
026C:  DATA 4D,50
026E:  DATA 53,00
0270:  DATA CF,4F
0272:  DATA C3,4F
0274:  DATA C4,41
0276:  DATA 00,00
0278:  DATA 49,44
027A:  DATA 49,4F
027C:  DATA 4D,41
027E:  DATA 00,00
0280:  DATA 4C,41
0282:  DATA 4E,47
0284:  DATA 55,41
0286:  DATA 47,45
0288:  DATA 00,00
028A:  DATA 4C,41
028C:  DATA 4E,47
028E:  DATA 41,47
0290:  DATA 45,00
0292:  DATA 5C,C4
0294:  DATA 5C,4F
0296:  DATA 4D,41
0298:  DATA 00,00
029A:  DATA 46,4F
029C:  DATA 52,4D
029E:  DATA 41,54
02A0:  DATA 4F,00
02A2:  DATA 46,4F
02A4:  DATA 52,4D
02A6:  DATA 41,54
02A8:  DATA 00,00
02AA:  DATA 46,4F
02AC:  DATA 52,4D
02AE:  DATA 41,54
02B0:  DATA 00,00
02B2:  DATA D4,4F
02B4:  DATA 52,4D
02B6:  DATA 41,54
02B8:  DATA 00,00
02BA:  DATA 4F,52
02BC:  DATA 49,47
02BE:  DATA 45,4E
02C0:  DATA 00,00
02C2:  DATA 52,45
02C4:  DATA 46,45
02C6:  DATA 52,45
02C8:  DATA 4E,43
02CA:  DATA 45,00
02CC:  DATA 4F,52
02CE:  DATA 49,47
02D0:  DATA 49,4E
02D2:  DATA 45,00
02D4:  DATA 5C,43
02D6:  DATA 54,4F
02D8:  DATA D7,48
02DA:  DATA 5C,4B
02DC:  DATA 00,00
02DE:  DATA 56,4F
02E0:  DATA 4C,56
02E2:  DATA 45,52
02E4:  DATA 20,00
02E6:  DATA 52,45
02E8:  DATA 54,55
02EA:  DATA 52,4E
02EC:  DATA 20,00
02EE:  DATA 52,45
02F0:  DATA 56,45
02F2:  DATA 4E,49
02F4:  DATA 52,20
02F6:  DATA 00,00
02F8:  DATA 42,4F
02FA:  DATA 5B,42
02FC:  DATA 50,41
02FE:  DATA D9,41
0300:  DATA 54,DC
0302:  DATA 43,DF
0304:  DATA 20,00
0306:  DATA 0C,0A
0308:  DATA 20,00
030A:  DATA 3A,00
030C:  DATA 4D,45
030E:  DATA 4E,55
0310:  DATA 20,50
0312:  DATA 52,49
0314:  DATA 4E,43
0316:  DATA 49,50
0318:  DATA 41,4C
031A:  DATA 00,00
031C:  DATA 4D,41
031E:  DATA 49,4E
0320:  DATA 20,4D
0322:  DATA 45,4E
0324:  DATA 55,00
0326:  DATA 4D,45
0328:  DATA 4E,55
032A:  DATA 20,50
032C:  DATA 52,49
032E:  DATA 4E,43
0330:  DATA 49,50
0332:  DATA 41,4C
0334:  DATA 00,00
0336:  DATA C3,CB
0338:  DATA 41,42
033A:  DATA 48,4F
033C:  DATA 45,20
033E:  DATA 4D,45
0340:  DATA 48,DE
0342:  DATA 00,00
0344:  DATA 43,41
0346:  DATA 52,47
0348:  DATA 41,52
034A:  DATA 20,56
034C:  DATA 41,4C
034E:  DATA 4F,52
0350:  DATA 45,53
0352:  DATA 00,00
0354:  DATA 4C,4F
0356:  DATA 41,44
0358:  DATA 20,56
035A:  DATA 41,4C
035C:  DATA 55,45
035E:  DATA 53,00
0360:  DATA 43,48
0362:  DATA 41,52
0364:  DATA 47,45
0366:  DATA 52,20
0368:  DATA 56,41
036A:  DATA 4C,45
036C:  DATA 55,52
036E:  DATA 53,00
0370:  DATA 5B,48
0372:  DATA 41,D7
0374:  DATA 45,48
0376:  DATA 5C,DF
0378:  DATA 20,48
037A:  DATA 41,C3
037C:  DATA 50,59
037E:  DATA 5B,4B
0380:  DATA 5C,00
0382:  DATA 20,20
0384:  DATA 31,20
0386:  DATA 20,32
0388:  DATA 20,20
038A:  DATA 33,20
038C:  DATA 20,34
038E:  DATA 20,20
0390:  DATA 35,20
0392:  DATA 20,00
0394:  DATA 43,43
0396:  DATA 43,43
0398:  DATA 00,00
039A:  DATA 53,53
039C:  DATA 53,53
039E:  DATA 00,00
03A0:  DATA 4D,4D
03A2:  DATA 3A,00
03A4:  DATA 52,45
03A6:  DATA 4C,41
03A8:  DATA 54,49
03AA:  DATA 56,4F
03AC:  DATA 00,00
03AE:  DATA 52,45
03B0:  DATA 4C,41
03B2:  DATA 54,49
03B4:  DATA 56,45
03B6:  DATA 00,00
03B8:  DATA 52,45
03BA:  DATA 4C,41
03BC:  DATA 54,49
03BE:  DATA 46,00
03C0:  DATA 50,4F
03C2:  DATA C4,43
03C4:  DATA 54,42
03C6:  DATA 45,48
03C8:  DATA 48,5C
03CA:  DATA 4B,00
03CC:  DATA 41,42
03CE:  DATA 53,4F
03D0:  DATA 4C,55
03D2:  DATA 54,4F
03D4:  DATA 00,00
03D6:  DATA 41,42
03D8:  DATA 53,4F
03DA:  DATA 4C,55
03DC:  DATA 54,00
03DE:  DATA 41,42
03E0:  DATA 53,4F
03E2:  DATA 4C,55
03E4:  DATA 00,00
03E6:  DATA 41,C1
03E8:  DATA 43,4F
03EA:  DATA CB,DE
03EC:  DATA 54,48
03EE:  DATA DB,5D
03F0:  DATA 00,00
03F2:  DATA 45,53
03F4:  DATA 50,41
03F6:  DATA D1,4F
03F8:  DATA 4C,00
03FA:  DATA 45,4E
03FC:  DATA 47,4C
03FE:  DATA 49,53
0400:  DATA 48,00
0402:  DATA 46,52
0404:  DATA 41,4E
0406:  DATA C7,41
0408:  DATA 49,53
040A:  DATA 00,00
040C:  DATA 50,59
040E:  DATA 43,43
0410:  DATA 4B,5C
0412:  DATA 5D,00
0414:  DATA 53,4F
0416:  DATA 4C,44
0418:  DATA 41,4E
041A:  DATA 44,4F
041C:  DATA 00,00
041E:  DATA 52,45
0420:  DATA 46,4C
0422:  DATA 4F,57
0424:  DATA 49,4E
0426:  DATA 47,00
0428:  DATA 53,4F
042A:  DATA 4C,44
042C:  DATA 55,52
042E:  DATA 45,00
0430:  DATA CF,41
0432:  DATA 5D,4B
0434:  DATA 41,00
0436:  DATA 2E,2E
0438:  DATA 2E,00
043A:  DATA BF,43
043C:  DATA 41,4E
043E:  DATA 43,45
0440:  DATA 4C,41
0442:  DATA 52,00
0444:  DATA 43,41
0446:  DATA 4E,43
0448:  DATA 45,4C
044A:  DATA 00,00
044C:  DATA 41,4E
044E:  DATA 4E,55
0450:  DATA 4C,45
0452:  DATA 52,00
0454:  DATA 4F,54
0456:  DATA 4D,45
0458:  DATA 48,5C
045A:  DATA 54,DC
045C:  DATA 00,00
045E:  DATA 3F,00
0460:  DATA 54,45
0462:  DATA 52,4D
0464:  DATA 49,4E
0466:  DATA 41,44
0468:  DATA 4F,00
046A:  DATA 45,4E
046C:  DATA 44,45
046E:  DATA 44,00
0470:  DATA 46,49
0472:  DATA 4E,41
0474:  DATA 4C,49
0476:  DATA 53,45
0478:  DATA 00,00
047A:  DATA 5B,41
047C:  DATA 4B,4F
047E:  DATA 48,D7
0480:  DATA 45,48
0482:  DATA 48,DB
0484:  DATA 5D,00
0486:  DATA BF,49
0488:  DATA 4E,49
048A:  DATA 43,49
048C:  DATA 41,52
048E:  DATA 00,00
0490:  DATA 53,54
0492:  DATA 41,52
0494:  DATA 54,00
0496:  DATA 43,4F
0498:  DATA 4D,4D
049A:  DATA 45,4E
049C:  DATA 43,45
049E:  DATA 52,00
04A0:  DATA 48,41
04A2:  DATA D7,5C
04A4:  DATA 48,41
04A6:  DATA 54,DC
04A8:  DATA 00,00
04AA:  DATA 3F,00
04AC:  DATA BF,4F
04AE:  DATA 54,52
04B0:  DATA 4F,20
04B2:  DATA 50,55
04B4:  DATA 4E,54
04B6:  DATA 4F,00
04B8:  DATA 41,4E
04BA:  DATA 4F,54
04BC:  DATA 48,45
04BE:  DATA 52,20
04C0:  DATA 50,4F
04C2:  DATA 49,4E
04C4:  DATA 54,00
04C6:  DATA 41,55
04C8:  DATA 54,52
04CA:  DATA 45,20
04CC:  DATA 50,4F
04CE:  DATA 49,4E
04D0:  DATA 54,00
04D2:  DATA C4,50
04D4:  DATA 59,C3
04D6:  DATA 41,DF
04D8:  DATA 20,54
04DA:  DATA 4F,D7
04DC:  DATA 4B,41
04DE:  DATA 00,00
04E0:  DATA 3F,00
04E2:  DATA 4D,41
04E4:  DATA 58,00
04E6:  DATA 4D,49
04E8:  DATA 4E,00
04EA:  MOVLW  80
04EC:  BTFSS  FD8.1
04EE:  BRA    04F4
04F0:  MOVLB  2
04F2:  XORWF  x0C,F
04F4:  MOVLB  2
04F6:  CLRF   x11
04F8:  CLRF   x12
04FA:  MOVFF  208,210
04FE:  MOVF   x0C,W
0500:  XORWF  x10,F
0502:  MOVF   x07,W
0504:  BTFSC  FD8.2
0506:  BRA    06C6
0508:  MOVWF  x0F
050A:  MOVWF  00
050C:  MOVF   x0B,W
050E:  BTFSC  FD8.2
0510:  BRA    06D8
0512:  SUBWF  x0F,F
0514:  BTFSC  FD8.2
0516:  BRA    061E
0518:  BNC   0596
051A:  MOVFF  20C,215
051E:  BSF    x15.7
0520:  MOVFF  20D,214
0524:  MOVFF  20E,213
0528:  CLRF   x12
052A:  BCF    FD8.0
052C:  RRCF   x15,F
052E:  RRCF   x14,F
0530:  RRCF   x13,F
0532:  RRCF   x12,F
0534:  DECFSZ x0F,F
0536:  BRA    0528
0538:  BTFSS  x10.7
053A:  BRA    0542
053C:  BSF    x11.0
053E:  BRA    0700
0540:  BCF    x11.0
0542:  BCF    x0F.0
0544:  BSF    x11.4
0546:  MOVLW  02
0548:  MOVWF  FEA
054A:  MOVLW  0A
054C:  MOVWF  FE9
054E:  BRA    0726
0550:  BCF    x11.4
0552:  BTFSC  x10.7
0554:  BRA    056A
0556:  BTFSS  x0F.0
0558:  BRA    0580
055A:  RRCF   x15,F
055C:  RRCF   x14,F
055E:  RRCF   x13,F
0560:  RRCF   x12,F
0562:  INCF   00,F
0564:  BTFSC  FD8.2
0566:  BRA    06F6
0568:  BRA    0580
056A:  BTFSC  x15.7
056C:  BRA    0586
056E:  BCF    FD8.0
0570:  RLCF   x12,F
0572:  RLCF   x13,F
0574:  RLCF   x14,F
0576:  RLCF   x15,F
0578:  DECF   00,F
057A:  BTFSC  FD8.2
057C:  BRA    06F6
057E:  BRA    056A
0580:  BSF    x11.6
0582:  BRA    065E
0584:  BCF    x11.6
0586:  MOVFF  208,210
058A:  BTFSS  x08.7
058C:  BRA    0592
058E:  BSF    x15.7
0590:  BRA    06E8
0592:  BCF    x15.7
0594:  BRA    06E8
0596:  MOVFF  20B,20F
059A:  MOVFF  20B,00
059E:  MOVF   x07,W
05A0:  SUBWF  x0F,F
05A2:  MOVFF  208,215
05A6:  BSF    x15.7
05A8:  MOVFF  209,214
05AC:  MOVFF  20A,213
05B0:  CLRF   x12
05B2:  BCF    FD8.0
05B4:  RRCF   x15,F
05B6:  RRCF   x14,F
05B8:  RRCF   x13,F
05BA:  RRCF   x12,F
05BC:  DECFSZ x0F,F
05BE:  BRA    05B0
05C0:  BTFSS  x10.7
05C2:  BRA    05CA
05C4:  BSF    x11.1
05C6:  BRA    0700
05C8:  BCF    x11.1
05CA:  BCF    x0F.0
05CC:  BSF    x11.5
05CE:  MOVLW  02
05D0:  MOVWF  FEA
05D2:  MOVLW  0E
05D4:  MOVWF  FE9
05D6:  BRA    0726
05D8:  BCF    x11.5
05DA:  BTFSC  x10.7
05DC:  BRA    05F2
05DE:  BTFSS  x0F.0
05E0:  BRA    0608
05E2:  RRCF   x15,F
05E4:  RRCF   x14,F
05E6:  RRCF   x13,F
05E8:  RRCF   x12,F
05EA:  INCF   00,F
05EC:  BTFSC  FD8.2
05EE:  BRA    06F6
05F0:  BRA    0608
05F2:  BTFSC  x15.7
05F4:  BRA    060E
05F6:  BCF    FD8.0
05F8:  RLCF   x12,F
05FA:  RLCF   x13,F
05FC:  RLCF   x14,F
05FE:  RLCF   x15,F
0600:  DECF   00,F
0602:  BTFSC  FD8.2
0604:  BRA    06F6
0606:  BRA    05F2
0608:  BSF    x11.7
060A:  BRA    065E
060C:  BCF    x11.7
060E:  MOVFF  20C,210
0612:  BTFSS  x0C.7
0614:  BRA    061A
0616:  BSF    x15.7
0618:  BRA    06E8
061A:  BCF    x15.7
061C:  BRA    06E8
061E:  MOVFF  20C,215
0622:  BSF    x15.7
0624:  MOVFF  20D,214
0628:  MOVFF  20E,213
062C:  BTFSS  x10.7
062E:  BRA    0638
0630:  BCF    x15.7
0632:  BSF    x11.2
0634:  BRA    0700
0636:  BCF    x11.2
0638:  CLRF   x12
063A:  BCF    x0F.0
063C:  MOVLW  02
063E:  MOVWF  FEA
0640:  MOVLW  0A
0642:  MOVWF  FE9
0644:  BRA    0726
0646:  BTFSC  x10.7
0648:  BRA    0682
064A:  MOVFF  208,210
064E:  BTFSS  x0F.0
0650:  BRA    065E
0652:  RRCF   x15,F
0654:  RRCF   x14,F
0656:  RRCF   x13,F
0658:  RRCF   x12,F
065A:  INCF   00,F
065C:  BZ    06F6
065E:  BTFSS  x12.7
0660:  BRA    0678
0662:  INCF   x13,F
0664:  BNZ   0678
0666:  INCF   x14,F
0668:  BNZ   0678
066A:  INCF   x15,F
066C:  BNZ   0678
066E:  RRCF   x15,F
0670:  RRCF   x14,F
0672:  RRCF   x13,F
0674:  INCF   00,F
0676:  BZ    06F6
0678:  BTFSC  x11.6
067A:  BRA    0584
067C:  BTFSC  x11.7
067E:  BRA    060C
0680:  BRA    06BA
0682:  MOVLW  80
0684:  XORWF  x15,F
0686:  BTFSS  x15.7
0688:  BRA    0692
068A:  BRA    0700
068C:  MOVFF  20C,210
0690:  BRA    06A6
0692:  MOVFF  208,210
0696:  MOVF   x15,F
0698:  BNZ   06A6
069A:  MOVF   x14,F
069C:  BNZ   06A6
069E:  MOVF   x13,F
06A0:  BNZ   06A6
06A2:  CLRF   00
06A4:  BRA    06E8
06A6:  BTFSC  x15.7
06A8:  BRA    06BA
06AA:  BCF    FD8.0
06AC:  RLCF   x12,F
06AE:  RLCF   x13,F
06B0:  RLCF   x14,F
06B2:  RLCF   x15,F
06B4:  DECFSZ 00,F
06B6:  BRA    06A6
06B8:  BRA    06F6
06BA:  BTFSS  x10.7
06BC:  BRA    06C2
06BE:  BSF    x15.7
06C0:  BRA    06E8
06C2:  BCF    x15.7
06C4:  BRA    06E8
06C6:  MOVFF  20B,00
06CA:  MOVFF  20C,215
06CE:  MOVFF  20D,214
06D2:  MOVFF  20E,213
06D6:  BRA    06E8
06D8:  MOVFF  207,00
06DC:  MOVFF  208,215
06E0:  MOVFF  209,214
06E4:  MOVFF  20A,213
06E8:  MOVFF  215,01
06EC:  MOVFF  214,02
06F0:  MOVFF  213,03
06F4:  BRA    075E
06F6:  CLRF   00
06F8:  CLRF   01
06FA:  CLRF   02
06FC:  CLRF   03
06FE:  BRA    075E
0700:  CLRF   x12
0702:  COMF   x13,F
0704:  COMF   x14,F
0706:  COMF   x15,F
0708:  COMF   x12,F
070A:  INCF   x12,F
070C:  BNZ   0718
070E:  INCF   x13,F
0710:  BNZ   0718
0712:  INCF   x14,F
0714:  BNZ   0718
0716:  INCF   x15,F
0718:  BTFSC  x11.0
071A:  BRA    0540
071C:  BTFSC  x11.1
071E:  BRA    05C8
0720:  BTFSC  x11.2
0722:  BRA    0636
0724:  BRA    068C
0726:  MOVF   FEF,W
0728:  ADDWF  x13,F
072A:  BNC   0736
072C:  INCF   x14,F
072E:  BNZ   0736
0730:  INCF   x15,F
0732:  BTFSC  FD8.2
0734:  BSF    x0F.0
0736:  MOVF   FED,F
0738:  MOVF   FEF,W
073A:  ADDWF  x14,F
073C:  BNC   0744
073E:  INCF   x15,F
0740:  BTFSC  FD8.2
0742:  BSF    x0F.0
0744:  MOVF   FED,F
0746:  MOVF   FEF,W
0748:  BTFSC  FEF.7
074A:  BRA    074E
074C:  XORLW  80
074E:  ADDWF  x15,F
0750:  BTFSC  FD8.0
0752:  BSF    x0F.0
0754:  BTFSC  x11.4
0756:  BRA    0550
0758:  BTFSC  x11.5
075A:  BRA    05D8
075C:  BRA    0646
075E:  MOVLB  0
0760:  RETURN 0
*
07AC:  DATA 50,45
07AE:  DATA 52,46
07B0:  DATA 49,4C
07B2:  DATA 00,00
07B4:  DATA 50,52
07B6:  DATA 4F,46
07B8:  DATA 49,4C
07BA:  DATA 45,00
07BC:  DATA 50,52
07BE:  DATA 4F,46
07C0:  DATA 49,4C
07C2:  DATA 00,00
07C4:  DATA CF,50
07C6:  DATA 4F,D4
07C8:  DATA 5C,CB
07CA:  DATA 00,00
07CC:  DATA 43,52
07CE:  DATA 45,41
07D0:  DATA 52,00
07D2:  DATA 43,52
07D4:  DATA 45,41
07D6:  DATA 54,45
07D8:  DATA 00,00
07DA:  DATA 43,52
07DC:  DATA C9,45
07DE:  DATA 52,00
07E0:  DATA 43,4F
07E2:  DATA 5B,C4
07E4:  DATA 41,42
07E6:  DATA 41,54
07E8:  DATA DC,00
07EA:  DATA 43,41
07EC:  DATA 52,47
07EE:  DATA 41,52
07F0:  DATA 00,00
07F2:  DATA 4C,4F
07F4:  DATA 41,44
07F6:  DATA 00,00
07F8:  DATA 43,48
07FA:  DATA 41,52
07FC:  DATA 47,45
07FE:  DATA 52,00
0800:  DATA 48,41
0802:  DATA C3,50
0804:  DATA 59,5B
0806:  DATA 4B,41
0808:  DATA 00,00
080A:  DATA 45,44
080C:  DATA 49,54
080E:  DATA 41,52
0810:  DATA 00,00
0812:  DATA 45,44
0814:  DATA 49,54
0816:  DATA 00,00
0818:  DATA C9,44
081A:  DATA 49,54
081C:  DATA 45,52
081E:  DATA 00,00
0820:  DATA 50,45
0822:  DATA C4,41
0824:  DATA 4B,54
0826:  DATA 5C,50
0828:  DATA 4F,42
082A:  DATA 41,54
082C:  DATA DC,00
082E:  DATA 0C,43
0830:  DATA 41,52
0832:  DATA 47,41
0834:  DATA 52,20
0836:  DATA 56,41
0838:  DATA 4C,4F
083A:  DATA 52,45
083C:  DATA 53,3A
083E:  DATA 00,00
0840:  DATA 50,55
0842:  DATA 4E,54
0844:  DATA 4F,00
0846:  DATA 50,4F
0848:  DATA 49,4E
084A:  DATA 54,00
084C:  DATA 50,4F
084E:  DATA 49,4E
0850:  DATA 54,00
0852:  DATA 54,4F
0854:  DATA D7,4B
0856:  DATA 41,00
0858:  DATA 50,55
085A:  DATA 4E,54
085C:  DATA 4F,20
085E:  DATA 4E,4F
0860:  DATA 20,56
0862:  DATA 41,4C
0864:  DATA 49,44
0866:  DATA 4F,00
0868:  DATA 50,4F
086A:  DATA 49,4E
086C:  DATA 54,20
086E:  DATA 4E,4F
0870:  DATA 54,20
0872:  DATA 56,41
0874:  DATA 4C,49
0876:  DATA 44,00
0878:  DATA 50,4F
087A:  DATA 49,4E
087C:  DATA 54,20
087E:  DATA 4E,4F
0880:  DATA 4E,20
0882:  DATA 56,41
0884:  DATA 4C,49
0886:  DATA 44,45
0888:  DATA 00,00
088A:  DATA 54,4F
088C:  DATA D7,4B
088E:  DATA 41,20
0890:  DATA 48,45
0892:  DATA 0A,C4
0894:  DATA 45,5D
0896:  DATA 43,54
0898:  DATA 42,5C
089A:  DATA 54,45
089C:  DATA CB,DC
089E:  DATA 48,41
08A0:  DATA 00,00
*
090A:  MOVFF  1B6,01
090E:  MOVFF  1B5,00
0912:  TSTFSZ 00
0914:  INCF   01,F
0916:  TBLRD*+
0918:  MOVFF  FF5,FEE
091C:  DECFSZ 00,F
091E:  BRA    0916
0920:  DECFSZ 01,F
0922:  BRA    0916
0924:  CLRF   FF8
0926:  RETURN 0
*
0A92:  MOVLB  1
0A94:  MOVF   xDF,W
0A96:  CLRF   01
0A98:  SUBWF  xDE,W
0A9A:  BC    0AA2
0A9C:  MOVFF  1DE,00
0AA0:  BRA    0ABA
0AA2:  CLRF   00
0AA4:  MOVLW  08
0AA6:  MOVWF  xE0
0AA8:  RLCF   xDE,F
0AAA:  RLCF   00,F
0AAC:  MOVF   xDF,W
0AAE:  SUBWF  00,W
0AB0:  BTFSC  FD8.0
0AB2:  MOVWF  00
0AB4:  RLCF   01,F
0AB6:  DECFSZ xE0,F
0AB8:  BRA    0AA8
0ABA:  MOVLB  0
0ABC:  RETURN 0
*
0B94:  ADDWF  FE8,W
0B96:  CLRF   FF7
0B98:  RLCF   FF7,F
0B9A:  ADDLW  AF
0B9C:  MOVWF  FF6
0B9E:  MOVLW  0B
0BA0:  ADDWFC FF7,F
0BA2:  TBLRD*-
0BA4:  MOVF   FF5,W
0BA6:  MOVWF  FFA
0BA8:  TBLRD*
0BAA:  MOVF   FF5,W
0BAC:  MOVWF  FF9
0BAE:  DATA D6,0A
0BB0:  DATA EC,0A
0BB2:  DATA 02,0B
0BB4:  DATA 12,0B
*
0C42:  MOVLB  2
0C44:  CLRF   x01
0C46:  CLRF   x02
0C48:  MOVLW  01
0C4A:  MOVWF  x03
0C4C:  CLRF   FDA
0C4E:  CLRF   FD9
0C50:  MOVWF  x06
0C52:  MOVLW  F9
0C54:  MOVWF  x05
0C56:  MOVLW  01
0C58:  MOVWF  FEA
0C5A:  MOVLW  FD
0C5C:  MOVWF  FE9
0C5E:  MOVFF  206,FE2
0C62:  MOVFF  205,FE1
0C66:  MOVFF  203,204
0C6A:  BCF    FD8.0
0C6C:  MOVF   FE5,W
0C6E:  MULWF  FEE
0C70:  MOVF   FF3,W
0C72:  ADDWFC x01,F
0C74:  MOVF   FF4,W
0C76:  ADDWFC x02,F
0C78:  DECFSZ x04,F
0C7A:  BRA    0C6A
0C7C:  MOVFF  201,FDE
0C80:  MOVFF  202,201
0C84:  CLRF   x02
0C86:  BTFSC  FD8.0
0C88:  INCF   x02,F
0C8A:  INCF   x05,F
0C8C:  BTFSC  FD8.2
0C8E:  INCF   x06,F
0C90:  INCF   x03,F
0C92:  MOVF   x03,W
0C94:  SUBLW  05
0C96:  BNZ   0C56
0C98:  MOVLB  0
0C9A:  GOTO   0D42 (RETURN)
*
0E16:  MOVLB  1
0E18:  MOVF   xED,W
0E1A:  MULWF  xEF
0E1C:  MOVFF  FF3,01
0E20:  MOVFF  FF4,00
0E24:  MULWF  xF0
0E26:  MOVF   FF3,W
0E28:  ADDWF  00,F
0E2A:  MOVF   xEE,W
0E2C:  MULWF  xEF
0E2E:  MOVF   FF3,W
0E30:  ADDWFC 00,W
0E32:  MOVWF  02
0E34:  MOVLB  0
0E36:  RETURN 0
*
1108:  TBLRD*+
110A:  MOVF   FF5,F
110C:  BZ    1126
110E:  MOVFF  FF6,1D0
1112:  MOVFF  FF7,1D1
1116:  MOVFF  FF5,1DB
111A:  RCALL  0FA0
111C:  MOVFF  1D0,FF6
1120:  MOVFF  1D1,FF7
1124:  BRA    1108
1126:  RETURN 0
*
11BA:  ADDWF  FE8,W
11BC:  CLRF   FF7
11BE:  RLCF   FF7,F
11C0:  ADDLW  D5
11C2:  MOVWF  FF6
11C4:  MOVLW  11
11C6:  ADDWFC FF7,F
11C8:  TBLRD*-
11CA:  MOVF   FF5,W
11CC:  MOVWF  FFA
11CE:  TBLRD*
11D0:  MOVF   FF5,W
11D2:  MOVWF  FF9
11D4:  DATA 8A,11
11D6:  DATA 96,11
11D8:  DATA A2,11
11DA:  DATA AE,11
*
121A:  ADDWF  FE8,W
121C:  CLRF   FF7
121E:  RLCF   FF7,F
1220:  ADDLW  35
1222:  MOVWF  FF6
1224:  MOVLW  12
1226:  ADDWFC FF7,F
1228:  TBLRD*-
122A:  MOVF   FF5,W
122C:  MOVWF  FFA
122E:  TBLRD*
1230:  MOVF   FF5,W
1232:  MOVWF  FF9
1234:  DATA EA,11
1236:  DATA F6,11
1238:  DATA 02,12
123A:  DATA 0E,12
*
130A:  ADDWF  FE8,W
130C:  CLRF   FF7
130E:  RLCF   FF7,F
1310:  ADDLW  25
1312:  MOVWF  FF6
1314:  MOVLW  13
1316:  ADDWFC FF7,F
1318:  TBLRD*-
131A:  MOVF   FF5,W
131C:  MOVWF  FFA
131E:  TBLRD*
1320:  MOVF   FF5,W
1322:  MOVWF  FF9
1324:  DATA 54,12
1326:  DATA 60,12
1328:  DATA 6C,12
132A:  DATA 78,12
132C:  ADDWF  FE8,W
132E:  CLRF   FF7
1330:  RLCF   FF7,F
1332:  ADDLW  47
1334:  MOVWF  FF6
1336:  MOVLW  13
1338:  ADDWFC FF7,F
133A:  TBLRD*-
133C:  MOVF   FF5,W
133E:  MOVWF  FFA
1340:  TBLRD*
1342:  MOVF   FF5,W
1344:  MOVWF  FF9
1346:  DATA B8,12
1348:  DATA C4,12
134A:  DATA D0,12
134C:  DATA DC,12
*
13F0:  ADDWF  FE8,W
13F2:  CLRF   FF7
13F4:  RLCF   FF7,F
13F6:  ADDLW  0B
13F8:  MOVWF  FF6
13FA:  MOVLW  14
13FC:  ADDWFC FF7,F
13FE:  TBLRD*-
1400:  MOVF   FF5,W
1402:  MOVWF  FFA
1404:  TBLRD*
1406:  MOVF   FF5,W
1408:  MOVWF  FF9
140A:  DATA BC,13
140C:  DATA C8,13
140E:  DATA D4,13
1410:  DATA E0,13
*
16AE:  ADDWF  FE8,W
16B0:  CLRF   FF7
16B2:  RLCF   FF7,F
16B4:  ADDLW  C9
16B6:  MOVWF  FF6
16B8:  MOVLW  16
16BA:  ADDWFC FF7,F
16BC:  TBLRD*-
16BE:  MOVF   FF5,W
16C0:  MOVWF  FFA
16C2:  TBLRD*
16C4:  MOVF   FF5,W
16C6:  MOVWF  FF9
16C8:  DATA 72,16
16CA:  DATA 7E,16
16CC:  DATA 8A,16
16CE:  DATA 96,16
*
1750:  MOVLW  8E
1752:  MOVWF  00
1754:  MOVFF  1ED,01
1758:  MOVFF  1EC,02
175C:  CLRF   03
175E:  MOVF   01,F
1760:  BNZ   1774
1762:  MOVFF  02,01
1766:  CLRF   02
1768:  MOVLW  08
176A:  SUBWF  00,F
176C:  MOVF   01,F
176E:  BNZ   1774
1770:  CLRF   00
1772:  BRA    1784
1774:  BCF    FD8.0
1776:  BTFSC  01.7
1778:  BRA    1782
177A:  RLCF   02,F
177C:  RLCF   01,F
177E:  DECF   00,F
1780:  BRA    1774
1782:  BCF    01.7
1784:  RETURN 0
1786:  MOVLB  1
1788:  MOVF   xEA,W
178A:  BTFSC  FD8.2
178C:  BRA    18D8
178E:  MOVWF  xF6
1790:  MOVF   xEE,W
1792:  BTFSC  FD8.2
1794:  BRA    18D8
1796:  SUBWF  xF6,F
1798:  BNC   17A4
179A:  MOVLW  7F
179C:  ADDWF  xF6,F
179E:  BTFSC  FD8.0
17A0:  BRA    18D8
17A2:  BRA    17B0
17A4:  MOVLW  81
17A6:  SUBWF  xF6,F
17A8:  BTFSS  FD8.0
17AA:  BRA    18D8
17AC:  BTFSC  FD8.2
17AE:  BRA    18D8
17B0:  MOVFF  1F6,00
17B4:  CLRF   01
17B6:  CLRF   02
17B8:  CLRF   03
17BA:  CLRF   xF5
17BC:  MOVFF  1EB,1F4
17C0:  BSF    xF4.7
17C2:  MOVFF  1EC,1F3
17C6:  MOVFF  1ED,1F2
17CA:  MOVLW  19
17CC:  MOVWF  xF6
17CE:  MOVF   xF1,W
17D0:  SUBWF  xF2,F
17D2:  BC    17EE
17D4:  MOVLW  01
17D6:  SUBWF  xF3,F
17D8:  BC    17EE
17DA:  SUBWF  xF4,F
17DC:  BC    17EE
17DE:  SUBWF  xF5,F
17E0:  BC    17EE
17E2:  INCF   xF5,F
17E4:  INCF   xF4,F
17E6:  INCF   xF3,F
17E8:  MOVF   xF1,W
17EA:  ADDWF  xF2,F
17EC:  BRA    183E
17EE:  MOVF   xF0,W
17F0:  SUBWF  xF3,F
17F2:  BC    1818
17F4:  MOVLW  01
17F6:  SUBWF  xF4,F
17F8:  BC    1818
17FA:  SUBWF  xF5,F
17FC:  BC    1818
17FE:  INCF   xF5,F
1800:  INCF   xF4,F
1802:  MOVF   xF0,W
1804:  ADDWF  xF3,F
1806:  MOVF   xF1,W
1808:  ADDWF  xF2,F
180A:  BNC   183E
180C:  INCF   xF3,F
180E:  BNZ   183E
1810:  INCF   xF4,F
1812:  BNZ   183E
1814:  INCF   xF5,F
1816:  BRA    183E
1818:  MOVF   xEF,W
181A:  IORLW  80
181C:  SUBWF  xF4,F
181E:  BC    183C
1820:  MOVLW  01
1822:  SUBWF  xF5,F
1824:  BC    183C
1826:  INCF   xF5,F
1828:  MOVF   xEF,W
182A:  IORLW  80
182C:  ADDWF  xF4,F
182E:  MOVF   xF0,W
1830:  ADDWF  xF3,F
1832:  BNC   1806
1834:  INCF   xF4,F
1836:  BNZ   1806
1838:  INCF   xF5,F
183A:  BRA    1806
183C:  BSF    03.0
183E:  DECFSZ xF6,F
1840:  BRA    1844
1842:  BRA    185A
1844:  BCF    FD8.0
1846:  RLCF   xF2,F
1848:  RLCF   xF3,F
184A:  RLCF   xF4,F
184C:  RLCF   xF5,F
184E:  BCF    FD8.0
1850:  RLCF   03,F
1852:  RLCF   02,F
1854:  RLCF   01,F
1856:  RLCF   xF7,F
1858:  BRA    17CE
185A:  BTFSS  xF7.0
185C:  BRA    186A
185E:  BCF    FD8.0
1860:  RRCF   01,F
1862:  RRCF   02,F
1864:  RRCF   03,F
1866:  RRCF   xF7,F
1868:  BRA    186E
186A:  DECF   00,F
186C:  BZ    18D8
186E:  BTFSC  xF7.7
1870:  BRA    18AE
1872:  BCF    FD8.0
1874:  RLCF   xF2,F
1876:  RLCF   xF3,F
1878:  RLCF   xF4,F
187A:  RLCF   xF5,F
187C:  MOVF   xF1,W
187E:  SUBWF  xF2,F
1880:  BC    1890
1882:  MOVLW  01
1884:  SUBWF  xF3,F
1886:  BC    1890
1888:  SUBWF  xF4,F
188A:  BC    1890
188C:  SUBWF  xF5,F
188E:  BNC   18C4
1890:  MOVF   xF0,W
1892:  SUBWF  xF3,F
1894:  BC    18A0
1896:  MOVLW  01
1898:  SUBWF  xF4,F
189A:  BC    18A0
189C:  SUBWF  xF5,F
189E:  BNC   18C4
18A0:  MOVF   xEF,W
18A2:  IORLW  80
18A4:  SUBWF  xF4,F
18A6:  BC    18AE
18A8:  MOVLW  01
18AA:  SUBWF  xF5,F
18AC:  BNC   18C4
18AE:  INCF   03,F
18B0:  BNZ   18C4
18B2:  INCF   02,F
18B4:  BNZ   18C4
18B6:  INCF   01,F
18B8:  BNZ   18C4
18BA:  INCF   00,F
18BC:  BZ    18D8
18BE:  RRCF   01,F
18C0:  RRCF   02,F
18C2:  RRCF   03,F
18C4:  MOVFF  1EB,1F6
18C8:  MOVF   xEF,W
18CA:  XORWF  xF6,F
18CC:  BTFSS  xF6.7
18CE:  BRA    18D4
18D0:  BSF    01.7
18D2:  BRA    18E0
18D4:  BCF    01.7
18D6:  BRA    18E0
18D8:  CLRF   00
18DA:  CLRF   01
18DC:  CLRF   02
18DE:  CLRF   03
18E0:  MOVLB  0
18E2:  RETURN 0
18E4:  MOVLB  1
18E6:  MOVF   xEC,W
18E8:  BTFSC  FD8.2
18EA:  BRA    19CE
18EC:  MOVWF  00
18EE:  MOVF   xF0,W
18F0:  BTFSC  FD8.2
18F2:  BRA    19CE
18F4:  ADDWF  00,F
18F6:  BNC   1900
18F8:  MOVLW  81
18FA:  ADDWF  00,F
18FC:  BC    19CE
18FE:  BRA    1908
1900:  MOVLW  7F
1902:  SUBWF  00,F
1904:  BNC   19CE
1906:  BZ    19CE
1908:  MOVFF  1ED,1F4
190C:  MOVF   xF1,W
190E:  XORWF  xF4,F
1910:  BSF    xED.7
1912:  BSF    xF1.7
1914:  MOVF   xEF,W
1916:  MULWF  xF3
1918:  MOVFF  FF4,1F6
191C:  MOVF   xEE,W
191E:  MULWF  xF2
1920:  MOVFF  FF4,03
1924:  MOVFF  FF3,1F5
1928:  MULWF  xF3
192A:  MOVF   FF3,W
192C:  ADDWF  xF6,F
192E:  MOVF   FF4,W
1930:  ADDWFC xF5,F
1932:  MOVLW  00
1934:  ADDWFC 03,F
1936:  MOVF   xEF,W
1938:  MULWF  xF2
193A:  MOVF   FF3,W
193C:  ADDWF  xF6,F
193E:  MOVF   FF4,W
1940:  ADDWFC xF5,F
1942:  MOVLW  00
1944:  CLRF   02
1946:  ADDWFC 03,F
1948:  ADDWFC 02,F
194A:  MOVF   xED,W
194C:  MULWF  xF3
194E:  MOVF   FF3,W
1950:  ADDWF  xF5,F
1952:  MOVF   FF4,W
1954:  ADDWFC 03,F
1956:  MOVLW  00
1958:  ADDWFC 02,F
195A:  MOVF   xED,W
195C:  MULWF  xF2
195E:  MOVF   FF3,W
1960:  ADDWF  03,F
1962:  MOVF   FF4,W
1964:  ADDWFC 02,F
1966:  MOVLW  00
1968:  CLRF   01
196A:  ADDWFC 01,F
196C:  MOVF   xEF,W
196E:  MULWF  xF1
1970:  MOVF   FF3,W
1972:  ADDWF  xF5,F
1974:  MOVF   FF4,W
1976:  ADDWFC 03,F
1978:  MOVLW  00
197A:  ADDWFC 02,F
197C:  ADDWFC 01,F
197E:  MOVF   xEE,W
1980:  MULWF  xF1
1982:  MOVF   FF3,W
1984:  ADDWF  03,F
1986:  MOVF   FF4,W
1988:  ADDWFC 02,F
198A:  MOVLW  00
198C:  ADDWFC 01,F
198E:  MOVF   xED,W
1990:  MULWF  xF1
1992:  MOVF   FF3,W
1994:  ADDWF  02,F
1996:  MOVF   FF4,W
1998:  ADDWFC 01,F
199A:  INCF   00,F
199C:  BTFSC  01.7
199E:  BRA    19AA
19A0:  RLCF   xF5,F
19A2:  RLCF   03,F
19A4:  RLCF   02,F
19A6:  RLCF   01,F
19A8:  DECF   00,F
19AA:  MOVLW  00
19AC:  BTFSS  xF5.7
19AE:  BRA    19C4
19B0:  INCF   03,F
19B2:  ADDWFC 02,F
19B4:  ADDWFC 01,F
19B6:  MOVF   01,W
19B8:  BNZ   19C4
19BA:  MOVF   02,W
19BC:  BNZ   19C4
19BE:  MOVF   03,W
19C0:  BNZ   19C4
19C2:  INCF   00,F
19C4:  BTFSC  xF4.7
19C6:  BSF    01.7
19C8:  BTFSS  xF4.7
19CA:  BCF    01.7
19CC:  BRA    19D6
19CE:  CLRF   00
19D0:  CLRF   01
19D2:  CLRF   02
19D4:  CLRF   03
19D6:  MOVLB  0
19D8:  RETURN 0
19DA:  MOVFF  1E9,1F0
19DE:  MOVLB  1
19E0:  MOVF   xED,W
19E2:  XORWF  xF0,F
19E4:  BTFSS  xF0.7
19E6:  BRA    19F2
19E8:  BCF    FD8.2
19EA:  BCF    FD8.0
19EC:  BTFSC  xE9.7
19EE:  BSF    FD8.0
19F0:  BRA    1A50
19F2:  MOVFF  1E9,1F0
19F6:  MOVFF  1EC,1F1
19FA:  MOVF   xE8,W
19FC:  SUBWF  xF1,F
19FE:  BZ    1A0C
1A00:  BTFSS  xF0.7
1A02:  BRA    1A50
1A04:  MOVF   FD8,W
1A06:  XORLW  01
1A08:  MOVWF  FD8
1A0A:  BRA    1A50
1A0C:  MOVFF  1ED,1F1
1A10:  MOVF   xE9,W
1A12:  SUBWF  xF1,F
1A14:  BZ    1A22
1A16:  BTFSS  xF0.7
1A18:  BRA    1A50
1A1A:  MOVF   FD8,W
1A1C:  XORLW  01
1A1E:  MOVWF  FD8
1A20:  BRA    1A50
1A22:  MOVFF  1EE,1F1
1A26:  MOVF   xEA,W
1A28:  SUBWF  xF1,F
1A2A:  BZ    1A38
1A2C:  BTFSS  xF0.7
1A2E:  BRA    1A50
1A30:  MOVF   FD8,W
1A32:  XORLW  01
1A34:  MOVWF  FD8
1A36:  BRA    1A50
1A38:  MOVFF  1EF,1F1
1A3C:  MOVF   xEB,W
1A3E:  SUBWF  xF1,F
1A40:  BZ    1A4E
1A42:  BTFSS  xF0.7
1A44:  BRA    1A50
1A46:  MOVF   FD8,W
1A48:  XORLW  01
1A4A:  MOVWF  FD8
1A4C:  BRA    1A50
1A4E:  BCF    FD8.0
1A50:  MOVLB  0
1A52:  RETURN 0
1A54:  MOVLW  8E
1A56:  MOVWF  00
1A58:  MOVLB  1
1A5A:  MOVF   xE6,W
1A5C:  SUBWF  00,F
1A5E:  MOVFF  1E7,02
1A62:  MOVFF  1E8,01
1A66:  BSF    02.7
1A68:  MOVF   00,F
1A6A:  BZ    1A7E
1A6C:  BCF    FD8.0
1A6E:  MOVF   02,F
1A70:  BNZ   1A76
1A72:  MOVF   01,F
1A74:  BZ    1A7E
1A76:  RRCF   02,F
1A78:  RRCF   01,F
1A7A:  DECFSZ 00,F
1A7C:  BRA    1A6C
1A7E:  BTFSS  xE7.7
1A80:  BRA    1A8C
1A82:  COMF   01,F
1A84:  COMF   02,F
1A86:  INCF   01,F
1A88:  BTFSC  FD8.2
1A8A:  INCF   02,F
1A8C:  MOVLB  0
1A8E:  RETURN 0
1A90:  CLRF   01
1A92:  CLRF   02
1A94:  CLRF   00
1A96:  CLRF   03
1A98:  MOVLB  1
1A9A:  MOVF   xF3,W
1A9C:  BNZ   1AA2
1A9E:  MOVF   xF2,W
1AA0:  BZ    1AD2
1AA2:  MOVLW  10
1AA4:  MOVWF  xF4
1AA6:  BCF    FD8.0
1AA8:  RLCF   xF0,F
1AAA:  RLCF   xF1,F
1AAC:  RLCF   00,F
1AAE:  RLCF   03,F
1AB0:  MOVF   xF3,W
1AB2:  SUBWF  03,W
1AB4:  BNZ   1ABA
1AB6:  MOVF   xF2,W
1AB8:  SUBWF  00,W
1ABA:  BNC   1ACA
1ABC:  MOVF   xF2,W
1ABE:  SUBWF  00,F
1AC0:  BTFSS  FD8.0
1AC2:  DECF   03,F
1AC4:  MOVF   xF3,W
1AC6:  SUBWF  03,F
1AC8:  BSF    FD8.0
1ACA:  RLCF   01,F
1ACC:  RLCF   02,F
1ACE:  DECFSZ xF4,F
1AD0:  BRA    1AA6
1AD2:  MOVLB  0
1AD4:  RETURN 0
*
26E4:  MOVFF  FEA,1DA
26E8:  MOVFF  FE9,1D9
26EC:  MOVLB  1
26EE:  SWAPF  xD3,W
26F0:  IORLW  F0
26F2:  MOVWF  xD5
26F4:  ADDWF  xD5,F
26F6:  ADDLW  E2
26F8:  MOVWF  xD6
26FA:  ADDLW  32
26FC:  MOVWF  xD8
26FE:  MOVF   xD3,W
2700:  ANDLW  0F
2702:  ADDWF  xD6,F
2704:  ADDWF  xD6,F
2706:  ADDWF  xD8,F
2708:  ADDLW  E9
270A:  MOVWF  xD7
270C:  ADDWF  xD7,F
270E:  ADDWF  xD7,F
2710:  SWAPF  xD2,W
2712:  ANDLW  0F
2714:  ADDWF  xD7,F
2716:  ADDWF  xD8,F
2718:  RLCF   xD7,F
271A:  RLCF   xD8,F
271C:  COMF   xD8,F
271E:  RLCF   xD8,F
2720:  MOVF   xD2,W
2722:  ANDLW  0F
2724:  ADDWF  xD8,F
2726:  RLCF   xD5,F
2728:  MOVLW  07
272A:  MOVWF  xD4
272C:  MOVLW  0A
272E:  DECF   xD7,F
2730:  ADDWF  xD8,F
2732:  BNC   272E
2734:  DECF   xD6,F
2736:  ADDWF  xD7,F
2738:  BNC   2734
273A:  DECF   xD5,F
273C:  ADDWF  xD6,F
273E:  BNC   273A
2740:  DECF   xD4,F
2742:  ADDWF  xD5,F
2744:  BNC   2740
2746:  MOVLW  01
2748:  MOVWF  FEA
274A:  MOVLW  D4
274C:  MOVWF  FE9
274E:  MOVLW  07
2750:  ANDWF  xD9,W
2752:  BCF    xD9.6
2754:  ADDWF  FE9,F
2756:  MOVLW  00
2758:  ADDWFC FEA,F
275A:  MOVF   FE9,W
275C:  SUBLW  D8
275E:  BNZ   2766
2760:  DECFSZ FEA,W
2762:  BRA    2766
2764:  BSF    xD9.6
2766:  MOVF   FEF,W
2768:  MOVWF  00
276A:  BNZ   277C
276C:  BTFSC  xD9.6
276E:  BRA    277C
2770:  BTFSC  xD9.4
2772:  BRA    27A0
2774:  BTFSC  xD9.3
2776:  BRA    277C
2778:  MOVLW  20
277A:  BRA    2782
277C:  BSF    xD9.3
277E:  BCF    xD9.4
2780:  MOVLW  30
2782:  ADDWF  00,F
2784:  MOVFF  FEA,1D3
2788:  MOVFF  FE9,1D2
278C:  MOVFF  00,1DB
2790:  MOVLB  0
2792:  CALL   0FA0
2796:  MOVFF  1D3,FEA
279A:  MOVFF  1D2,FE9
279E:  MOVLB  1
27A0:  MOVF   FEE,W
27A2:  BTFSS  xD9.6
27A4:  BRA    275A
27A6:  MOVLB  0
27A8:  RETURN 0
*
2BCC:  MOVLW  20
2BCE:  MOVLB  1
2BD0:  BTFSS  xBB.4
2BD2:  MOVLW  30
2BD4:  MOVWF  xBC
2BD6:  MOVFF  1BA,00
2BDA:  BTFSS  xBA.7
2BDC:  BRA    2BEE
2BDE:  COMF   00,F
2BE0:  INCF   00,F
2BE2:  MOVFF  00,1BA
2BE6:  MOVLW  2D
2BE8:  MOVWF  xBC
2BEA:  BSF    xBB.7
2BEC:  BSF    xBB.0
2BEE:  MOVF   01,W
2BF0:  MOVFF  1BA,1DE
2BF4:  MOVLW  64
2BF6:  MOVWF  xDF
2BF8:  MOVLB  0
2BFA:  CALL   0A92
2BFE:  MOVFF  00,1BA
2C02:  MOVLW  30
2C04:  ADDWF  01,W
2C06:  MOVLB  1
2C08:  MOVWF  xBD
2C0A:  MOVFF  1BA,1DE
2C0E:  MOVLW  0A
2C10:  MOVWF  xDF
2C12:  MOVLB  0
2C14:  CALL   0A92
2C18:  MOVLW  30
2C1A:  ADDWF  00,W
2C1C:  MOVLB  1
2C1E:  MOVWF  xBF
2C20:  MOVLW  30
2C22:  ADDWF  01,W
2C24:  MOVWF  xBE
2C26:  MOVFF  1BC,00
2C2A:  MOVLW  30
2C2C:  SUBWF  xBD,W
2C2E:  BZ    2C38
2C30:  BSF    xBB.1
2C32:  BTFSC  xBB.7
2C34:  BSF    xBB.2
2C36:  BRA    2C5C
2C38:  MOVFF  1BC,1BD
2C3C:  MOVLW  20
2C3E:  MOVWF  xBC
2C40:  MOVLW  30
2C42:  SUBWF  xBE,W
2C44:  BZ    2C4E
2C46:  BSF    xBB.0
2C48:  BTFSC  xBB.7
2C4A:  BSF    xBB.1
2C4C:  BRA    2C5C
2C4E:  BTFSS  FD8.2
2C50:  BSF    xBB.0
2C52:  BNZ   2C5C
2C54:  MOVFF  1BD,1BE
2C58:  MOVLW  20
2C5A:  MOVWF  xBD
2C5C:  BTFSC  xBB.2
2C5E:  BRA    2C6A
2C60:  BTFSC  xBB.1
2C62:  BRA    2C74
2C64:  BTFSC  xBB.0
2C66:  BRA    2C7E
2C68:  BRA    2C88
2C6A:  MOVFF  1BC,1DB
2C6E:  MOVLB  0
2C70:  CALL   0FA0
2C74:  MOVFF  1BD,1DB
2C78:  MOVLB  0
2C7A:  CALL   0FA0
2C7E:  MOVFF  1BE,1DB
2C82:  MOVLB  0
2C84:  CALL   0FA0
2C88:  MOVFF  1BF,1DB
2C8C:  MOVLB  0
2C8E:  CALL   0FA0
2C92:  RETURN 0
*
2F74:  ADDWF  FE8,W
2F76:  CLRF   FF7
2F78:  RLCF   FF7,F
2F7A:  ADDLW  8F
2F7C:  MOVWF  FF6
2F7E:  MOVLW  2F
2F80:  ADDWFC FF7,F
2F82:  TBLRD*-
2F84:  MOVF   FF5,W
2F86:  MOVWF  FFA
2F88:  TBLRD*
2F8A:  MOVF   FF5,W
2F8C:  MOVWF  FF9
2F8E:  DATA A8,2D
2F90:  DATA B6,2D
2F92:  DATA C4,2D
2F94:  DATA D2,2D
2F96:  ADDWF  FE8,W
2F98:  CLRF   FF7
2F9A:  RLCF   FF7,F
2F9C:  ADDLW  B1
2F9E:  MOVWF  FF6
2FA0:  MOVLW  2F
2FA2:  ADDWFC FF7,F
2FA4:  TBLRD*-
2FA6:  MOVF   FF5,W
2FA8:  MOVWF  FFA
2FAA:  TBLRD*
2FAC:  MOVF   FF5,W
2FAE:  MOVWF  FF9
2FB0:  DATA 42,2E
2FB2:  DATA 50,2E
2FB4:  DATA 5E,2E
2FB6:  DATA 6C,2E
2FB8:  ADDWF  FE8,W
2FBA:  CLRF   FF7
2FBC:  RLCF   FF7,F
2FBE:  ADDLW  D3
2FC0:  MOVWF  FF6
2FC2:  MOVLW  2F
2FC4:  ADDWFC FF7,F
2FC6:  TBLRD*-
2FC8:  MOVF   FF5,W
2FCA:  MOVWF  FFA
2FCC:  TBLRD*
2FCE:  MOVF   FF5,W
2FD0:  MOVWF  FF9
2FD2:  DATA D2,2E
2FD4:  DATA E0,2E
2FD6:  DATA EE,2E
2FD8:  DATA FC,2E
2FDA:  ADDWF  FE8,W
2FDC:  CLRF   FF7
2FDE:  RLCF   FF7,F
2FE0:  ADDLW  F5
2FE2:  MOVWF  FF6
2FE4:  MOVLW  2F
2FE6:  ADDWFC FF7,F
2FE8:  TBLRD*-
2FEA:  MOVF   FF5,W
2FEC:  MOVWF  FFA
2FEE:  TBLRD*
2FF0:  MOVF   FF5,W
2FF2:  MOVWF  FF9
2FF4:  DATA 22,2F
2FF6:  DATA 30,2F
2FF8:  DATA 3E,2F
2FFA:  DATA 4C,2F
*
3172:  ADDWF  FE8,W
3174:  CLRF   FF7
3176:  RLCF   FF7,F
3178:  ADDLW  8D
317A:  MOVWF  FF6
317C:  MOVLW  31
317E:  ADDWFC FF7,F
3180:  TBLRD*-
3182:  MOVF   FF5,W
3184:  MOVWF  FFA
3186:  TBLRD*
3188:  MOVF   FF5,W
318A:  MOVWF  FF9
318C:  DATA 3A,31
318E:  DATA 48,31
3190:  DATA 56,31
3192:  DATA 64,31
*
31E6:  ADDWF  FE8,W
31E8:  CLRF   FF7
31EA:  RLCF   FF7,F
31EC:  ADDLW  01
31EE:  MOVWF  FF6
31F0:  MOVLW  32
31F2:  ADDWFC FF7,F
31F4:  TBLRD*-
31F6:  MOVF   FF5,W
31F8:  MOVWF  FFA
31FA:  TBLRD*
31FC:  MOVF   FF5,W
31FE:  MOVWF  FF9
3200:  DATA AE,31
3202:  DATA BC,31
3204:  DATA CA,31
3206:  DATA D8,31
*
325A:  ADDWF  FE8,W
325C:  CLRF   FF7
325E:  RLCF   FF7,F
3260:  ADDLW  75
3262:  MOVWF  FF6
3264:  MOVLW  32
3266:  ADDWFC FF7,F
3268:  TBLRD*-
326A:  MOVF   FF5,W
326C:  MOVWF  FFA
326E:  TBLRD*
3270:  MOVF   FF5,W
3272:  MOVWF  FF9
3274:  DATA 22,32
3276:  DATA 30,32
3278:  DATA 3E,32
327A:  DATA 4C,32
*
3358:  ADDWF  FE8,W
335A:  CLRF   FF7
335C:  RLCF   FF7,F
335E:  ADDLW  73
3360:  MOVWF  FF6
3362:  MOVLW  33
3364:  ADDWFC FF7,F
3366:  TBLRD*-
3368:  MOVF   FF5,W
336A:  MOVWF  FFA
336C:  TBLRD*
336E:  MOVF   FF5,W
3370:  MOVWF  FF9
3372:  DATA 20,33
3374:  DATA 2E,33
3376:  DATA 3C,33
3378:  DATA 4A,33
*
33CC:  ADDWF  FE8,W
33CE:  CLRF   FF7
33D0:  RLCF   FF7,F
33D2:  ADDLW  E7
33D4:  MOVWF  FF6
33D6:  MOVLW  33
33D8:  ADDWFC FF7,F
33DA:  TBLRD*-
33DC:  MOVF   FF5,W
33DE:  MOVWF  FFA
33E0:  TBLRD*
33E2:  MOVF   FF5,W
33E4:  MOVWF  FF9
33E6:  DATA 94,33
33E8:  DATA A2,33
33EA:  DATA B0,33
33EC:  DATA BE,33
*
37D8:  ADDWF  FE8,W
37DA:  CLRF   FF7
37DC:  RLCF   FF7,F
37DE:  ADDLW  F3
37E0:  MOVWF  FF6
37E2:  MOVLW  37
37E4:  ADDWFC FF7,F
37E6:  TBLRD*-
37E8:  MOVF   FF5,W
37EA:  MOVWF  FFA
37EC:  TBLRD*
37EE:  MOVF   FF5,W
37F0:  MOVWF  FF9
37F2:  DATA 2A,37
37F4:  DATA 38,37
37F6:  DATA 46,37
37F8:  DATA 54,37
37FA:  ADDWF  FE8,W
37FC:  CLRF   FF7
37FE:  RLCF   FF7,F
3800:  ADDLW  15
3802:  MOVWF  FF6
3804:  MOVLW  38
3806:  ADDWFC FF7,F
3808:  TBLRD*-
380A:  MOVF   FF5,W
380C:  MOVWF  FFA
380E:  TBLRD*
3810:  MOVF   FF5,W
3812:  MOVWF  FF9
3814:  DATA 84,37
3816:  DATA 92,37
3818:  DATA A0,37
381A:  DATA AE,37
*
4082:  MOVLW  20
4084:  MOVLB  1
4086:  BTFSS  xC5.4
4088:  MOVLW  30
408A:  MOVWF  xC6
408C:  MOVFF  1C4,00
4090:  BTFSS  xC4.7
4092:  BRA    40A4
4094:  COMF   00,F
4096:  INCF   00,F
4098:  MOVFF  00,1C4
409C:  MOVLW  2D
409E:  MOVWF  xC6
40A0:  BSF    xC5.7
40A2:  BSF    xC5.0
40A4:  MOVF   01,W
40A6:  MOVFF  1C4,1DE
40AA:  MOVLW  64
40AC:  MOVWF  xDF
40AE:  MOVLB  0
40B0:  CALL   0A92
40B4:  MOVFF  00,1C4
40B8:  MOVLW  30
40BA:  ADDWF  01,W
40BC:  MOVLB  1
40BE:  MOVWF  xC7
40C0:  MOVFF  1C4,1DE
40C4:  MOVLW  0A
40C6:  MOVWF  xDF
40C8:  MOVLB  0
40CA:  CALL   0A92
40CE:  MOVLW  30
40D0:  ADDWF  00,W
40D2:  MOVLB  1
40D4:  MOVWF  xC9
40D6:  MOVLW  30
40D8:  ADDWF  01,W
40DA:  MOVWF  xC8
40DC:  MOVFF  1C6,00
40E0:  MOVLW  30
40E2:  SUBWF  xC7,W
40E4:  BZ    40EE
40E6:  BSF    xC5.1
40E8:  BTFSC  xC5.7
40EA:  BSF    xC5.2
40EC:  BRA    4112
40EE:  BTFSC  xC5.2
40F0:  BRA    4112
40F2:  MOVFF  1C6,1C7
40F6:  BTFSC  xC5.1
40F8:  BRA    4102
40FA:  MOVLW  30
40FC:  SUBWF  xC8,W
40FE:  BZ    4108
4100:  BSF    xC5.0
4102:  BTFSC  xC5.7
4104:  BSF    xC5.1
4106:  BRA    4112
4108:  BTFSS  FD8.2
410A:  BSF    xC5.0
410C:  BTFSC  FD8.2
410E:  MOVFF  1C7,1C8
4112:  BTFSC  xC5.2
4114:  BRA    4120
4116:  BTFSC  xC5.1
4118:  BRA    412A
411A:  BTFSC  xC5.0
411C:  BRA    4134
411E:  BRA    413E
4120:  MOVFF  1C6,1DB
4124:  MOVLB  0
4126:  CALL   0FA0
412A:  MOVFF  1C7,1DB
412E:  MOVLB  0
4130:  CALL   0FA0
4134:  MOVFF  1C8,1DB
4138:  MOVLB  0
413A:  CALL   0FA0
413E:  MOVFF  1C9,1DB
4142:  MOVLB  0
4144:  CALL   0FA0
4148:  RETURN 0
*
4F86:  ADDWF  FE8,W
4F88:  CLRF   FF7
4F8A:  RLCF   FF7,F
4F8C:  ADDLW  A1
4F8E:  MOVWF  FF6
4F90:  MOVLW  4F
4F92:  ADDWFC FF7,F
4F94:  TBLRD*-
4F96:  MOVF   FF5,W
4F98:  MOVWF  FFA
4F9A:  TBLRD*
4F9C:  MOVF   FF5,W
4F9E:  MOVWF  FF9
4FA0:  DATA E8,4D
4FA2:  DATA F6,4D
4FA4:  DATA 04,4E
4FA6:  DATA 12,4E
*
4FFC:  ADDWF  FE8,W
4FFE:  CLRF   FF7
5000:  RLCF   FF7,F
5002:  ADDLW  17
5004:  MOVWF  FF6
5006:  MOVLW  50
5008:  ADDWFC FF7,F
500A:  TBLRD*-
500C:  MOVF   FF5,W
500E:  MOVWF  FFA
5010:  TBLRD*
5012:  MOVF   FF5,W
5014:  MOVWF  FF9
5016:  DATA B6,4F
5018:  DATA C4,4F
501A:  DATA D2,4F
501C:  DATA E0,4F
*
51C6:  ADDWF  FE8,W
51C8:  CLRF   FF7
51CA:  RLCF   FF7,F
51CC:  ADDLW  E1
51CE:  MOVWF  FF6
51D0:  MOVLW  51
51D2:  ADDWFC FF7,F
51D4:  TBLRD*-
51D6:  MOVF   FF5,W
51D8:  MOVWF  FFA
51DA:  TBLRD*
51DC:  MOVF   FF5,W
51DE:  MOVWF  FF9
51E0:  DATA 4E,51
51E2:  DATA 5C,51
51E4:  DATA 6A,51
51E6:  DATA 78,51
*
5254:  ADDWF  FE8,W
5256:  CLRF   FF7
5258:  RLCF   FF7,F
525A:  ADDLW  6F
525C:  MOVWF  FF6
525E:  MOVLW  52
5260:  ADDWFC FF7,F
5262:  TBLRD*-
5264:  MOVF   FF5,W
5266:  MOVWF  FFA
5268:  TBLRD*
526A:  MOVF   FF5,W
526C:  MOVWF  FF9
526E:  DATA 0E,52
5270:  DATA 1C,52
5272:  DATA 2A,52
5274:  DATA 38,52
*
5396:  ADDWF  FE8,W
5398:  CLRF   FF7
539A:  RLCF   FF7,F
539C:  ADDLW  B1
539E:  MOVWF  FF6
53A0:  MOVLW  53
53A2:  ADDWFC FF7,F
53A4:  TBLRD*-
53A6:  MOVF   FF5,W
53A8:  MOVWF  FFA
53AA:  TBLRD*
53AC:  MOVF   FF5,W
53AE:  MOVWF  FF9
53B0:  DATA 4E,53
53B2:  DATA 5C,53
53B4:  DATA 6A,53
53B6:  DATA 78,53
*
5632:  MOVLW  B6
5634:  MOVWF  00
5636:  CLRF   03
5638:  CLRF   02
563A:  CLRF   01
563C:  MOVLB  1
563E:  MOVF   xD4,W
5640:  IORWF  xD5,W
5642:  IORWF  xD6,W
5644:  IORWF  xD7,W
5646:  BNZ   564C
5648:  CLRF   00
564A:  BRA    5666
564C:  BCF    FD8.0
564E:  BTFSC  01.7
5650:  BRA    5664
5652:  RLCF   xD4,F
5654:  RLCF   xD5,F
5656:  RLCF   xD6,F
5658:  RLCF   xD7,F
565A:  RLCF   03,F
565C:  RLCF   02,F
565E:  RLCF   01,F
5660:  DECFSZ 00,F
5662:  BRA    564C
5664:  BCF    01.7
5666:  MOVLB  0
5668:  GOTO   5A90 (RETURN)
*
56FE:  ADDWF  FE8,W
5700:  CLRF   FF7
5702:  RLCF   FF7,F
5704:  ADDLW  19
5706:  MOVWF  FF6
5708:  MOVLW  57
570A:  ADDWFC FF7,F
570C:  TBLRD*-
570E:  MOVF   FF5,W
5710:  MOVWF  FFA
5712:  TBLRD*
5714:  MOVF   FF5,W
5716:  MOVWF  FF9
5718:  DATA B0,56
571A:  DATA BE,56
571C:  DATA CC,56
571E:  DATA DA,56
*
61A4:  ADDWF  FE8,W
61A6:  CLRF   FF7
61A8:  RLCF   FF7,F
61AA:  ADDLW  BF
61AC:  MOVWF  FF6
61AE:  MOVLW  61
61B0:  ADDWFC FF7,F
61B2:  TBLRD*-
61B4:  MOVF   FF5,W
61B6:  MOVWF  FFA
61B8:  TBLRD*
61BA:  MOVF   FF5,W
61BC:  MOVWF  FF9
61BE:  DATA 66,61
61C0:  DATA 74,61
61C2:  DATA 82,61
61C4:  DATA 90,61
*
6680:  ADDWF  FE8,W
6682:  CLRF   FF7
6684:  RLCF   FF7,F
6686:  ADDLW  9B
6688:  MOVWF  FF6
668A:  MOVLW  66
668C:  ADDWFC FF7,F
668E:  TBLRD*-
6690:  MOVF   FF5,W
6692:  MOVWF  FFA
6694:  TBLRD*
6696:  MOVF   FF5,W
6698:  MOVWF  FF9
669A:  DATA 60,64
669C:  DATA 6C,64
669E:  DATA 8C,64
66A0:  DATA 98,64
66A2:  DATA A4,64
66A4:  DATA B0,64
66A6:  DATA BC,64
66A8:  DATA D4,64
66AA:  DATA E0,64
66AC:  DATA EC,64
66AE:  DATA F8,64
66B0:  DATA 04,65
66B2:  DATA 10,65
66B4:  DATA 1C,65
66B6:  DATA 28,65
66B8:  DATA 34,65
66BA:  DATA 40,65
66BC:  DATA 4C,65
66BE:  DATA 58,65
66C0:  DATA 64,65
66C2:  DATA 70,65
66C4:  DATA 7C,65
66C6:  DATA 88,65
66C8:  DATA 94,65
66CA:  DATA A0,65
66CC:  DATA AC,65
66CE:  DATA B8,65
66D0:  DATA C4,65
66D2:  DATA D0,65
66D4:  DATA DC,65
66D6:  DATA FC,65
66D8:  DATA 1C,66
66DA:  DATA 28,66
66DC:  DATA 48,66
66DE:  DATA 64,66
....................  
.................... #list 
....................  
.................... #device ADC=10 
.................... #fuses nomclr, nowdt, nolvp, noprotect 
.................... #define freq 8000000 
.................... #use delay(int=freq) 
*
08DC:  MOVLW  01
08DE:  MOVWF  FEA
08E0:  MOVLW  DE
08E2:  MOVWF  FE9
08E4:  MOVF   FEF,W
08E6:  BZ    0902
08E8:  MOVLW  02
08EA:  MOVWF  01
08EC:  CLRF   00
08EE:  DECFSZ 00,F
08F0:  BRA    08EE
08F2:  DECFSZ 01,F
08F4:  BRA    08EC
08F6:  MOVLW  97
08F8:  MOVWF  00
08FA:  DECFSZ 00,F
08FC:  BRA    08FA
08FE:  DECFSZ FEF,F
0900:  BRA    08E8
0902:  RETURN 0
.................... #define presc 4 
.................... #use SPI(SPI1, MODE = 2, BITS = 8, STREAM = ST7789) 
*
0928:  MOVF   FC9,W
092A:  MOVFF  203,FC9
092E:  RRCF   FC7,W
0930:  BNC   092E
0932:  MOVFF  FC9,00
0936:  RETURN 0
.................... #include "Globales_y_defs_2550.c" 
.................... #ifndef _GLOBS_DEFS 
.................... #define _GLOBS_DEFS 
.................... struct Punto{ 
....................    unsigned int Temperatura; 
....................    unsigned long Tiempo; 
.................... }; 
.................... register int config=~read_eeprom(0x00); 
.................... //                         CONFIGURATION WORD 
.................... // _________________________________________________________________ 
.................... // | Bit 7 | Bit 6 | Bit 5 | Bit 4 | Bit 3 | Bit 2 | Bit 1 | Bit 0 | 
.................... // |_____Ultimo perfil_____|____Tiempo_____|_°C/°F_|____Idioma_____| 
....................  
.................... //TECLADO 
....................    //Filas 
....................    #define F0 PIN_B4 
....................    #define F1 PIN_B5 
....................    #define F2 PIN_B6 
....................    #define F3 PIN_B7 
....................    //Columnas 
....................    #define C0 PIN_C0 
....................    #define C1 PIN_C1 
....................    #define C2 PIN_C2 
....................    //Modos 
....................    #define Escaneo 1 
....................    #define Estatico 0 
....................    //Teclas 
....................    enum{_X=10,_TICK,_VISTO}; 
....................    int ultimaTecla; 
.................... //HORNO 
....................    #define port_adc AN0 
....................    #define SALIDA PIN_A6 
....................    //Variacion de histeresis 
....................    #define _H 2  
....................    //Constantes de calibracion 
....................    #define ESCALADO 0.30583152697 
....................    #define OFFSET 0 
....................    //Temperatura Minima 
....................    #define MINTEMP 32 
....................    //Chip select sensor de temperatura 
....................    #define CS2 PIN_A4 
....................    //Variables 
....................    float          dt;      //-> Diferencial de temperatura: Diferencia de temperatura entre la medida al inicio de la etapa y la deseada al final de la etapa, sobre el Num de saturaciones del timer1 hasta la proxima seccion de la curva 
....................    float          Setpoint;//-> Temperatura deseada 
....................    unsigned int32 cont;    //-> Numero de veces que saturo el timer1 
.................... //COMODIDAD 
....................    #define ON output_high 
....................    #define OFF output_low 
....................    #define FLT output_float  
.................... //LCD 
....................    #define TFT_DC    PIN_C6   // data/command pin 
....................    #define TFT_CS    PIN_A5   // chip select pin, use it if the display has CS pin 
....................  
....................     
....................    int letra[64][5] = { 
....................       {0x00, 0x00, 0x00, 0x00, 0x00}, // Espacio 
....................       {0x00, 0x02, 0x05, 0x02, 0x00}, // ! -> ° 
....................       {0x3E, 0x41, 0xC1, 0x41, 0x22}, // " -> Ç 
....................       {0x7C, 0x55, 0x56, 0x54, 0x54}, // # -> È (É con el tilde a la izq `) 
....................       {0x7C, 0x54, 0x56, 0x55, 0x54}, // $ -> É 
....................       {0x30, 0x48, 0x45, 0x40, 0x20}, // % -> ¿ (? invertido) 
....................       {0x20, 0x41, 0x3F, 0x01, 0x7F}, // & -> Ë (Lambda ruso) 
....................       {0x7F, 0x49, 0x49, 0x49, 0x73}, // ' -> Á (B ruso) 
....................       {0x7F, 0x40, 0x7F, 0x40, 0xFF}, // ( -> Ù (Sh rusa) 
....................       {0x7F, 0x01, 0x01, 0x01, 0x03}, // ) -> Ã (Gama ruso) 
....................       {0x70, 0x29, 0x27, 0x21, 0x7f}, // * -> Ä (Delta ruso) 
....................       {0x7F, 0x48, 0x30, 0x00, 0x7F}, // + -> Û (Bi ruso) 
....................       {0x00, 0x50, 0x30, 0x00, 0x00}, // , 
....................       {0x7F, 0x48, 0x48, 0x48, 0x38}, // - -> Ü (Mini b rusa) 
....................       {0x00, 0x30, 0x30, 0x00, 0x00}, // . 
....................       {0x7F, 0x08, 0x3E, 0x41, 0x3E}, // / -> Þ (Iu ruso) 
....................       {0x3E, 0x51, 0x49, 0x45, 0x3E}, // 0 
....................       {0x00, 0x42, 0x7F, 0x40, 0x00}, // 1 
....................       {0x42, 0x61, 0x51, 0x49, 0x46}, // 2 
....................       {0x21, 0x41, 0x45, 0x4B, 0x31}, // 3 
....................       {0x18, 0x14, 0x12, 0x7F, 0x10}, // 4 
....................       {0x27, 0x45, 0x45, 0x45, 0x39}, // 5 
....................       {0x3C, 0x4A, 0x49, 0x49, 0x30}, // 6 
....................       {0x01, 0x71, 0x09, 0x05, 0x03}, // 7 
....................       {0x36, 0x49, 0x49, 0x49, 0x36}, // 8 
....................       {0x06, 0x49, 0x49, 0x29, 0x1E}, // 9 
....................       {0x00, 0x36, 0x36, 0x00, 0x00}, // : 
....................       {0x7F, 0x01, 0x01, 0x01, 0x7F}, // ; -> Ï (Pi ruso) 
....................       {0x38, 0x44, 0x46, 0x45, 0x38}, // < -> Ó 
....................       {0x7D, 0x0A, 0x12, 0x21, 0x7D}, // = -> Ñ (Eñe ~ + N) 
....................       {0x00, 0x41, 0x22, 0x14, 0x08}, // > 
....................       {0x02, 0x01, 0x51, 0x09, 0x06}, // ? 
....................       {0x46, 0x29, 0x19, 0x09, 0x7F}, // @ -> ß (Ia ruso) 
....................       {0x7E, 0x11, 0x11, 0x11, 0x7E}, // A 
....................       {0x7F, 0x49, 0x49, 0x49, 0x36}, // B 
....................       {0x3E, 0x41, 0x41, 0x41, 0x22}, // C 
....................       {0x7F, 0x41, 0x41, 0x41, 0x3E}, // D 
....................       {0x7F, 0x49, 0x49, 0x49, 0X41}, // E 
....................       {0x7F, 0x09, 0x09, 0x09, 0x01}, // F 
....................       {0x3E, 0x41, 0x49, 0x49, 0x7A}, // G 
....................       {0x7F, 0x08, 0x08, 0x08, 0x7F}, // H 
....................       {0x00, 0x41, 0x7F, 0x41, 0x00}, // I 
....................       {0x20, 0x40, 0x41, 0x3F, 0x01}, // J 
....................       {0x7F, 0x08, 0x14, 0x22, 0x41}, // K 
....................       {0x7F, 0x40, 0x40, 0x40, 0x40}, // L 
....................       {0x7F, 0x02, 0x04, 0x02, 0x7F}, // M 
....................       {0x7F, 0x04, 0x08, 0x10, 0x7F}, // N 
....................       {0x3E, 0x41, 0x41, 0x41, 0x3E}, // O 
....................       {0x7F, 0x09, 0x09, 0x09, 0x06}, // P 
....................       {0x3E, 0x41, 0x51, 0x21, 0x5E}, // Q 
....................       {0x7F, 0x09, 0x19, 0x29, 0x46}, // R 
....................       {0x46, 0x49, 0x49, 0x49, 0x31}, // S 
....................       {0x01, 0x01, 0x7F, 0x01, 0x01}, // T 
....................       {0x3F, 0x40, 0x40, 0x40, 0x3F}, // U 
....................       {0x1F, 0x20, 0x40, 0x20, 0x1F}, // V 
....................       {0x3F, 0x40, 0x38, 0x40, 0x3F}, // W 
....................       {0x63, 0x14, 0x08, 0x14, 0x63}, // X 
....................       {0x07, 0x08, 0x70, 0x08, 0x07}, // Y 
....................       {0x61, 0x51, 0x49, 0x45, 0x43}, // Z 
....................       {0x41, 0x49, 0x49, 0x49, 0x36}, // [ -> Ç (Zeta ruso) 
....................       {0x7F, 0x10, 0x08, 0x04, 0x7F}, // \ -> È (I ruso) 
....................       {0x7C, 0x21, 0x12, 0x09, 0x7C}, // ] -> É (Ij ruso) 
....................       {0x1C, 0x22, 0x7F, 0x22, 0x1C}, // ^ -> Ô (Fi ruso) 
....................       {0x07, 0x08, 0x08, 0x08, 0x7F}  // _ -> × (Ch ruso) 
....................    }; 
.................... #endif 
....................  
.................... #include "ST7789.c" 
.................... /////////////////////////////////////////////////////////////////////////// 
.................... ////                                                                   //// 
.................... ////                              ST7789.c                             //// 
.................... ////                                                                   //// 
.................... ////               ST7789 display driver for CCS C compiler            //// 
.................... ////                                                                   //// 
.................... /////////////////////////////////////////////////////////////////////////// 
.................... ////                                                                   //// 
.................... ////               This is a free software with NO WARRANTY.           //// 
.................... ////                     https://simple-circuit.com/                   //// 
.................... ////                                                                   //// 
.................... /////////////////////////////////////////////////////////////////////////// 
.................... /************************************************************************** 
....................   This is a library for several Adafruit displays based on ST77* drivers. 
....................  
....................   Works with the Adafruit 1.8" TFT Breakout w/SD card 
....................     ----> http://www.adafruit.com/products/358 
....................   The 1.8" TFT shield 
....................     ----> https://www.adafruit.com/product/802 
....................   The 1.44" TFT breakout 
....................     ----> https://www.adafruit.com/product/2088 
....................   as well as Adafruit raw 1.8" TFT display 
....................     ----> http://www.adafruit.com/products/618 
....................  
....................   Check out the links above for our tutorials and wiring diagrams. 
....................   These displays use SPI to communicate, 4 or 5 pins are required to 
....................   interface (RST is optional). 
....................  
....................   Adafruit invests time and resources providing this open source code, 
....................   please support Adafruit and open-source hardware by purchasing 
....................   products from Adafruit! 
....................  
....................   Written by Limor Fried/Ladyada for Adafruit Industries. 
....................   MIT license, all text above must be included in any redistribution 
....................  **************************************************************************/ 
....................  
.................... #include <stdint.h> 
.................... /////////////////////////////////////////////////////////////////////////// 
.................... ////                                                                   //// 
.................... ////                           stdint.h                                //// 
.................... ////                                                                   //// 
.................... //// Standard integer definitions.                                     //// 
.................... ////                                                                   //// 
.................... /////////////////////////////////////////////////////////////////////////// 
.................... ////        (C) Copyright 1996,2008 Custom Computer Services           //// 
.................... //// This source code may only be used by licensed users of the CCS C  //// 
.................... //// compiler.  This source code may only be distributed to other      //// 
.................... //// licensed users of the CCS C compiler.  No other use, reproduction //// 
.................... //// or distribution is permitted without written permission.          //// 
.................... //// Derivative programs created using this software in object code    //// 
.................... //// form are not restricted in any way.                               //// 
.................... /////////////////////////////////////////////////////////////////////////// 
....................  
.................... #ifndef _STDINT 
....................  
.................... #define _STDINT 
....................  
.................... //////////// exact width 
....................  
.................... typedef signed int8 int8_t; 
.................... typedef unsigned int8 uint8_t; 
.................... typedef signed int16 int16_t; 
.................... typedef unsigned int16 uint16_t; 
.................... typedef signed int32 int32_t; 
.................... typedef unsigned int32 uint32_t; 
....................  
.................... #if defined(__PCD__) 
.................... //typedef signed int24 int24_t; 
.................... //typedef unsigned int24 uint24_t; 
.................... typedef signed int64 int64_t; 
.................... typedef unsigned int64 uint64_t; 
.................... #endif 
....................  
.................... #define INT8_MAX  (127) 
.................... #define INT8_MIN  (-128) 
.................... #define UINT8_MAX (255) 
....................  
.................... #define INT16_MAX  (32767) 
.................... #define INT16_MIN  (-32768) 
.................... #define UINT16_MAX (65535) 
....................  
.................... #define INT32_MAX  (2147483647) 
.................... #define INT32_MIN  (-2147483648) 
.................... #define UINT32_MAX (4294967295) 
....................  
.................... #if defined(__PCD__) 
.................... //#define INT24_MAX  (8388607) 
.................... //#define INT24_MIN  (-8388608) 
.................... //#define UINT24_MAX (16777215) 
....................  
.................... #define INT64_MAX  (9223372036854775807) 
.................... #define INT64_MIN  (-9223372036854775808) 
.................... #define UINT64_MAX (18446744073709551615) 
.................... #endif 
....................  
.................... ///////// minimum width 
....................  
.................... typedef signed int8 int_least8_t; 
.................... typedef unsigned int8 uint_least8_t; 
.................... typedef signed int16 int_least16_t; 
.................... typedef unsigned int16 uint_least16_t; 
.................... typedef signed int32 int_least32_t; 
.................... typedef unsigned int32 uint_least32_t; 
....................  
.................... #if defined(__PCD__) 
.................... //typedef signed int24 int_least24_t; 
.................... //typedef unsigned int24 uint_least24_t; 
.................... typedef signed int64 int_least64_t; 
.................... typedef unsigned int64 uint_least64_t; 
.................... #endif 
....................  
.................... #define INT_LEAST8_MAX  (127) 
.................... #define INT_LEAST8_MIN  (-128) 
.................... #define UINT_LEAST8_MAX (255) 
....................  
.................... #define INT_LEAST16_MAX  (32767) 
.................... #define INT_LEAST16_MIN  (-32768) 
.................... #define UINT_LEAST16_MAX (65535) 
....................  
.................... #define INT_LEAST32_MAX  (2147483647) 
.................... #define INT_LEAST32_MIN  (-2147483648) 
.................... #define UINT_LEAST32_MAX (4294967295) 
....................  
.................... #if defined(__PCD__) 
.................... //#define INT_LEAST24_MAX  (8388607) 
.................... //#define INT_LEAST24_MIN  (-8388608) 
.................... //#define UINT_LEAST24_MAX (16777215) 
....................  
.................... #define INT_LEAST64_MAX  (9223372036854775807) 
.................... #define INT_LEAST64_MIN  (-9223372036854775808) 
.................... #define UINT_LEAST64_MAX (18446744073709551615) 
.................... #endif 
....................  
.................... ///////// fastest width 
....................  
.................... #if defined(__PCD__) 
.................... typedef signed int16 int_fast8_t; 
.................... typedef unsigned int16 uint_fast8_t; 
.................... #define INT_FAST8_MAX  (32767) 
.................... #define INT_FAST8_MIN  (-32768) 
.................... #define UINT_FAST8_MAX (65535) 
.................... typedef signed int16 int_fast16_t; 
.................... typedef unsigned int16 uint_fast16_t; 
.................... //typedef signed int24 int_fast24_t; 
.................... //typedef unsigned int24 uint_fast24_t; 
.................... typedef signed int64 int_fast64_t; 
.................... typedef unsigned int64 uint_fast64_t; 
.................... #else 
.................... typedef signed int8 int_fast8_t; 
.................... typedef unsigned int8 uint_fast8_t; 
.................... #define INT_FAST8_MAX  (127) 
.................... #define INT_FAST8_MIN  (-128) 
.................... #define UINT_FAST8_MAX (255) 
.................... typedef signed int16 int_fast16_t; 
.................... typedef unsigned int16 uint_fast16_t; 
.................... #endif 
....................  
.................... typedef signed int32 int_fast32_t; 
.................... typedef unsigned int32 uint_fast32_t; 
....................  
.................... #define INT_FAST16_MAX  (32767) 
.................... #define INT_FAST16_MIN  (-32768) 
.................... #define UINT_FAST16_MAX (65535) 
....................  
.................... #define INT_FAST32_MAX  (2147483647) 
.................... #define INT_FAST32_MIN  (-2147483648) 
.................... #define UINT_FAST32_MAX (4294967295) 
....................  
.................... #if defined(__PCD__) 
.................... //#define INT_FAST24_MAX  (8388607) 
.................... //#define INT_FAST24_MIN  (-8388608) 
.................... //#define UINT_FAST24_MAX (16777215) 
....................  
.................... #define INT_FAST64_MAX  (9223372036854775807) 
.................... #define INT_FAST64_MIN  (-9223372036854775808) 
.................... #define UINT_FAST64_MAX (18446744073709551615) 
.................... #endif 
....................  
.................... //////////// big enough to hold pointers (OPTIONAL) 
....................  
.................... #if defined(__PCD__) 
....................    typedef unsigned int32 uintptr_t; 
....................    typedef signed int32 intptr_t; 
.................... #else 
....................    typedef unsigned int16 uintptr_t; 
....................    typedef signed int16 intptr_t; 
.................... #endif 
....................  
.................... /// TODO: 
.................... /// INTPTRN_MIN INTPTRN_MAX UINTPTRN_MAX 
....................  
....................  
.................... /////////// greatest width (OPTIONAL) 
....................  
.................... /// TODO 
....................  
.................... /// intmax_t uintmax_t 
....................  
.................... /// INTMAXN_MIN INTMAXN_MAX UINTMAXN_MAX 
....................  
.................... /// INTMAX_C(value) UINTMAX_C(value) 
....................  
....................  
.................... #endif 
....................  
.................... #ifndef bool 
.................... #define bool int1 
.................... #endif 
....................  
.................... #define HEIGHT 240 
.................... #define WIDTH  240 
....................  
.................... #define TX_COLOR ST7789_WHITE 
.................... #define BG_COLOR ST7789_BLACK 
....................  
.................... #define ST_CMD_DELAY      0x80    // special signifier for command lists 
....................  
.................... #define ST77XX_NOP        0x00 
.................... #define ST77XX_SWRESET    0x01 
.................... #define ST77XX_RDDID      0x04 
.................... #define ST77XX_RDDST      0x09 
....................  
.................... #define ST77XX_SLPIN      0x10 
.................... #define ST77XX_SLPOUT     0x11 
.................... #define ST77XX_PTLON      0x12 
.................... #define ST77XX_NORON      0x13 
....................  
.................... #define ST77XX_INVOFF     0x20 
.................... #define ST77XX_INVON      0x21 
.................... #define ST77XX_DISPOFF    0x28 
.................... #define ST77XX_DISPON     0x29 
.................... #define ST77XX_CASET      0x2A 
.................... #define ST77XX_RASET      0x2B 
.................... #define ST77XX_RAMWR      0x2C 
.................... #define ST77XX_RAMRD      0x2E 
....................  
.................... #define ST77XX_PTLAR      0x30 
.................... #define ST77XX_COLMOD     0x3A 
.................... #define ST77XX_MADCTL     0x36 
....................  
.................... #define ST77XX_MADCTL_MY  0x80 
.................... #define ST77XX_MADCTL_MX  0x40 
.................... #define ST77XX_MADCTL_MV  0x20 
.................... #define ST77XX_MADCTL_ML  0x10 
.................... #define ST77XX_MADCTL_RGB 0x00 
....................  
.................... #define ST77XX_RDID1      0xDA 
.................... #define ST77XX_RDID2      0xDB 
.................... #define ST77XX_RDID3      0xDC 
.................... #define ST77XX_RDID4      0xDD 
....................  
.................... // Some ready-made 16-bit ('565') color settings: 
.................... #define   ST7789_BLACK   0x0000 
.................... #define   ST7789_BLUE    0x001F 
.................... #define   ST7789_RED     0xF800 
.................... #define   ST7789_GREEN   0x07E0 
.................... #define   ST7789_CYAN    0x07FF 
.................... #define   ST7789_MAGENTA 0xF81F 
.................... #define   ST7789_YELLOW  0xFFE0 
.................... #define   ST7789_WHITE   0xFFFF 
....................  
.................... #ifndef ST7789_SPI_XFER 
.................... #define ST7789_SPI_XFER(x) SPI_XFER(ST7789, x) 
.................... #endif 
....................  
.................... uint8_t 
....................   _width,     ///< Display width as modified by current rotation 
....................   _height,    ///< Display height as modified by current rotation 
....................   _xstart,    ///< Internal framebuffer X offset 
....................   _ystart,    ///< Internal framebuffer Y offset 
....................   _colstart,  ///< Some displays need this changed to offset 
....................   _rowstart,  ///< Some displays need this changed to offset 
....................   rotation,   ///< Display rotation (0 thru 3) 
....................   X_MAX, 
....................   X_BEGIN, 
....................   Y_MAX, 
....................   Y_BEGIN; 
....................  
.................... uint8_t X; 
.................... uint8_t Y; 
.................... uint8_t CARRIAGEX; 
.................... uint8_t CARRIAGEY; 
....................  
....................  
.................... // SCREEN INITIALIZATION *************************************************** 
....................  
.................... // Rather than a bazillion writecommand() and writedata() calls, screen 
.................... // initialization commands and arguments are organized in these tables 
.................... // stored in PROGMEM.  The table may look bulky, but that's mostly the 
.................... // formatting -- storage-wise this is hundreds of bytes more compact 
.................... // than the equivalent code.  Companion function follows. 
....................  
.................... #define ST7789_240x240_XSTART 0 
.................... #define ST7789_240x240_YSTART 80     //80 
....................  
.................... rom uint8_t 
....................   cmd_240x240[] =  {                // Init commands for 7789 screens 
....................     9,                              //  9 commands in list: 
....................     ST77XX_SWRESET,   ST_CMD_DELAY, //  1: Software reset, no args, w/delay 
....................       150,                          //    150 ms delay 
....................     ST77XX_SLPOUT ,   ST_CMD_DELAY, //  2: Out of sleep mode, no args, w/delay 
....................       255,                          //     255 = 500 ms delay 
....................     ST77XX_COLMOD , 1+ST_CMD_DELAY, //  3: Set color mode, 1 arg + delay: 
....................       0x55,                         //     16-bit color 
....................       10,                           //     10 ms delay 
....................     ST77XX_MADCTL , 1,              //  4: Mem access ctrl (directions), 1 arg: 
....................       0x08,                         //     Row/col addr, bottom-top refresh 
....................     ST77XX_CASET  , 4,              //  5: Column addr set, 4 args, no delay: 
....................       0x00, 
....................       ST7789_240x240_XSTART,        //     XSTART = 0 
....................       ((long)WIDTH+ST7789_240x240_XSTART)>>8, 
....................       (WIDTH+ST7789_240x240_XSTART)&0xFF,  //     XEND = 240 
....................     ST77XX_RASET  , 4,              //  6: Row addr set, 4 args, no delay: 
....................       0x00, 
....................       0,//ST7789_240x240_YSTART,             //     YSTART = 0 
....................       (HEIGHT+ST7789_240x240_YSTART)>>8, 
....................       (HEIGHT+ST7789_240x240_YSTART)&0xFF,  //     YEND = 240 
....................     ST77XX_INVON  ,   ST_CMD_DELAY,  //  7: hack 
....................       10, 
....................     ST77XX_NORON  ,   ST_CMD_DELAY, //  8: Normal display on, no args, w/delay 
....................       10,                           //     10 ms delay 
....................     ST77XX_DISPON ,   ST_CMD_DELAY, //  9: Main screen turn on, no args, delay 
....................     255 };                          //     255 = max (500 ms) delay 
....................  
.................... //*************************** User Functions ***************************// 
.................... void tft_init(void); 
....................  
.................... void drawPixel(uint16_t x, uint8_t y, uint16_t color); 
.................... void drawHLine(uint16_t x, uint8_t y, uint8_t w, uint16_t color); 
.................... void drawVLine(uint16_t x, uint8_t y, uint8_t h, uint16_t color); 
.................... void fillRect(uint16_t x, uint8_t y, uint8_t w, uint8_t h, uint16_t color); 
.................... void fillScreen(uint16_t color); 
.................... void setRotation(uint8_t m); 
.................... void invertDisplay(bool i); 
....................  
.................... void tft_putc(char c); 
.................... void printDisp(uint8_t x, uint8_t y, uint16_t color, uint16_t b_color, int ch[5]); 
.................... void tft_gotoxy(uint8_t x, uint8_t y); 
....................  
.................... //************************* Non User Functions *************************// 
.................... void startWrite(void); 
.................... void endWrite(void); 
.................... void displayInit(rom uint8_t *addr); 
.................... void writeCommand(uint8_t cmd); 
.................... void setAddrWindow(uint8_t x, uint8_t y, uint8_t w, uint8_t h); 
....................  
.................... /**************************************************************************/ 
.................... /*! 
....................     @brief  Call before issuing command(s) or data to display. Performs 
....................             chip-select (if required). Required 
....................             for all display types; not an SPI-specific function. 
.................... */ 
.................... /**************************************************************************/ 
.................... void startWrite(void) { 
....................   #ifdef TFT_CS 
....................     output_low(TFT_CS); 
*
0904:  BCF    F92.5
0906:  BCF    F89.5
....................   #endif 
0908:  RETURN 0
.................... } 
....................  
.................... /**************************************************************************/ 
.................... /*! 
....................     @brief  Call after issuing command(s) or data to display. Performs 
....................             chip-deselect (if required). Required 
....................             for all display types; not an SPI-specific function. 
.................... */ 
.................... /**************************************************************************/ 
.................... void endWrite(void) { 
....................   #ifdef TFT_CS 
....................     output_high(TFT_CS); 
*
0948:  BCF    F92.5
094A:  BSF    F89.5
....................   #endif 
094C:  RETURN 0
.................... } 
....................  
.................... /**************************************************************************/ 
.................... /*! 
....................     @brief  Write a single command byte to the display. Chip-select and 
....................             transaction must have been previously set -- this ONLY sets 
....................             the device to COMMAND mode, issues the byte and then restores 
....................             DATA mode. There is no corresponding explicit writeData() 
....................             function -- just use ST7789_SPI_XFER(). 
....................     @param  cmd  8-bit command to write. 
.................... */ 
.................... /**************************************************************************/ 
.................... void writeCommand(uint8_t cmd) { 
....................   output_low(TFT_DC); 
*
0938:  BCF    F94.6
093A:  BCF    F8B.6
....................   ST7789_SPI_XFER(cmd); 
093C:  MOVFF  202,203
0940:  RCALL  0928
....................   output_high(TFT_DC); 
0942:  BCF    F94.6
0944:  BSF    F8B.6
0946:  RETURN 0
.................... } 
....................  
.................... /**************************************************************************/ 
.................... /*! 
....................     @brief  Companion code to the initiliazation tables. Reads and issues 
....................             a series of LCD commands stored in ROM byte array. 
....................     @param  addr  Flash memory array with commands and data to send 
.................... */ 
.................... /**************************************************************************/ 
.................... void displayInit(rom uint8_t *addr){ 
....................   uint8_t  numCommands, numArgs; 
....................   uint16_t ms; 
....................   startWrite(); 
*
094E:  RCALL  0904
....................  
....................   numCommands = *addr++;   // Number of commands to follow 
0950:  MOVLB  1
0952:  MOVF   xAF,W
0954:  MOVWF  03
0956:  MOVF   xAE,W
0958:  INCF   xAE,F
095A:  BTFSC  FD8.2
095C:  INCF   xAF,F
095E:  MOVWF  FF6
0960:  MOVFF  03,FF7
0964:  CLRF   FF8
0966:  MOVLW  01
0968:  MOVWF  FEA
096A:  MOVLW  B4
096C:  MOVWF  FE9
096E:  CLRF   xB6
0970:  MOVLW  01
0972:  MOVWF  xB5
0974:  MOVLB  0
0976:  RCALL  090A
0978:  MOVFF  1B4,1B0
....................    
....................   while(numCommands--) {                 // For each command... 
097C:  MOVLB  1
097E:  MOVF   xB0,W
0980:  DECF   xB0,F
0982:  XORLW  00
0984:  BTFSC  FD8.2
0986:  BRA    0A8A
....................  
....................     writeCommand(*addr++); // Read, issue command 
0988:  MOVF   xAF,W
098A:  MOVWF  03
098C:  MOVF   xAE,W
098E:  INCF   xAE,F
0990:  BTFSC  FD8.2
0992:  INCF   xAF,F
0994:  MOVWF  FF6
0996:  MOVFF  03,FF7
099A:  CLRF   FF8
099C:  MOVLW  01
099E:  MOVWF  FEA
09A0:  MOVLW  B4
09A2:  MOVWF  FE9
09A4:  CLRF   xB6
09A6:  MOVLW  01
09A8:  MOVWF  xB5
09AA:  MOVLB  0
09AC:  RCALL  090A
09AE:  MOVFF  1B4,202
09B2:  RCALL  0938
....................     numArgs  = *addr++;    // Number of args to follow 
09B4:  MOVLB  1
09B6:  MOVF   xAF,W
09B8:  MOVWF  03
09BA:  MOVF   xAE,W
09BC:  INCF   xAE,F
09BE:  BTFSC  FD8.2
09C0:  INCF   xAF,F
09C2:  MOVWF  FF6
09C4:  MOVFF  03,FF7
09C8:  CLRF   FF8
09CA:  MOVLW  01
09CC:  MOVWF  FEA
09CE:  MOVLW  B4
09D0:  MOVWF  FE9
09D2:  CLRF   xB6
09D4:  MOVLW  01
09D6:  MOVWF  xB5
09D8:  MOVLB  0
09DA:  RCALL  090A
09DC:  MOVFF  1B4,1B1
....................     ms       = numArgs & ST_CMD_DELAY;   // If hibit set, delay follows args 
09E0:  MOVLB  1
09E2:  MOVF   xB1,W
09E4:  ANDLW  80
09E6:  MOVWF  xB2
09E8:  CLRF   xB3
....................     numArgs &= ~ST_CMD_DELAY;            // Mask out delay bit 
09EA:  BCF    xB1.7
....................     while(numArgs--) {                   // For each argument... 
09EC:  MOVF   xB1,W
09EE:  DECF   xB1,F
09F0:  XORLW  00
09F2:  BZ    0A24
....................       ST7789_SPI_XFER(*addr++);   // Read, issue argument 
09F4:  MOVF   xAF,W
09F6:  MOVWF  03
09F8:  MOVF   xAE,W
09FA:  INCF   xAE,F
09FC:  BTFSC  FD8.2
09FE:  INCF   xAF,F
0A00:  MOVWF  FF6
0A02:  MOVFF  03,FF7
0A06:  CLRF   FF8
0A08:  MOVLW  01
0A0A:  MOVWF  FEA
0A0C:  MOVLW  B4
0A0E:  MOVWF  FE9
0A10:  CLRF   xB6
0A12:  MOVLW  01
0A14:  MOVWF  xB5
0A16:  MOVLB  0
0A18:  RCALL  090A
0A1A:  MOVFF  1B4,203
0A1E:  RCALL  0928
0A20:  MOVLB  1
0A22:  BRA    09EC
....................     } 
....................  
....................     if(ms) { 
0A24:  MOVF   xB2,W
0A26:  IORWF  xB3,W
0A28:  BZ    0A88
....................       ms = *addr++; // Read post-command delay time (ms) 
0A2A:  MOVF   xAF,W
0A2C:  MOVWF  03
0A2E:  MOVF   xAE,W
0A30:  INCF   xAE,F
0A32:  BTFSC  FD8.2
0A34:  INCF   xAF,F
0A36:  MOVWF  FF6
0A38:  MOVFF  03,FF7
0A3C:  CLRF   FF8
0A3E:  MOVLW  01
0A40:  MOVWF  FEA
0A42:  MOVLW  B4
0A44:  MOVWF  FE9
0A46:  CLRF   xB6
0A48:  MOVLW  01
0A4A:  MOVWF  xB5
0A4C:  MOVLB  0
0A4E:  RCALL  090A
0A50:  MOVLB  1
0A52:  CLRF   xB3
0A54:  MOVFF  1B4,1B2
....................       if(ms == 255) ms = 500;     // If 255, delay for 500 ms 
0A58:  INCFSZ xB2,W
0A5A:  BRA    0A68
0A5C:  MOVF   xB3,F
0A5E:  BNZ   0A68
0A60:  MOVLW  01
0A62:  MOVWF  xB3
0A64:  MOVLW  F4
0A66:  MOVWF  xB2
....................       delay_ms(ms); 
0A68:  MOVFF  1B3,1B4
0A6C:  INCF   xB4,F
0A6E:  DECF   xB4,F
0A70:  BTFSC  FD8.2
0A72:  BRA    0A7E
0A74:  SETF   xDE
0A76:  MOVLB  0
0A78:  RCALL  08DC
0A7A:  MOVLB  1
0A7C:  BRA    0A6E
0A7E:  MOVFF  1B2,1DE
0A82:  MOVLB  0
0A84:  RCALL  08DC
0A86:  MOVLB  1
....................     } 
0A88:  BRA    097E
....................   } 
....................   endWrite(); 
0A8A:  MOVLB  0
0A8C:  RCALL  0948
0A8E:  GOTO   0DD4 (RETURN)
.................... } 
....................  
.................... /**************************************************************************/ 
.................... /*! 
....................     @brief  Initialization code for ST7789 display 
.................... */ 
.................... /**************************************************************************/ 
.................... void tft_init() { 
....................   #ifdef TFT_RST 
....................     output_high(TFT_RST); 
....................     output_drive(TFT_RST); 
....................     delay_ms(100); 
....................     output_low(TFT_RST); 
....................     delay_ms(100); 
....................     output_high(TFT_RST); 
....................     delay_ms(200); 
....................   #endif 
....................  
....................   #ifdef TFT_CS 
....................     output_high(TFT_CS); 
*
0DBE:  BCF    F92.5
0DC0:  BSF    F89.5
....................     output_drive(TFT_CS); 
0DC2:  BCF    F92.5
....................   #endif 
....................  
....................   output_drive(TFT_DC); 
0DC4:  BCF    F94.6
....................  
....................   displayInit(cmd_240x240); 
0DC6:  MOVLW  7F
0DC8:  MOVLB  1
0DCA:  MOVWF  xAF
0DCC:  MOVLW  DC
0DCE:  MOVWF  xAE
0DD0:  MOVLB  0
0DD2:  BRA    094E
....................  
....................   _colstart = 53;//ST7789_240x240_XSTART; 
0DD4:  MOVLW  35
0DD6:  MOVLB  1
0DD8:  MOVWF  x6C
....................   _rowstart = 40;//ST7789_240x240_YSTART; 
0DDA:  MOVLW  28
0DDC:  MOVWF  x6D
....................   _height   = 135;//HEIGHT; 
0DDE:  MOVLW  87
0DE0:  MOVWF  x69
....................   _width    = 240;//WIDTH; 
0DE2:  MOVLW  F0
0DE4:  MOVWF  x68
....................    
....................   X = X_BEGIN; 
0DE6:  MOVFF  170,173
....................   Y= Y_BEGIN; 
0DEA:  MOVFF  172,174
....................   CARRIAGEX = X; 
0DEE:  MOVFF  173,175
....................   CARRIAGEY = Y; 
0DF2:  MOVFF  174,176
....................    
....................   setRotation(3); 
0DF6:  MOVLW  03
0DF8:  MOVWF  xAE
0DFA:  MOVLB  0
0DFC:  BRA    0ABE
....................   //invertDisplay(0); 
....................   delay_ms(1); 
0DFE:  MOVLW  01
0E00:  MOVLB  1
0E02:  MOVWF  xDE
0E04:  MOVLB  0
0E06:  RCALL  08DC
....................   fillScreen(BG_COLOR); 
0E08:  MOVLB  1
0E0A:  CLRF   xB1
0E0C:  CLRF   xB0
0E0E:  MOVLB  0
0E10:  RCALL  0DA0
0E12:  GOTO   640A (RETURN)
....................    
....................    
.................... } 
....................  
.................... /**************************************************************************/ 
.................... /*! 
....................   @brief  SPI displays set an address window rectangle for blitting pixels 
....................   @param  x  Top left corner x coordinate 
....................   @param  y  Top left corner x coordinate 
....................   @param  w  Width of window 
....................   @param  h  Height of window 
.................... */ 
.................... /**************************************************************************/ 
.................... void setAddrWindow(uint16_t x, uint8_t y, uint8_t w, uint8_t h) { 
....................   x += _xstart; 
*
0BB6:  MOVLB  1
0BB8:  MOVF   x6A,W
0BBA:  ADDWF  xF9,F
0BBC:  MOVLW  00
0BBE:  ADDWFC xFA,F
....................   uint8_t xHi = x>>8; 
....................   uint8_t xLo = x&0xFF; 
0BC0:  MOVFF  1FA,1FE
0BC4:  MOVFF  1F9,1FF
....................   x+=(w-1); 
0BC8:  MOVLW  01
0BCA:  SUBWF  xFC,W
0BCC:  ADDWF  xF9,F
0BCE:  MOVLW  00
0BD0:  ADDWFC xFA,F
....................   uint8_t wHi = x>>8; 
....................   uint8_t wLo = x&0xFF; 
0BD2:  MOVFF  1FA,200
0BD6:  MOVFF  1F9,201
0BDA:  MOVLB  2
....................   y += _ystart; 
0BDC:  MOVLB  1
0BDE:  MOVF   x6B,W
0BE0:  ADDWF  xFB,F
....................  
....................   writeCommand(ST77XX_CASET); // Column addr set 
0BE2:  MOVLW  2A
0BE4:  MOVLB  2
0BE6:  MOVWF  x02
0BE8:  MOVLB  0
0BEA:  RCALL  0938
....................   ST7789_SPI_XFER(xHi); 
0BEC:  MOVFF  1FE,203
0BF0:  RCALL  0928
....................   ST7789_SPI_XFER(xLo); 
0BF2:  MOVFF  1FF,203
0BF6:  RCALL  0928
....................   ST7789_SPI_XFER(wHi); 
0BF8:  MOVFF  200,203
0BFC:  RCALL  0928
....................   ST7789_SPI_XFER(wLo); 
0BFE:  MOVFF  201,203
0C02:  RCALL  0928
....................  
....................   writeCommand(ST77XX_RASET); // Row addr set 
0C04:  MOVLW  2B
0C06:  MOVLB  2
0C08:  MOVWF  x02
0C0A:  MOVLB  0
0C0C:  RCALL  0938
....................   ST7789_SPI_XFER(0); 
0C0E:  MOVLB  2
0C10:  CLRF   x03
0C12:  MOVLB  0
0C14:  RCALL  0928
....................   ST7789_SPI_XFER(y); 
0C16:  MOVFF  1FB,203
0C1A:  RCALL  0928
....................   ST7789_SPI_XFER(0); 
0C1C:  MOVLB  2
0C1E:  CLRF   x03
0C20:  MOVLB  0
0C22:  RCALL  0928
....................   ST7789_SPI_XFER(y+h-1); 
0C24:  MOVLB  1
0C26:  MOVF   xFD,W
0C28:  ADDWF  xFB,W
0C2A:  ADDLW  FF
0C2C:  MOVLB  2
0C2E:  MOVWF  x02
0C30:  MOVWF  x03
0C32:  MOVLB  0
0C34:  RCALL  0928
....................  
....................   writeCommand(ST77XX_RAMWR); // write to RAM 
0C36:  MOVLW  2C
0C38:  MOVLB  2
0C3A:  MOVWF  x02
0C3C:  MOVLB  0
0C3E:  RCALL  0938
0C40:  RETURN 0
.................... } 
....................  
.................... /**************************************************************************/ 
.................... /*! 
....................     @brief  Set origin of (0,0) and orientation of TFT display 
....................     @param  m  The index for rotation, from 0-3 inclusive 
.................... */ 
.................... /**************************************************************************/ 
.................... void setRotation(uint8_t m) { 
*
0ABE:  MOVLB  1
0AC0:  CLRF   xAF
....................   uint8_t madctl = 0; 
....................  
....................   rotation = m & 3; // can't be higher than 3 
0AC2:  MOVF   xAE,W
0AC4:  ANDLW  03
0AC6:  MOVWF  x6E
....................  
....................   switch (rotation) { 
0AC8:  MOVF   x6E,W
0ACA:  ADDLW  FC
0ACC:  BC    0B2C
0ACE:  ADDLW  04
0AD0:  MOVLB  0
0AD2:  GOTO   0B94
....................    case 0: 
....................      madctl  = ST77XX_MADCTL_MX | ST77XX_MADCTL_MY | ST77XX_MADCTL_RGB; 
0AD6:  MOVLW  C0
0AD8:  MOVLB  1
0ADA:  MOVWF  xAF
....................      _xstart = _colstart; 
0ADC:  MOVFF  16C,16A
....................      _ystart = _rowstart; 
0AE0:  MOVFF  16D,16B
....................      _width = WIDTH; 
0AE4:  MOVLW  F0
0AE6:  MOVWF  x68
....................      _height = HEIGHT; 
0AE8:  MOVWF  x69
....................      break; 
0AEA:  BRA    0B2C
....................    case 1: 
....................      madctl  = ST77XX_MADCTL_MY | ST77XX_MADCTL_MV | ST77XX_MADCTL_RGB; 
0AEC:  MOVLW  A0
0AEE:  MOVLB  1
0AF0:  MOVWF  xAF
....................      _xstart = _rowstart; 
0AF2:  MOVFF  16D,16A
....................      _ystart = _colstart; 
0AF6:  MOVFF  16C,16B
....................      _width = HEIGHT; 
0AFA:  MOVLW  F0
0AFC:  MOVWF  x68
....................      _height = WIDTH; 
0AFE:  MOVWF  x69
....................       
....................      break; 
0B00:  BRA    0B2C
....................   case 2: 
....................      madctl  = ST77XX_MADCTL_RGB; 
0B02:  MOVLB  1
0B04:  CLRF   xAF
....................      _xstart = 0; 
0B06:  CLRF   x6A
....................      _ystart = 0; 
0B08:  CLRF   x6B
....................      _width = WIDTH; 
0B0A:  MOVLW  F0
0B0C:  MOVWF  x68
....................      _height = HEIGHT; 
0B0E:  MOVWF  x69
....................      break; 
0B10:  BRA    0B2C
....................    case 3: 
....................      madctl  = ST77XX_MADCTL_MX | ST77XX_MADCTL_MV | ST77XX_MADCTL_RGB; 
0B12:  MOVLW  60
0B14:  MOVLB  1
0B16:  MOVWF  xAF
....................      _xstart = _rowstart; 
0B18:  MOVFF  16D,16A
....................      _ystart = _colstart; 
0B1C:  MOVFF  16C,16B
....................      _width = 240; 
0B20:  MOVLW  F0
0B22:  MOVWF  x68
....................      _height = 135; 
0B24:  MOVLW  87
0B26:  MOVWF  x69
....................      break; 
0B28:  BRA    0B2C
0B2A:  MOVLB  1
....................   } 
....................   X_MAX = ((_width/6)-2); 
0B2C:  MOVFF  168,1DE
0B30:  MOVLW  06
0B32:  MOVWF  xDF
0B34:  MOVLB  0
0B36:  RCALL  0A92
0B38:  MOVLW  02
0B3A:  SUBWF  01,W
0B3C:  MOVLB  1
0B3E:  MOVWF  x6F
....................   X_BEGIN = (_width/X_MAX)/2; 
0B40:  MOVFF  168,1DE
0B44:  MOVFF  16F,1DF
0B48:  MOVLB  0
0B4A:  RCALL  0A92
0B4C:  BCF    FD8.0
0B4E:  RRCF   01,W
0B50:  MOVLB  1
0B52:  MOVWF  x70
....................   Y_MAX = ((_height/8)-1); 
0B54:  RRCF   x69,W
0B56:  MOVWF  00
0B58:  RRCF   00,F
0B5A:  RRCF   00,F
0B5C:  MOVLW  1F
0B5E:  ANDWF  00,F
0B60:  MOVF   00,W
0B62:  ADDLW  FF
0B64:  MOVWF  x71
....................   Y_BEGIN = (_height/Y_MAX)+1; 
0B66:  MOVFF  169,1DE
0B6A:  MOVFF  171,1DF
0B6E:  MOVLB  0
0B70:  RCALL  0A92
0B72:  MOVLW  01
0B74:  ADDWF  01,W
0B76:  MOVLB  1
0B78:  MOVWF  x72
....................   startWrite(); 
0B7A:  MOVLB  0
0B7C:  RCALL  0904
....................   writeCommand(ST77XX_MADCTL); 
0B7E:  MOVLW  36
0B80:  MOVLB  2
0B82:  MOVWF  x02
0B84:  MOVLB  0
0B86:  RCALL  0938
....................   ST7789_SPI_XFER(madctl); 
0B88:  MOVFF  1AF,203
0B8C:  RCALL  0928
....................   endWrite(); 
0B8E:  RCALL  0948
0B90:  GOTO   0DFE (RETURN)
.................... } 
....................  
.................... void drawPixel(uint16_t x, uint8_t y, uint16_t color) { 
....................   if((x < _width) && (y < _height)) { 
*
0EBC:  MOVLB  1
0EBE:  MOVF   xEB,F
0EC0:  BNZ   0F0E
0EC2:  MOVF   x68,W
0EC4:  SUBWF  xEA,W
0EC6:  BC    0F0E
0EC8:  MOVF   x69,W
0ECA:  SUBWF  xEC,W
0ECC:  BC    0F0E
....................     startWrite(); 
0ECE:  MOVLB  0
0ED0:  RCALL  0904
....................     setAddrWindow(x, y, 1, 1); 
0ED2:  MOVFF  1EB,1FA
0ED6:  MOVFF  1EA,1F9
0EDA:  MOVFF  1EC,1FB
0EDE:  MOVLW  01
0EE0:  MOVLB  1
0EE2:  MOVWF  xFC
0EE4:  MOVWF  xFD
0EE6:  MOVLB  0
0EE8:  RCALL  0BB6
....................     ST7789_SPI_XFER(color >> 8); 
0EEA:  MOVFF  1EE,1EF
0EEE:  MOVLB  1
0EF0:  CLRF   xF0
0EF2:  MOVFF  1EE,203
0EF6:  MOVLB  0
0EF8:  RCALL  0928
....................     ST7789_SPI_XFER(color & 0xFF); 
0EFA:  MOVLB  1
0EFC:  MOVFF  1ED,1EF
0F00:  CLRF   xF0
0F02:  MOVFF  1ED,203
0F06:  MOVLB  0
0F08:  RCALL  0928
....................     endWrite(); 
0F0A:  RCALL  0948
0F0C:  MOVLB  1
....................   } 
0F0E:  MOVLB  0
0F10:  RETURN 0
.................... } 
....................  
.................... /**************************************************************************/ 
.................... /*! 
....................    @brief    Draw a perfectly horizontal line (this is often optimized in a subclass!) 
....................     @param    x   Left-most x coordinate 
....................     @param    y   Left-most y coordinate 
....................     @param    w   Width in pixels 
....................    @param    color 16-bit 5-6-5 Color to fill with 
.................... */ 
.................... /**************************************************************************/ 
.................... void drawHLine(uint16_t x, uint8_t y, uint8_t w, uint16_t color) { 
....................   if( (x < _width) && (y < _height) && w) {    
*
144E:  MOVLB  1
1450:  MOVF   xB8,F
1452:  BNZ   14EA
1454:  MOVF   x68,W
1456:  SUBWF  xB7,W
1458:  BC    14EA
145A:  MOVF   x69,W
145C:  SUBWF  xB9,W
145E:  BC    14EA
1460:  MOVF   xBA,F
1462:  BZ    14EA
....................     uint8_t hi = color >> 8, lo = color; 
1464:  MOVFF  1BC,1BD
1468:  MOVFF  1BB,1BE
....................  
....................     if((x >= _width) || (y >= _height)) 
146C:  MOVF   xB8,F
146E:  BNZ   147C
1470:  MOVF   x68,W
1472:  SUBWF  xB7,W
1474:  BC    147C
1476:  MOVF   x69,W
1478:  SUBWF  xB9,W
147A:  BNC   147E
....................       return; 
147C:  BRA    14EA
....................     if((x + w - 1) >= _width)   
147E:  MOVF   xBA,W
1480:  ADDWF  xB7,W
1482:  MOVWF  xBF
1484:  MOVLW  00
1486:  ADDWFC xB8,W
1488:  MOVWF  xC0
148A:  MOVLW  01
148C:  SUBWF  xBF,F
148E:  MOVLW  00
1490:  SUBWFB xC0,F
1492:  BNZ   149A
1494:  MOVF   x68,W
1496:  SUBWF  xBF,W
1498:  BNC   14A0
....................       w = _width  - x; 
149A:  MOVF   xB7,W
149C:  SUBWF  x68,W
149E:  MOVWF  xBA
....................     startWrite(); 
14A0:  MOVLB  0
14A2:  CALL   0904
....................     setAddrWindow(x, y, w, 1); 
14A6:  MOVFF  1B8,1FA
14AA:  MOVFF  1B7,1F9
14AE:  MOVFF  1B9,1FB
14B2:  MOVFF  1BA,1FC
14B6:  MOVLW  01
14B8:  MOVLB  1
14BA:  MOVWF  xFD
14BC:  MOVLB  0
14BE:  CALL   0BB6
....................     while (w--) { 
14C2:  MOVLB  1
14C4:  MOVF   xBA,W
14C6:  DECF   xBA,F
14C8:  XORLW  00
14CA:  BZ    14E2
....................       ST7789_SPI_XFER(hi); 
14CC:  MOVFF  1BD,203
14D0:  MOVLB  0
14D2:  CALL   0928
....................       ST7789_SPI_XFER(lo); 
14D6:  MOVFF  1BE,203
14DA:  CALL   0928
14DE:  BRA    14C2
14E0:  MOVLB  1
....................     } 
....................     endWrite(); 
14E2:  MOVLB  0
14E4:  CALL   0948
14E8:  MOVLB  1
....................   } 
14EA:  MOVLB  0
14EC:  RETURN 0
.................... } 
....................  
.................... /**************************************************************************/ 
.................... /*! 
....................    @brief    Draw a perfectly vertical line (this is often optimized in a subclass!) 
....................     @param    x   Top-most x coordinate 
....................     @param    y   Top-most y coordinate 
....................     @param    h   Height in pixels 
....................    @param    color 16-bit 5-6-5 Color to fill with 
.................... */ 
.................... /**************************************************************************/ 
.................... void drawVLine(uint16_t x, uint8_t y, uint8_t h, uint16_t color) { 
....................   if( (x < _width) && (y < _height) && h) {   
14EE:  MOVLB  1
14F0:  MOVF   xE6,F
14F2:  BNZ   1568
14F4:  MOVF   x68,W
14F6:  SUBWF  xE5,W
14F8:  BC    1568
14FA:  MOVF   x69,W
14FC:  SUBWF  xE7,W
14FE:  BC    1568
1500:  MOVF   xE8,F
1502:  BZ    1568
....................     uint8_t hi = color >> 8, lo = color; 
1504:  MOVFF  1EA,1EB
1508:  MOVFF  1E9,1EC
....................     if((y + h - 1) >= _height)  
150C:  MOVF   xE8,W
150E:  ADDWF  xE7,W
1510:  ADDLW  FF
1512:  SUBWF  x69,W
1514:  BZ    1518
1516:  BC    151E
....................       h = _height - y; 
1518:  MOVF   xE7,W
151A:  SUBWF  x69,W
151C:  MOVWF  xE8
....................     startWrite(); 
151E:  MOVLB  0
1520:  CALL   0904
....................     setAddrWindow(x, y, 1, h); 
1524:  MOVFF  1E6,1FA
1528:  MOVFF  1E5,1F9
152C:  MOVFF  1E7,1FB
1530:  MOVLW  01
1532:  MOVLB  1
1534:  MOVWF  xFC
1536:  MOVFF  1E8,1FD
153A:  MOVLB  0
153C:  CALL   0BB6
....................     while (h--) { 
1540:  MOVLB  1
1542:  MOVF   xE8,W
1544:  DECF   xE8,F
1546:  XORLW  00
1548:  BZ    1560
....................       ST7789_SPI_XFER(hi); 
154A:  MOVFF  1EB,203
154E:  MOVLB  0
1550:  CALL   0928
....................       ST7789_SPI_XFER(lo); 
1554:  MOVFF  1EC,203
1558:  CALL   0928
155C:  BRA    1540
155E:  MOVLB  1
....................     } 
....................     endWrite(); 
1560:  MOVLB  0
1562:  CALL   0948
1566:  MOVLB  1
....................   } 
1568:  MOVLB  0
156A:  RETURN 0
.................... } 
....................  
.................... /**************************************************************************/ 
.................... /*! 
....................    @brief    Fill a rectangle completely with one color. Update in subclasses if desired! 
....................     @param    x   Top left corner x coordinate 
....................     @param    y   Top left corner y coordinate 
....................     @param    w   Width in pixels 
....................     @param    h   Height in pixels 
....................    @param    color 16-bit 5-6-5 Color to fill with 
.................... */ 
.................... /**************************************************************************/ 
.................... void fillRect(uint16_t x, uint8_t y, uint8_t w, uint8_t h, uint16_t color) { 
....................   if(w && h) {                            // Nonzero width and height?   
*
0C9E:  MOVLB  1
0CA0:  MOVF   xEB,F
0CA2:  BTFSC  FD8.2
0CA4:  BRA    0D9C
0CA6:  MOVF   xEC,F
0CA8:  BTFSC  FD8.2
0CAA:  BRA    0D9C
....................     uint8_t hi = color >> 8, lo = color; 
0CAC:  MOVFF  1EE,1EF
0CB0:  MOVFF  1ED,1F0
....................     if((x >= _width) || (y >= _height)) 
0CB4:  MOVF   xE9,F
0CB6:  BNZ   0CC4
0CB8:  MOVF   x68,W
0CBA:  SUBWF  xE8,W
0CBC:  BC    0CC4
0CBE:  MOVF   x69,W
0CC0:  SUBWF  xEA,W
0CC2:  BNC   0CC6
....................       return; 
0CC4:  BRA    0D9C
....................     if((x + w - 1) >= _width)   
0CC6:  MOVF   xEB,W
0CC8:  ADDWF  xE8,W
0CCA:  MOVWF  xF5
0CCC:  MOVLW  00
0CCE:  ADDWFC xE9,W
0CD0:  MOVWF  xF6
0CD2:  MOVLW  01
0CD4:  SUBWF  xF5,F
0CD6:  MOVLW  00
0CD8:  SUBWFB xF6,F
0CDA:  BNZ   0CE2
0CDC:  MOVF   x68,W
0CDE:  SUBWF  xF5,W
0CE0:  BNC   0CE8
....................       w = _width  - x; 
0CE2:  MOVF   xE8,W
0CE4:  SUBWF  x68,W
0CE6:  MOVWF  xEB
....................     if((y + h - 1) >= _height)  
0CE8:  MOVF   xEC,W
0CEA:  ADDWF  xEA,W
0CEC:  ADDLW  FF
0CEE:  SUBWF  x69,W
0CF0:  BZ    0CF4
0CF2:  BC    0CFA
....................       h = _height - y; 
0CF4:  MOVF   xEA,W
0CF6:  SUBWF  x69,W
0CF8:  MOVWF  xEC
....................     startWrite(); 
0CFA:  MOVLB  0
0CFC:  RCALL  0904
....................     setAddrWindow(x, y, w, h); 
0CFE:  MOVFF  1E9,1FA
0D02:  MOVFF  1E8,1F9
0D06:  MOVFF  1EA,1FB
0D0A:  MOVFF  1EB,1FC
0D0E:  MOVFF  1EC,1FD
0D12:  RCALL  0BB6
....................     uint32_t px = (uint32_t)w * h; 
0D14:  MOVLB  1
0D16:  CLRF   xF8
0D18:  CLRF   xF7
0D1A:  CLRF   xF6
0D1C:  MOVFF  1EB,1F5
0D20:  MOVFF  1F8,1FC
0D24:  MOVFF  1F7,1FB
0D28:  MOVFF  1F6,1FA
0D2C:  MOVFF  1EB,1F9
0D30:  MOVLB  2
0D32:  CLRF   x00
0D34:  MOVLB  1
0D36:  CLRF   xFF
0D38:  CLRF   xFE
0D3A:  MOVFF  1EC,1FD
0D3E:  MOVLB  0
0D40:  BRA    0C42
0D42:  MOVFF  03,1F4
0D46:  MOVFF  02,1F3
0D4A:  MOVFF  01,1F2
0D4E:  MOVFF  00,1F1
....................     while (px--) { 
0D52:  MOVLB  1
0D54:  MOVFF  1F4,03
0D58:  MOVFF  1F3,02
0D5C:  MOVFF  1F2,01
0D60:  MOVFF  1F1,00
0D64:  MOVLW  FF
0D66:  ADDWF  xF1,F
0D68:  BTFSS  FD8.0
0D6A:  ADDWF  xF2,F
0D6C:  BTFSS  FD8.0
0D6E:  ADDWF  xF3,F
0D70:  BTFSS  FD8.0
0D72:  ADDWF  xF4,F
0D74:  MOVF   00,F
0D76:  BNZ   0D84
0D78:  MOVF   01,F
0D7A:  BNZ   0D84
0D7C:  MOVF   02,F
0D7E:  BNZ   0D84
0D80:  MOVF   03,F
0D82:  BZ    0D96
....................       ST7789_SPI_XFER(hi); 
0D84:  MOVFF  1EF,203
0D88:  MOVLB  0
0D8A:  RCALL  0928
....................       ST7789_SPI_XFER(lo); 
0D8C:  MOVFF  1F0,203
0D90:  RCALL  0928
0D92:  BRA    0D52
0D94:  MOVLB  1
....................     } 
....................     endWrite(); 
0D96:  MOVLB  0
0D98:  RCALL  0948
0D9A:  MOVLB  1
....................   } 
0D9C:  MOVLB  0
0D9E:  RETURN 0
.................... } 
....................  
.................... /**************************************************************************/ 
.................... /*! 
....................    @brief    Fill the screen completely with one color. Update in subclasses if desired! 
....................     @param    color 16-bit 5-6-5 Color to fill with 
.................... */ 
.................... /**************************************************************************/ 
.................... void fillScreen(uint16_t color) { 
....................     fillRect(0, 0, _width, _height, color); 
0DA0:  MOVLB  1
0DA2:  CLRF   xE9
0DA4:  CLRF   xE8
0DA6:  CLRF   xEA
0DA8:  MOVFF  168,1EB
0DAC:  MOVFF  169,1EC
0DB0:  MOVFF  1B1,1EE
0DB4:  MOVFF  1B0,1ED
0DB8:  MOVLB  0
0DBA:  RCALL  0C9E
0DBC:  RETURN 0
.................... } 
....................  
.................... /**************************************************************************/ 
.................... /*! 
....................     @brief  Invert the colors of the display (if supported by hardware). 
....................             Self-contained, no transaction setup required. 
....................     @param  i  true = inverted display, false = normal display. 
.................... */ 
.................... /**************************************************************************/ 
.................... void invertDisplay(bool i) { 
....................     startWrite(); 
....................     writeCommand(i ? ST77XX_INVON : ST77XX_INVOFF); 
....................     endWrite(); 
.................... } 
....................  
.................... void printDisp(uint8_t x, uint8_t y, uint16_t f_color, uint16_t b_color, int ch[5]){ 
....................    for(int i=0;i<5;i++){ 
*
0F12:  MOVLB  1
0F14:  CLRF   xE6
0F16:  MOVF   xE6,W
0F18:  SUBLW  04
0F1A:  BNC   0F9A
....................       for(int j=0;j<8;j++){ 
0F1C:  CLRF   xE7
0F1E:  MOVF   xE7,W
0F20:  SUBLW  07
0F22:  BNC   0F96
....................          if((ch[i]>>j)&1)  drawPixel(x+i, y-7+j, f_color); 
0F24:  MOVF   xE6,W
0F26:  ADDWF  xE4,W
0F28:  MOVWF  FE9
0F2A:  MOVLW  00
0F2C:  ADDWFC xE5,W
0F2E:  MOVWF  FEA
0F30:  MOVFF  FEF,00
0F34:  MOVF   xE7,W
0F36:  MOVWF  01
0F38:  BZ    0F42
0F3A:  BCF    FD8.0
0F3C:  RRCF   00,F
0F3E:  DECFSZ 01,F
0F40:  BRA    0F3A
0F42:  MOVF   00,W
0F44:  ANDLW  01
0F46:  BZ    0F6E
0F48:  MOVF   xE6,W
0F4A:  ADDWF  xDE,W
0F4C:  MOVWF  xE8
0F4E:  MOVLW  07
0F50:  SUBWF  xDF,W
0F52:  ADDWF  xE7,W
0F54:  MOVWF  xE9
0F56:  CLRF   xEB
0F58:  MOVFF  1E8,1EA
0F5C:  MOVWF  xEC
0F5E:  MOVFF  1E1,1EE
0F62:  MOVFF  1E0,1ED
0F66:  MOVLB  0
0F68:  RCALL  0EBC
0F6A:  BRA    0F90
0F6C:  MOVLB  1
....................          else              drawPixel(x+i, y-7+j, b_color); 
0F6E:  MOVF   xE6,W
0F70:  ADDWF  xDE,W
0F72:  MOVWF  xE8
0F74:  MOVLW  07
0F76:  SUBWF  xDF,W
0F78:  ADDWF  xE7,W
0F7A:  MOVWF  xE9
0F7C:  CLRF   xEB
0F7E:  MOVFF  1E8,1EA
0F82:  MOVWF  xEC
0F84:  MOVFF  1E3,1EE
0F88:  MOVFF  1E2,1ED
0F8C:  MOVLB  0
0F8E:  RCALL  0EBC
0F90:  MOVLB  1
0F92:  INCF   xE7,F
0F94:  BRA    0F1E
....................       } 
0F96:  INCF   xE6,F
0F98:  BRA    0F16
....................    } 
0F9A:  MOVLB  0
0F9C:  GOTO   10B0 (RETURN)
.................... } 
....................  
.................... void tft_putc(char c){ 
....................    if(c=='\f'){ 
0FA0:  MOVLB  1
0FA2:  MOVF   xDB,W
0FA4:  SUBLW  0C
0FA6:  BNZ   0FD4
....................       fillRect(0, 0, CARRIAGEX, CARRIAGEY, BG_COLOR); 
0FA8:  CLRF   xE9
0FAA:  CLRF   xE8
0FAC:  CLRF   xEA
0FAE:  MOVFF  175,1EB
0FB2:  MOVFF  176,1EC
0FB6:  CLRF   xEE
0FB8:  CLRF   xED
0FBA:  MOVLB  0
0FBC:  RCALL  0C9E
....................       CARRIAGEX=X_BEGIN; 
0FBE:  MOVFF  170,175
....................       CARRIAGEY=Y_BEGIN; 
0FC2:  MOVFF  172,176
....................       tft_gotoxy(0,0); 
0FC6:  MOVLB  1
0FC8:  CLRF   xDC
0FCA:  CLRF   xDD
0FCC:  MOVLB  0
0FCE:  RCALL  0EA2
....................    }else if(c=='\n'){ 
0FD0:  BRA    1106
0FD2:  MOVLB  1
0FD4:  MOVF   xDB,W
0FD6:  SUBLW  0A
0FD8:  BNZ   0FE4
....................       Y+=8; 
0FDA:  MOVLW  08
0FDC:  ADDWF  x74,F
....................       X=X_BEGIN; 
0FDE:  MOVFF  170,173
....................    }else{ 
0FE2:  BRA    1104
....................       if(c>122){ 
0FE4:  MOVF   xDB,W
0FE6:  SUBLW  7A
0FE8:  BC    1068
....................          if(c>205){ 
0FEA:  MOVF   xDB,W
0FEC:  SUBLW  CD
0FEE:  BC    1026
....................             if(c<212) c=(c%3)+59; 
0FF0:  MOVF   xDB,W
0FF2:  SUBLW  D3
0FF4:  BNC   100C
0FF6:  MOVFF  1DB,1DE
0FFA:  MOVLW  03
0FFC:  MOVWF  xDF
0FFE:  MOVLB  0
1000:  RCALL  0A92
1002:  MOVLW  3B
1004:  ADDWF  00,W
1006:  MOVLB  1
1008:  MOVWF  xDB
100A:  BRA    1026
....................             else if(c<216) c=(c%2)+94; 
100C:  MOVF   xDB,W
100E:  SUBLW  D7
1010:  BNC   101C
1012:  MOVF   xDB,W
1014:  ANDLW  01
1016:  ADDLW  5E
1018:  MOVWF  xDB
101A:  BRA    1026
....................             else if(c==217) c=40; 
101C:  MOVF   xDB,W
101E:  SUBLW  D9
1020:  BNZ   1026
1022:  MOVLW  28
1024:  MOVWF  xDB
....................          } 
....................          if(c<220 && c>122) c=(c%11)+33; 
1026:  MOVF   xDB,W
1028:  SUBLW  DB
102A:  BNC   1046
102C:  MOVF   xDB,W
102E:  SUBLW  7A
1030:  BC    1046
1032:  MOVFF  1DB,1DE
1036:  MOVLW  0B
1038:  MOVWF  xDF
103A:  MOVLB  0
103C:  RCALL  0A92
103E:  MOVLW  21
1040:  ADDWF  00,W
1042:  MOVLB  1
1044:  MOVWF  xDB
....................          if(c==220) c=45; 
1046:  MOVF   xDB,W
1048:  SUBLW  DC
104A:  BNZ   1052
104C:  MOVLW  2D
104E:  MOVWF  xDB
1050:  BRA    1068
....................          else if(c==222) c=47; 
1052:  MOVF   xDB,W
1054:  SUBLW  DE
1056:  BNZ   105E
1058:  MOVLW  2F
105A:  MOVWF  xDB
105C:  BRA    1068
....................          else if(c==223) c=64; 
105E:  MOVF   xDB,W
1060:  SUBLW  DF
1062:  BNZ   1068
1064:  MOVLW  40
1066:  MOVWF  xDB
....................       } 
....................       printDisp(X, Y, TX_COLOR, BG_COLOR, letra[c-32]); 
1068:  MOVLW  20
106A:  SUBWF  xDB,W
106C:  MOVWF  xDD
106E:  CLRF   xEE
1070:  MOVWF  xED
1072:  CLRF   xF0
1074:  MOVLW  05
1076:  MOVWF  xEF
1078:  MOVLB  0
107A:  RCALL  0E16
107C:  MOVFF  02,03
1080:  MOVF   01,W
1082:  ADDLW  28
1084:  MOVWF  01
1086:  MOVLW  00
1088:  ADDWFC 03,F
108A:  MOVFF  01,1DC
108E:  MOVLB  1
1090:  MOVFF  03,1DD
1094:  MOVFF  173,1DE
1098:  MOVFF  174,1DF
109C:  SETF   xE1
109E:  SETF   xE0
10A0:  CLRF   xE3
10A2:  CLRF   xE2
10A4:  MOVFF  03,1E5
10A8:  MOVFF  01,1E4
10AC:  MOVLB  0
10AE:  BRA    0F12
....................       X+=6; 
10B0:  MOVLW  06
10B2:  MOVLB  1
10B4:  ADDWF  x73,F
....................       if(X>CARRIAGEX) CARRIAGEX=X; 
10B6:  MOVF   x73,W
10B8:  SUBWF  x75,W
10BA:  BTFSS  FD8.0
10BC:  MOVFF  173,175
....................       if(Y>CARRIAGEY) CARRIAGEY=Y; 
10C0:  MOVF   x74,W
10C2:  SUBWF  x76,W
10C4:  BTFSS  FD8.0
10C6:  MOVFF  174,176
....................       if((X-X_BEGIN)/6>X_MAX){ 
10CA:  MOVF   x70,W
10CC:  SUBWF  x73,W
10CE:  MOVWF  xDD
10D0:  MOVWF  xDE
10D2:  MOVLW  06
10D4:  MOVWF  xDF
10D6:  MOVLB  0
10D8:  RCALL  0A92
10DA:  MOVF   01,W
10DC:  MOVLB  1
10DE:  SUBWF  x6F,W
10E0:  BC    10EA
....................          X=X_BEGIN; 
10E2:  MOVFF  170,173
....................          Y+=8; 
10E6:  MOVLW  08
10E8:  ADDWF  x74,F
....................       } 
....................       if((Y-Y_BEGIN)/8>Y_MAX) Y=Y_BEGIN; 
10EA:  MOVF   x72,W
10EC:  SUBWF  x74,W
10EE:  MOVWF  00
10F0:  RRCF   00,F
10F2:  RRCF   00,F
10F4:  RRCF   00,F
10F6:  MOVLW  1F
10F8:  ANDWF  00,F
10FA:  MOVF   00,W
10FC:  SUBWF  x71,W
10FE:  BTFSS  FD8.0
1100:  MOVFF  172,174
1104:  MOVLB  0
....................    } 
1106:  RETURN 0
.................... } 
....................  
.................... void tft_gotoxy(uint8_t _x, uint8_t _y){ 
....................    X=X_BEGIN + 6*_x; 
*
0EA2:  MOVLB  1
0EA4:  MOVF   xDC,W
0EA6:  MULLW  06
0EA8:  MOVF   FF3,W
0EAA:  ADDWF  x70,W
0EAC:  MOVWF  x73
....................    Y=Y_BEGIN + 8*_y; 
0EAE:  MOVF   xDD,W
0EB0:  MULLW  08
0EB2:  MOVF   FF3,W
0EB4:  ADDWF  x72,W
0EB6:  MOVWF  x74
0EB8:  MOVLB  0
0EBA:  RETURN 0
.................... } 
.................... // end of code. 
....................  
.................... #include "Pad.c" 
.................... #ifndef _PAD 
.................... #define _PAD 
.................... #INT_EXT2  
.................... void isr_ext2(){ 
....................    if(input_state(C2)==0){ 
*
00C6:  BTFSC  F82.2
00C8:  BRA    0102
....................       if(input_state(F0)==0){       
00CA:  BTFSC  F81.4
00CC:  BRA    00D8
....................          if(input_state(F0)==0)ultimaTecla=_TICK; 
00CE:  BTFSC  F81.4
00D0:  BRA    00D6
00D2:  MOVLW  0B
00D4:  MOVWF  1B
....................          return; 
00D6:  BRA    0176
....................       } 
....................       if(input_state(F1)==0){       
00D8:  BTFSC  F81.5
00DA:  BRA    00E6
....................          if(input_state(F1)==0)ultimaTecla=9; 
00DC:  BTFSC  F81.5
00DE:  BRA    00E4
00E0:  MOVLW  09
00E2:  MOVWF  1B
....................          return; 
00E4:  BRA    0176
....................       } 
....................       if(input_state(F2)==0){       
00E6:  BTFSC  F81.6
00E8:  BRA    00F4
....................          if(input_state(F2)==0)ultimaTecla=6; 
00EA:  BTFSC  F81.6
00EC:  BRA    00F2
00EE:  MOVLW  06
00F0:  MOVWF  1B
....................          return; 
00F2:  BRA    0176
....................       } 
....................       if(input_state(F3)==0){       
00F4:  BTFSC  F81.7
00F6:  BRA    0102
....................          if(input_state(F3)==0)ultimaTecla=3; 
00F8:  BTFSC  F81.7
00FA:  BRA    0100
00FC:  MOVLW  03
00FE:  MOVWF  1B
....................          return; 
0100:  BRA    0176
....................       } 
....................    } 
....................    if(input_state(C1)==0){ 
0102:  BTFSC  F82.1
0104:  BRA    013C
....................       if(input_state(F0)==0){ 
0106:  BTFSC  F81.4
0108:  BRA    0112
....................          if(input_state(F0)==0)ultimaTecla=0; 
010A:  BTFSC  F81.4
010C:  BRA    0110
010E:  CLRF   1B
....................          return; 
0110:  BRA    0176
....................       } 
....................       if(input_state(F1)==0){ 
0112:  BTFSC  F81.5
0114:  BRA    0120
....................          if(input_state(F1)==0)ultimaTecla=8; 
0116:  BTFSC  F81.5
0118:  BRA    011E
011A:  MOVLW  08
011C:  MOVWF  1B
....................          return; 
011E:  BRA    0176
....................       } 
....................       if(input_state(F2)==0){ 
0120:  BTFSC  F81.6
0122:  BRA    012E
....................          if(input_state(F2)==0)ultimaTecla=5; 
0124:  BTFSC  F81.6
0126:  BRA    012C
0128:  MOVLW  05
012A:  MOVWF  1B
....................          return; 
012C:  BRA    0176
....................       } 
....................       if(input_state(F3)==0){ 
012E:  BTFSC  F81.7
0130:  BRA    013C
....................          if(input_state(F3)==0)ultimaTecla=2; 
0132:  BTFSC  F81.7
0134:  BRA    013A
0136:  MOVLW  02
0138:  MOVWF  1B
....................          return; 
013A:  BRA    0176
....................       } 
....................    } 
....................    if(input_state(C0)==0){ 
013C:  BTFSC  F82.0
013E:  BRA    0176
....................       if(input_state(F0)==0){       
0140:  BTFSC  F81.4
0142:  BRA    014E
....................          if(input_state(F0)==0)ultimaTecla=_X; 
0144:  BTFSC  F81.4
0146:  BRA    014C
0148:  MOVLW  0A
014A:  MOVWF  1B
....................          return; 
014C:  BRA    0176
....................       } 
....................       if(input_state(F1)==0){ 
014E:  BTFSC  F81.5
0150:  BRA    015C
....................          if(input_state(F1)==0)ultimaTecla=7; 
0152:  BTFSC  F81.5
0154:  BRA    015A
0156:  MOVLW  07
0158:  MOVWF  1B
....................          return; 
015A:  BRA    0176
....................       } 
....................       if(input_state(F2)==0){ 
015C:  BTFSC  F81.6
015E:  BRA    016A
....................          if(input_state(F2)==0)ultimaTecla=4; 
0160:  BTFSC  F81.6
0162:  BRA    0168
0164:  MOVLW  04
0166:  MOVWF  1B
....................          return; 
0168:  BRA    0176
....................       } 
....................       if(input_state(F3)==0){ 
016A:  BTFSC  F81.7
016C:  BRA    0176
....................          if(input_state(F3)==0)ultimaTecla=1; 
016E:  BTFSC  F81.7
0170:  BRA    0176
0172:  MOVLW  01
0174:  MOVWF  1B
....................          return; 
....................       } 
....................    } 
....................    return; 
.................... } 
0176:  BCF    FF0.1
0178:  GOTO   0078
.................... #INT_TIMER0 
.................... void isr_timer0(){ 
017C:  MOVF   F82,W
017E:  ANDLW  07
0180:  MOVLB  2
0182:  MOVWF  x07
....................    #USE FAST_IO (c) 
....................    int tecl=input_c()&7; 
....................    #USE STANDARD_IO (c) 
....................    if(tecl==7){ 
0184:  MOVF   x07,W
0186:  SUBLW  07
0188:  BNZ   01B8
....................       if(input_state(F0)==0){ 
018A:  BTFSC  F81.4
018C:  BRA    0196
....................          OFF(F1); 
018E:  BCF    F93.5
0190:  BCF    F8A.5
....................          FLT(F0); 
0192:  BSF    F93.4
....................          return; 
0194:  BRA    01B8
....................       } 
....................       if(input_state(F1)==0){ 
0196:  BTFSC  F81.5
0198:  BRA    01A2
....................          OFF(F2); 
019A:  BCF    F93.6
019C:  BCF    F8A.6
....................          FLT(F1); 
019E:  BSF    F93.5
....................          return; 
01A0:  BRA    01B8
....................       } 
....................       if(input_state(F2)==0){ 
01A2:  BTFSC  F81.6
01A4:  BRA    01AE
....................          OFF(F3); 
01A6:  BCF    F93.7
01A8:  BCF    F8A.7
....................          FLT(F2); 
01AA:  BSF    F93.6
....................          return; 
01AC:  BRA    01B8
....................       } 
....................       if(input_state(F3)==0){ 
01AE:  BTFSC  F81.7
01B0:  BRA    01B8
....................          OFF(F0); 
01B2:  BCF    F93.4
01B4:  BCF    F8A.4
....................          FLT(F3); 
01B6:  BSF    F93.7
....................          return; 
....................       } 
....................    } 
....................    return; 
01B8:  BCF    FF2.2
01BA:  MOVLB  0
01BC:  GOTO   0078
.................... } 
.................... void tecl_mode(int1 modo){ 
....................    //Modo escaneo: lee todo el teclado 
....................    if(modo){ 
*
08A2:  MOVLB  1
08A4:  MOVF   xC4,F
08A6:  BZ    08B4
....................       SETUP_TIMER_0(T0_INTERNAL|T0_8_BIT); //Cambiar de fila cada 128uS 
08A8:  MOVLW  C0
08AA:  MOVWF  FD5
....................       enable_interrupts(INT_TIMER0); 
08AC:  BSF    FF2.5
....................       enable_interrupts(INT_EXT2_H2L); 
08AE:  BSF    FF0.4
08B0:  BCF    FF1.4
....................       return; 
08B2:  BRA    08C0
....................    } 
....................    //Modo estatico: solo lee X y -/ 
....................    disable_interrupts(INT_TIMER0); 
08B4:  BCF    FF2.5
....................    FLT(F3); 
08B6:  BSF    F93.7
....................    FLT(F2); 
08B8:  BSF    F93.6
....................    FLT(F1); 
08BA:  BSF    F93.5
....................    OFF(F0); 
08BC:  BCF    F93.4
08BE:  BCF    F8A.4
....................    return; 
08C0:  MOVLB  0
08C2:  RETURN 0
.................... } 
.................... void tecl_init(){ 
....................    SET_TRIS_B(0xF5); 
08C4:  MOVLW  F5
08C6:  MOVWF  F93
....................    port_b_pullups(0xFF); 
08C8:  BCF    FF1.7
....................    tecl_mode(estatico); 
08CA:  MOVLB  1
08CC:  CLRF   xC4
08CE:  MOVLB  0
08D0:  RCALL  08A2
....................    delay_us(1); 
08D2:  BRA    08D4
....................    enable_interrupts(INT_EXT2_H2L); 
08D4:  BSF    FF0.4
08D6:  BCF    FF1.4
08D8:  GOTO   63FA (RETURN)
.................... } 
.................... #endif 
....................  
.................... #include "Estados_2550.c"   
.................... #ifndef _ESTADOS 
.................... #define _ESTADOS 
.................... #include "Prototipos.c" 
.................... #ifndef _PROTOS 
.................... #define _PROTOS 
.................... //Prototipos 
.................... int SeleccionDePerfil(); 
.................... int Perfiles(); 
....................    int Perfil_Crear(); 
....................    int Perfil_Cargar(); 
....................    int Perfil_Editar(); 
....................    int Perfil_Volver(); 
.................... int CargarValores(); 
.................... int Configuracion(); 
....................    int Config_Tiempo(); 
....................       int Config_Tiempo_Formato(); 
....................          int Config_Tiempo_Formato_mmss(); 
....................          int Config_Tiempo_Formato_ssss(); 
....................          int Config_Tiempo_Formato_Volver(); 
....................       int Config_Tiempo_Origen(); 
....................          int Config_Tiempo_Origen_Absoluto(); 
....................          int Config_Tiempo_Origen_Relativo(); 
....................          int Config_Tiempo_Origen_Volver(); 
....................       int Config_Tiempo_Volver(); 
....................    int Config_Temp(); 
....................       int Config_Temp_C(); 
....................       int Config_Temp_F(); 
....................       int Config_Temp_Volver(); 
....................    int Config_Idioma(); 
....................       int Config_Idioma_Es(); 
....................       int Config_Idioma_En(); 
....................       int Config_Idioma_Fr(); 
....................       int Config_Idioma_Ru(); 
....................       int Config_Idioma_Volver(); 
....................    int Config_Volver(); 
.................... int CargarPunto(); 
.................... int Iniciar(); 
.................... int PuntoNoValido(); 
.................... int OtroPunto(); 
.................... int Soldando(); 
.................... int Terminado(); 
....................  
.................... //Numerando los estados para el switch 
.................... enum{ 
....................     _SeleccionDePerfil, 
....................     _Perfiles, 
....................        _Perfil_Crear, 
....................        _Perfil_Cargar, 
....................        _Perfil_Editar, 
....................        _Perfil_Volver, 
....................     _CargarValores, 
....................     _Configuracion, 
....................        _Config_Tiempo, 
....................           _Config_Tiempo_Formato, 
....................              _Config_Tiempo_Formato_mmss, 
....................              _Config_Tiempo_Formato_ssss, 
....................              _Config_Tiempo_Formato_Volver, 
....................           _Config_Tiempo_Origen, 
....................              _Config_Tiempo_Origen_Absoluto, 
....................              _Config_Tiempo_Origen_Relativo, 
....................              _Config_Tiempo_Origen_Volver, 
....................           _Config_Tiempo_Volver, 
....................        _Config_Temp, 
....................           _Config_Temp_C, 
....................           _Config_Temp_F, 
....................           _Config_Temp_Volver, 
....................        _Config_Idioma, 
....................           _Config_Idioma_Es, 
....................           _Config_Idioma_En, 
....................           _Config_Idioma_Fr, 
....................           _Config_Idioma_Ru, 
....................           _Config_Idioma_Volver, 
....................        _Config_Volver, 
....................     _CargarPunto, 
....................     _Iniciar, 
....................     _PuntoNoValido, 
....................     _OtroPunto, 
....................     _Soldando, 
....................     _Terminado 
.................... }; 
.................... #endif 
....................  
.................... #include "Auxiliares_Estados_2550.c" 
.................... #ifndef _AUX_ESTADOS 
.................... #define _AUX_ESTADOS 
.................... //Genera un degradé desde azul hasta rojo pasando por verde 
.................... //entre dos alturas limite dadas 
.................... //y devuelve el el color correspondiente a esa altura 
.................... uint16_t HeatMap(uint8_t s, uint8_t e, uint8_t y){  
....................    uint8_t i; 
....................    if(y>(e+s)/2){ 
*
1AD6:  MOVLB  1
1AD8:  MOVF   xE7,W
1ADA:  ADDWF  xE8,W
1ADC:  MOVWF  00
1ADE:  BCF    FD8.0
1AE0:  RRCF   00,F
1AE2:  MOVF   00,W
1AE4:  SUBWF  xE9,W
1AE6:  BZ    1BBE
1AE8:  BNC   1BBE
....................       i=e-y; 
1AEA:  MOVF   xE9,W
1AEC:  SUBWF  xE8,W
1AEE:  MOVWF  xEA
....................       return (((uint16_t)0x1F*(((e-s)/2)-i))/((e-s)/2))|((((uint16_t)0x3F*i)/((e-s)/2))<<5); 
1AF0:  MOVF   xE7,W
1AF2:  SUBWF  xE8,W
1AF4:  MOVWF  00
1AF6:  BCF    FD8.0
1AF8:  RRCF   00,F
1AFA:  MOVF   00,W
1AFC:  BSF    FD8.0
1AFE:  SUBFWB xEA,W
1B00:  MOVWF  xEB
1B02:  CLRF   xEE
1B04:  MOVLW  1F
1B06:  MOVWF  xED
1B08:  CLRF   xF0
1B0A:  MOVFF  1EB,1EF
1B0E:  MOVLB  0
1B10:  CALL   0E16
1B14:  MOVFF  02,1EC
1B18:  MOVFF  01,1EB
1B1C:  MOVLB  1
1B1E:  MOVF   xE7,W
1B20:  SUBWF  xE8,W
1B22:  MOVWF  00
1B24:  BCF    FD8.0
1B26:  RRCF   00,F
1B28:  MOVFF  00,1ED
1B2C:  MOVFF  02,1F1
1B30:  MOVFF  01,1F0
1B34:  CLRF   xF3
1B36:  MOVFF  00,1F2
1B3A:  MOVLB  0
1B3C:  RCALL  1A90
1B3E:  MOVFF  02,1EC
1B42:  MOVFF  01,1EB
1B46:  MOVLB  1
1B48:  CLRF   xEE
1B4A:  MOVLW  3F
1B4C:  MOVWF  xED
1B4E:  CLRF   xF0
1B50:  MOVFF  1EA,1EF
1B54:  MOVLB  0
1B56:  CALL   0E16
1B5A:  MOVFF  02,1EE
1B5E:  MOVFF  01,1ED
1B62:  MOVLB  1
1B64:  MOVF   xE7,W
1B66:  SUBWF  xE8,W
1B68:  MOVWF  00
1B6A:  BCF    FD8.0
1B6C:  RRCF   00,F
1B6E:  MOVFF  00,1EF
1B72:  MOVFF  02,1F1
1B76:  MOVFF  01,1F0
1B7A:  CLRF   xF3
1B7C:  MOVFF  00,1F2
1B80:  MOVLB  0
1B82:  RCALL  1A90
1B84:  MOVFF  02,1EE
1B88:  MOVFF  01,1ED
1B8C:  MOVLB  1
1B8E:  RLCF   01,W
1B90:  MOVWF  02
1B92:  RLCF   xEE,W
1B94:  MOVWF  03
1B96:  RLCF   02,F
1B98:  RLCF   03,F
1B9A:  RLCF   02,F
1B9C:  RLCF   03,F
1B9E:  RLCF   02,F
1BA0:  RLCF   03,F
1BA2:  RLCF   02,F
1BA4:  RLCF   03,F
1BA6:  MOVLW  E0
1BA8:  ANDWF  02,F
1BAA:  MOVF   02,W
1BAC:  IORWF  xEB,W
1BAE:  MOVWF  00
1BB0:  MOVF   03,W
1BB2:  IORWF  xEC,W
1BB4:  MOVWF  03
1BB6:  MOVFF  00,01
1BBA:  MOVWF  02
1BBC:  BRA    1CA6
....................    } 
....................    i=(e+s)/2-y; 
1BBE:  MOVF   xE7,W
1BC0:  ADDWF  xE8,W
1BC2:  MOVWF  00
1BC4:  BCF    FD8.0
1BC6:  RRCF   00,F
1BC8:  MOVF   00,W
1BCA:  BSF    FD8.0
1BCC:  SUBFWB xE9,W
1BCE:  MOVWF  xEA
....................    return ((((uint16_t)0x3F*(((e-s)/2)-i))/((e-s)/2))<<5)|((((uint16_t)0x1F*i)/((e-s)/2))<<11); 
1BD0:  MOVF   xE7,W
1BD2:  SUBWF  xE8,W
1BD4:  MOVWF  00
1BD6:  BCF    FD8.0
1BD8:  RRCF   00,F
1BDA:  MOVF   00,W
1BDC:  BSF    FD8.0
1BDE:  SUBFWB xEA,W
1BE0:  MOVWF  xEB
1BE2:  CLRF   xEE
1BE4:  MOVLW  3F
1BE6:  MOVWF  xED
1BE8:  CLRF   xF0
1BEA:  MOVFF  1EB,1EF
1BEE:  MOVLB  0
1BF0:  CALL   0E16
1BF4:  MOVFF  02,1EC
1BF8:  MOVFF  01,1EB
1BFC:  MOVLB  1
1BFE:  MOVF   xE7,W
1C00:  SUBWF  xE8,W
1C02:  MOVWF  00
1C04:  BCF    FD8.0
1C06:  RRCF   00,F
1C08:  MOVFF  00,1ED
1C0C:  MOVFF  02,1F1
1C10:  MOVFF  01,1F0
1C14:  CLRF   xF3
1C16:  MOVFF  00,1F2
1C1A:  MOVLB  0
1C1C:  RCALL  1A90
1C1E:  MOVFF  02,1EC
1C22:  MOVFF  01,1EB
1C26:  MOVLB  1
1C28:  RLCF   xEB,F
1C2A:  RLCF   xEC,F
1C2C:  RLCF   xEB,F
1C2E:  RLCF   xEC,F
1C30:  RLCF   xEB,F
1C32:  RLCF   xEC,F
1C34:  RLCF   xEB,F
1C36:  RLCF   xEC,F
1C38:  RLCF   xEB,F
1C3A:  RLCF   xEC,F
1C3C:  MOVLW  E0
1C3E:  ANDWF  xEB,F
1C40:  CLRF   xEE
1C42:  MOVLW  1F
1C44:  MOVWF  xED
1C46:  CLRF   xF0
1C48:  MOVFF  1EA,1EF
1C4C:  MOVLB  0
1C4E:  CALL   0E16
1C52:  MOVFF  02,1EE
1C56:  MOVFF  01,1ED
1C5A:  MOVLB  1
1C5C:  MOVF   xE7,W
1C5E:  SUBWF  xE8,W
1C60:  MOVWF  00
1C62:  BCF    FD8.0
1C64:  RRCF   00,F
1C66:  MOVFF  00,1EF
1C6A:  MOVFF  02,1F1
1C6E:  MOVFF  01,1F0
1C72:  CLRF   xF3
1C74:  MOVFF  00,1F2
1C78:  MOVLB  0
1C7A:  RCALL  1A90
1C7C:  MOVFF  02,1EE
1C80:  MOVFF  01,1ED
1C84:  CLRF   02
1C86:  MOVLB  1
1C88:  RLCF   01,W
1C8A:  MOVWF  03
1C8C:  RLCF   03,F
1C8E:  RLCF   03,F
1C90:  MOVLW  F8
1C92:  ANDWF  03,F
1C94:  MOVF   02,W
1C96:  IORWF  xEB,W
1C98:  MOVWF  00
1C9A:  MOVF   03,W
1C9C:  IORWF  xEC,W
1C9E:  MOVWF  03
1CA0:  MOVFF  00,01
1CA4:  MOVWF  02
1CA6:  MOVLB  0
1CA8:  RETURN 0
.................... } 
.................... struct Punto Graf(int nPuntos, struct punto *Curva, int1 modo){ 
1CAA:  MOVLB  1
1CAC:  CLRF   xC9
1CAE:  MOVLW  0D
1CB0:  SUBWF  x69,W
1CB2:  MOVWF  xCB
1CB4:  MOVLW  1E
1CB6:  SUBWF  x68,W
1CB8:  MOVWF  xCC
....................    int1 EtapaEnCurso; 
....................    int contTotal=0, contEtapa; 
....................    int yM=(_height-13), xM=(_width-30); 
....................    struct Punto Max; 
....................    Max.Tiempo = 0; 
1CBA:  CLRF   xCF
1CBC:  CLRF   xCE
....................    Max.Temperatura = 0; 
1CBE:  CLRF   xCD
....................    for(int i=0; i<nPuntos; i++){ 
1CC0:  CLRF   xD0
1CC2:  MOVF   xC4,W
1CC4:  SUBWF  xD0,W
1CC6:  BC    1D5C
....................       if(Curva[i].Temperatura>Max.Temperatura)Max.Temperatura=Curva[i].Temperatura; 
1CC8:  CLRF   xEE
1CCA:  MOVFF  1D0,1ED
1CCE:  CLRF   xF0
1CD0:  MOVLW  03
1CD2:  MOVWF  xEF
1CD4:  MOVLB  0
1CD6:  CALL   0E16
1CDA:  MOVFF  02,1E3
1CDE:  MOVFF  01,1E2
1CE2:  MOVLB  1
1CE4:  MOVF   xC5,W
1CE6:  ADDWF  01,W
1CE8:  MOVWF  FE9
1CEA:  MOVF   xC6,W
1CEC:  ADDWFC 02,W
1CEE:  MOVWF  FEA
1CF0:  MOVF   FEF,W
1CF2:  SUBWF  xCD,W
1CF4:  BC    1D1A
1CF6:  CLRF   xEE
1CF8:  MOVFF  1D0,1ED
1CFC:  CLRF   xF0
1CFE:  MOVLW  03
1D00:  MOVWF  xEF
1D02:  MOVLB  0
1D04:  CALL   0E16
1D08:  MOVLB  1
1D0A:  MOVF   xC5,W
1D0C:  ADDWF  01,W
1D0E:  MOVWF  FE9
1D10:  MOVF   xC6,W
1D12:  ADDWFC 02,W
1D14:  MOVWF  FEA
1D16:  MOVFF  FEF,1CD
....................       Max.Tiempo += Curva[i].Tiempo; 
1D1A:  CLRF   xEE
1D1C:  MOVFF  1D0,1ED
1D20:  CLRF   xF0
1D22:  MOVLW  03
1D24:  MOVWF  xEF
1D26:  MOVLB  0
1D28:  CALL   0E16
1D2C:  MOVFF  01,1E2
1D30:  MOVLW  01
1D32:  MOVLB  1
1D34:  ADDWF  01,W
1D36:  MOVWF  01
1D38:  MOVLW  00
1D3A:  ADDWFC 02,W
1D3C:  MOVWF  03
1D3E:  MOVF   01,W
1D40:  ADDWF  xC5,W
1D42:  MOVWF  FE9
1D44:  MOVF   xC6,W
1D46:  ADDWFC 03,W
1D48:  MOVWF  FEA
1D4A:  MOVFF  FEC,03
1D4E:  MOVF   FED,F
1D50:  MOVF   FEF,W
1D52:  ADDWF  xCE,F
1D54:  MOVF   03,W
1D56:  ADDWFC xCF,F
1D58:  INCF   xD0,F
1D5A:  BRA    1CC2
....................    } 
....................    float prev_y=yM; 
....................    float K=(float)(xM-1)/Max.Tiempo; //Pixeles/segundo 
....................    float Pincel=0, dp; 
1D5C:  CLRF   xED
1D5E:  MOVFF  1CB,1EC
1D62:  MOVLB  0
1D64:  RCALL  1750
1D66:  MOVFF  03,1D4
1D6A:  MOVFF  02,1D3
1D6E:  MOVFF  01,1D2
1D72:  MOVFF  00,1D1
1D76:  MOVLW  01
1D78:  MOVLB  1
1D7A:  SUBWF  xCC,W
1D7C:  CLRF   xED
1D7E:  MOVWF  xEC
1D80:  MOVLB  0
1D82:  RCALL  1750
1D84:  MOVFF  03,1E5
1D88:  MOVFF  02,1E4
1D8C:  MOVFF  01,1E3
1D90:  MOVFF  00,1E2
1D94:  MOVFF  1CF,1ED
1D98:  MOVFF  1CE,1EC
1D9C:  RCALL  1750
1D9E:  MOVFF  1E5,1ED
1DA2:  MOVFF  1E4,1EC
1DA6:  MOVFF  1E3,1EB
1DAA:  MOVFF  1E2,1EA
1DAE:  MOVFF  03,1F1
1DB2:  MOVFF  02,1F0
1DB6:  MOVFF  01,1EF
1DBA:  MOVFF  00,1EE
1DBE:  RCALL  1786
1DC0:  MOVFF  03,1D8
1DC4:  MOVFF  02,1D7
1DC8:  MOVFF  01,1D6
1DCC:  MOVFF  00,1D5
1DD0:  MOVLB  1
1DD2:  CLRF   xDC
1DD4:  CLRF   xDB
1DD6:  CLRF   xDA
1DD8:  CLRF   xD9
....................    fillRect(22,21,xM,(_height-33),BG_COLOR); 
1DDA:  MOVLW  21
1DDC:  SUBWF  x69,W
1DDE:  MOVWF  xE2
1DE0:  CLRF   xE9
1DE2:  MOVLW  16
1DE4:  MOVWF  xE8
1DE6:  MOVLW  15
1DE8:  MOVWF  xEA
1DEA:  MOVFF  1CC,1EB
1DEE:  MOVFF  1E2,1EC
1DF2:  CLRF   xEE
1DF4:  CLRF   xED
1DF6:  MOVLB  0
1DF8:  CALL   0C9E
....................    //Bucle de dibujo 
....................    for(int i=0; i<nPuntos; i++){ 
1DFC:  MOVLB  1
1DFE:  CLRF   xE1
1E00:  MOVF   xC4,W
1E02:  SUBWF  xE1,W
1E04:  BTFSC  FD8.0
1E06:  GOTO   261C
....................       //Determinar el delta por pixel de la etapa 
....................       dp=((float)Curva[i].Temperatura-Pincel)/(Curva[i].Tiempo*K); 
1E0A:  CLRF   xEE
1E0C:  MOVFF  1E1,1ED
1E10:  CLRF   xF0
1E12:  MOVLW  03
1E14:  MOVWF  xEF
1E16:  MOVLB  0
1E18:  CALL   0E16
1E1C:  MOVFF  02,1E3
1E20:  MOVFF  01,1E2
1E24:  MOVLB  1
1E26:  MOVF   xC5,W
1E28:  ADDWF  01,W
1E2A:  MOVWF  FE9
1E2C:  MOVF   xC6,W
1E2E:  ADDWFC 02,W
1E30:  MOVWF  FEA
1E32:  MOVF   FEF,W
1E34:  CLRF   xED
1E36:  MOVWF  xEC
1E38:  MOVLB  0
1E3A:  RCALL  1750
1E3C:  MOVFF  03,1E7
1E40:  MOVFF  02,1E6
1E44:  MOVFF  01,1E5
1E48:  MOVFF  00,1E4
1E4C:  MOVFF  FEA,1E9
1E50:  MOVFF  FE9,1E8
1E54:  BSF    FD8.1
1E56:  CLRF   19
1E58:  BTFSC  FF2.7
1E5A:  BSF    19.7
1E5C:  BCF    FF2.7
1E5E:  MOVFF  03,20A
1E62:  MOVFF  02,209
1E66:  MOVFF  01,208
1E6A:  MOVFF  00,207
1E6E:  MOVFF  1DC,20E
1E72:  MOVFF  1DB,20D
1E76:  MOVFF  1DA,20C
1E7A:  MOVFF  1D9,20B
1E7E:  CALL   04EA
1E82:  BTFSC  19.7
1E84:  BSF    FF2.7
1E86:  MOVFF  1E9,FEA
1E8A:  MOVFF  1E8,FE9
1E8E:  MOVFF  03,1E7
1E92:  MOVFF  02,1E6
1E96:  MOVFF  01,1E5
1E9A:  MOVFF  00,1E4
1E9E:  MOVLB  1
1EA0:  CLRF   xEE
1EA2:  MOVFF  1E1,1ED
1EA6:  CLRF   xF0
1EA8:  MOVLW  03
1EAA:  MOVWF  xEF
1EAC:  MOVLB  0
1EAE:  CALL   0E16
1EB2:  MOVFF  01,1EA
1EB6:  MOVLW  01
1EB8:  MOVLB  1
1EBA:  ADDWF  01,W
1EBC:  MOVWF  01
1EBE:  MOVLW  00
1EC0:  ADDWFC 02,W
1EC2:  MOVWF  03
1EC4:  MOVF   01,W
1EC6:  ADDWF  xC5,W
1EC8:  MOVWF  FE9
1ECA:  MOVF   xC6,W
1ECC:  ADDWFC 03,W
1ECE:  MOVWF  FEA
1ED0:  MOVFF  FEC,1ED
1ED4:  MOVF   FED,F
1ED6:  MOVFF  FEF,1EC
1EDA:  MOVLB  0
1EDC:  RCALL  1750
1EDE:  MOVFF  03,1EF
1EE2:  MOVFF  02,1EE
1EE6:  MOVFF  01,1ED
1EEA:  MOVFF  00,1EC
1EEE:  MOVFF  1D8,1F3
1EF2:  MOVFF  1D7,1F2
1EF6:  MOVFF  1D6,1F1
1EFA:  MOVFF  1D5,1F0
1EFE:  RCALL  18E4
1F00:  MOVFF  1E7,1ED
1F04:  MOVFF  1E6,1EC
1F08:  MOVFF  1E5,1EB
1F0C:  MOVFF  1E4,1EA
1F10:  MOVFF  03,1F1
1F14:  MOVFF  02,1F0
1F18:  MOVFF  01,1EF
1F1C:  MOVFF  00,1EE
1F20:  RCALL  1786
1F22:  MOVFF  03,1E0
1F26:  MOVFF  02,1DF
1F2A:  MOVFF  01,1DE
1F2E:  MOVFF  00,1DD
....................       //Resetear los flags de finalizacion 
....................       EtapaEnCurso = TRUE; 
1F32:  MOVLB  1
1F34:  BSF    xC8.0
....................       contEtapa = 0; 
1F36:  CLRF   xCA
....................       //Bucle de la etapa 
....................       while(EtapaEnCurso){ 
1F38:  BTFSS  xC8.0
1F3A:  BRA    2616
....................          //Etapa terminada 
....................          if(contEtapa >= k*Curva[i].Tiempo-1) EtapaEnCurso = FALSE; 
1F3C:  CLRF   xEE
1F3E:  MOVFF  1E1,1ED
1F42:  CLRF   xF0
1F44:  MOVLW  03
1F46:  MOVWF  xEF
1F48:  MOVLB  0
1F4A:  CALL   0E16
1F4E:  MOVFF  02,1E3
1F52:  MOVFF  01,1E2
1F56:  MOVLW  01
1F58:  MOVLB  1
1F5A:  ADDWF  01,W
1F5C:  MOVWF  01
1F5E:  MOVLW  00
1F60:  ADDWFC 02,W
1F62:  MOVWF  03
1F64:  MOVF   01,W
1F66:  ADDWF  xC5,W
1F68:  MOVWF  FE9
1F6A:  MOVF   xC6,W
1F6C:  ADDWFC 03,W
1F6E:  MOVWF  FEA
1F70:  MOVFF  FEC,03
1F74:  MOVF   FED,F
1F76:  MOVFF  FEF,1EC
1F7A:  MOVFF  03,1ED
1F7E:  MOVLB  0
1F80:  CALL   1750
1F84:  MOVFF  1D8,1EF
1F88:  MOVFF  1D7,1EE
1F8C:  MOVFF  1D6,1ED
1F90:  MOVFF  1D5,1EC
1F94:  MOVFF  03,1F3
1F98:  MOVFF  02,1F2
1F9C:  MOVFF  01,1F1
1FA0:  MOVFF  00,1F0
1FA4:  RCALL  18E4
1FA6:  MOVFF  03,1E5
1FAA:  MOVFF  02,1E4
1FAE:  MOVFF  01,1E3
1FB2:  MOVFF  00,1E2
1FB6:  MOVFF  FEA,1E7
1FBA:  MOVFF  FE9,1E6
1FBE:  BSF    FD8.1
1FC0:  CLRF   19
1FC2:  BTFSC  FF2.7
1FC4:  BSF    19.7
1FC6:  BCF    FF2.7
1FC8:  MOVFF  03,20A
1FCC:  MOVFF  02,209
1FD0:  MOVFF  01,208
1FD4:  MOVFF  00,207
1FD8:  MOVLB  2
1FDA:  CLRF   x0E
1FDC:  CLRF   x0D
1FDE:  CLRF   x0C
1FE0:  MOVLW  7F
1FE2:  MOVWF  x0B
1FE4:  MOVLB  0
1FE6:  CALL   04EA
1FEA:  BTFSC  19.7
1FEC:  BSF    FF2.7
1FEE:  MOVFF  1E7,FEA
1FF2:  MOVFF  1E6,FE9
1FF6:  MOVFF  03,1E5
1FFA:  MOVFF  02,1E4
1FFE:  MOVFF  01,1E3
2002:  MOVFF  00,1E2
2006:  MOVLB  1
2008:  CLRF   xED
200A:  MOVFF  1CA,1EC
200E:  MOVLB  0
2010:  CALL   1750
2014:  MOVFF  1E5,1EB
2018:  MOVFF  1E4,1EA
201C:  MOVFF  1E3,1E9
2020:  MOVFF  1E2,1E8
2024:  MOVFF  03,1EF
2028:  MOVFF  02,1EE
202C:  MOVFF  01,1ED
2030:  MOVFF  00,1EC
2034:  RCALL  19DA
2036:  BC    203A
2038:  BNZ   2040
203A:  MOVLB  1
203C:  BCF    xC8.0
203E:  MOVLB  0
....................          Pincel+=dp; 
2040:  BCF    FD8.1
2042:  CLRF   19
2044:  BTFSC  FF2.7
2046:  BSF    19.7
2048:  BCF    FF2.7
204A:  MOVFF  1DC,20A
204E:  MOVFF  1DB,209
2052:  MOVFF  1DA,208
2056:  MOVFF  1D9,207
205A:  MOVFF  1E0,20E
205E:  MOVFF  1DF,20D
2062:  MOVFF  1DE,20C
2066:  MOVFF  1DD,20B
206A:  CALL   04EA
206E:  BTFSC  19.7
2070:  BSF    FF2.7
2072:  MOVFF  03,1DC
2076:  MOVFF  02,1DB
207A:  MOVFF  01,1DA
207E:  MOVFF  00,1D9
....................          y = yM-((float)(_height-36)/Max.Temperatura)*Pincel; 
2082:  MOVLW  24
2084:  MOVLB  1
2086:  SUBWF  x69,W
2088:  CLRF   xED
208A:  MOVWF  xEC
208C:  MOVLB  0
208E:  CALL   1750
2092:  MOVFF  03,1E5
2096:  MOVFF  02,1E4
209A:  MOVFF  01,1E3
209E:  MOVFF  00,1E2
20A2:  MOVLB  1
20A4:  CLRF   xED
20A6:  MOVFF  1CD,1EC
20AA:  MOVLB  0
20AC:  CALL   1750
20B0:  MOVFF  1E5,1ED
20B4:  MOVFF  1E4,1EC
20B8:  MOVFF  1E3,1EB
20BC:  MOVFF  1E2,1EA
20C0:  MOVFF  03,1F1
20C4:  MOVFF  02,1F0
20C8:  MOVFF  01,1EF
20CC:  MOVFF  00,1EE
20D0:  CALL   1786
20D4:  MOVFF  03,1E5
20D8:  MOVFF  02,1E4
20DC:  MOVFF  01,1E3
20E0:  MOVFF  00,1E2
20E4:  MOVFF  03,1EF
20E8:  MOVFF  02,1EE
20EC:  MOVFF  01,1ED
20F0:  MOVFF  00,1EC
20F4:  MOVFF  1DC,1F3
20F8:  MOVFF  1DB,1F2
20FC:  MOVFF  1DA,1F1
2100:  MOVFF  1D9,1F0
2104:  CALL   18E4
2108:  MOVFF  03,1E5
210C:  MOVFF  02,1E4
2110:  MOVFF  01,1E3
2114:  MOVFF  00,1E2
2118:  MOVLB  1
211A:  CLRF   xED
211C:  MOVFF  1CB,1EC
2120:  MOVLB  0
2122:  CALL   1750
2126:  BSF    FD8.1
2128:  CLRF   19
212A:  BTFSC  FF2.7
212C:  BSF    19.7
212E:  BCF    FF2.7
2130:  MOVFF  03,20A
2134:  MOVFF  02,209
2138:  MOVFF  01,208
213C:  MOVFF  00,207
2140:  MOVFF  1E5,20E
2144:  MOVFF  1E4,20D
2148:  MOVFF  1E3,20C
214C:  MOVFF  1E2,20B
2150:  CALL   04EA
2154:  BTFSC  19.7
2156:  BSF    FF2.7
2158:  MOVFF  03,1E9
215C:  MOVFF  02,1E8
2160:  MOVFF  01,1E7
2164:  MOVFF  00,1E6
2168:  RCALL  1A54
216A:  MOVFF  01,174
....................          /* Linea a color, borde gordo 
....................          if(prev_y-y>=0) drawVLine(cont2+22,y,abs(y-prev_y)+1,HeatMap(0,255,~(int)Pincel)); 
....................          else drawVLine(cont2+22,prev_y,abs(y-prev_y)+1,HeatMap(0,255,~(int)Pincel));*/ 
....................          if(modo){ 
216E:  MOVLB  1
2170:  MOVF   xC7,F
2172:  BTFSC  FD8.2
2174:  BRA    23A4
....................             // Volumen a color //HeatMap(20,yM-1,y)<<Color en funsion de la altura y no la temperatura 
....................             if(prev_y-y>0) fillRect(contTotal+22,y+1,xM-contTotal,abs(y-prev_y),HeatMap(0,255,~(int)Pincel)); 
2176:  CLRF   xED
2178:  MOVFF  174,1EC
217C:  MOVLB  0
217E:  CALL   1750
2182:  BSF    FD8.1
2184:  CLRF   19
2186:  BTFSC  FF2.7
2188:  BSF    19.7
218A:  BCF    FF2.7
218C:  MOVFF  1D4,20A
2190:  MOVFF  1D3,209
2194:  MOVFF  1D2,208
2198:  MOVFF  1D1,207
219C:  MOVFF  03,20E
21A0:  MOVFF  02,20D
21A4:  MOVFF  01,20C
21A8:  MOVFF  00,20B
21AC:  CALL   04EA
21B0:  BTFSC  19.7
21B2:  BSF    FF2.7
21B4:  MOVFF  03,1E5
21B8:  MOVFF  02,1E4
21BC:  MOVFF  01,1E3
21C0:  MOVFF  00,1E2
21C4:  MOVLB  1
21C6:  CLRF   xEB
21C8:  CLRF   xEA
21CA:  CLRF   xE9
21CC:  CLRF   xE8
21CE:  MOVFF  03,1EF
21D2:  MOVFF  02,1EE
21D6:  MOVFF  01,1ED
21DA:  MOVFF  00,1EC
21DE:  MOVLB  0
21E0:  CALL   19DA
21E4:  BNC   22BE
21E6:  MOVLW  16
21E8:  MOVLB  1
21EA:  ADDWF  xC9,W
21EC:  MOVWF  xE2
21EE:  MOVLW  01
21F0:  ADDWF  x74,W
21F2:  MOVWF  xE3
21F4:  MOVF   xC9,W
21F6:  SUBWF  xCC,W
21F8:  MOVWF  xE4
21FA:  CLRF   xED
21FC:  MOVFF  174,1EC
2200:  MOVLB  0
2202:  CALL   1750
2206:  BSF    FD8.1
2208:  CLRF   19
220A:  BTFSC  FF2.7
220C:  BSF    19.7
220E:  BCF    FF2.7
2210:  MOVFF  03,20A
2214:  MOVFF  02,209
2218:  MOVFF  01,208
221C:  MOVFF  00,207
2220:  MOVFF  1D4,20E
2224:  MOVFF  1D3,20D
2228:  MOVFF  1D2,20C
222C:  MOVFF  1D1,20B
2230:  CALL   04EA
2234:  BTFSC  19.7
2236:  BSF    FF2.7
2238:  MOVFF  03,1E8
223C:  MOVFF  02,1E7
2240:  MOVFF  01,1E6
2244:  MOVFF  00,1E5
2248:  MOVFF  00,1E6
224C:  MOVFF  01,01
2250:  MOVFF  02,02
2254:  MOVFF  03,1E9
2258:  BCF    01.7
225A:  MOVFF  02,1E8
225E:  MOVFF  01,1E7
2262:  CALL   1A54
2266:  MOVFF  01,1E5
226A:  MOVFF  1DC,1E9
226E:  MOVFF  1DB,1E8
2272:  MOVFF  1DA,1E7
2276:  MOVFF  1D9,1E6
227A:  CALL   1A54
227E:  MOVFF  01,1E6
2282:  MOVLB  1
2284:  COMF   xE6,F
2286:  CLRF   xE7
2288:  SETF   xE8
228A:  MOVFF  1E6,1E9
228E:  MOVLB  0
2290:  RCALL  1AD6
2292:  MOVFF  02,1E7
2296:  MOVFF  01,1E6
229A:  MOVLB  1
229C:  CLRF   xE9
229E:  MOVFF  1E2,1E8
22A2:  MOVFF  1E3,1EA
22A6:  MOVFF  1E4,1EB
22AA:  MOVFF  1E5,1EC
22AE:  MOVFF  02,1EE
22B2:  MOVFF  01,1ED
22B6:  MOVLB  0
22B8:  CALL   0C9E
22BC:  BRA    23A0
....................             else fillRect(contTotal+22,prev_y+1,xM-contTotal,abs(y-prev_y),BG_COLOR); 
22BE:  MOVLW  16
22C0:  MOVLB  1
22C2:  ADDWF  xC9,W
22C4:  MOVWF  xE2
22C6:  BCF    FD8.1
22C8:  CLRF   19
22CA:  BTFSC  FF2.7
22CC:  BSF    19.7
22CE:  BCF    FF2.7
22D0:  MOVFF  1D4,20A
22D4:  MOVFF  1D3,209
22D8:  MOVFF  1D2,208
22DC:  MOVFF  1D1,207
22E0:  MOVLB  2
22E2:  CLRF   x0E
22E4:  CLRF   x0D
22E6:  CLRF   x0C
22E8:  MOVLW  7F
22EA:  MOVWF  x0B
22EC:  MOVLB  0
22EE:  CALL   04EA
22F2:  BTFSC  19.7
22F4:  BSF    FF2.7
22F6:  MOVFF  03,1E9
22FA:  MOVFF  02,1E8
22FE:  MOVFF  01,1E7
2302:  MOVFF  00,1E6
2306:  CALL   1A54
230A:  MOVFF  01,1E3
230E:  MOVLB  1
2310:  MOVF   xC9,W
2312:  SUBWF  xCC,W
2314:  MOVWF  xE4
2316:  CLRF   xED
2318:  MOVFF  174,1EC
231C:  MOVLB  0
231E:  CALL   1750
2322:  BSF    FD8.1
2324:  CLRF   19
2326:  BTFSC  FF2.7
2328:  BSF    19.7
232A:  BCF    FF2.7
232C:  MOVFF  03,20A
2330:  MOVFF  02,209
2334:  MOVFF  01,208
2338:  MOVFF  00,207
233C:  MOVFF  1D4,20E
2340:  MOVFF  1D3,20D
2344:  MOVFF  1D2,20C
2348:  MOVFF  1D1,20B
234C:  CALL   04EA
2350:  BTFSC  19.7
2352:  BSF    FF2.7
2354:  MOVFF  03,1E8
2358:  MOVFF  02,1E7
235C:  MOVFF  01,1E6
2360:  MOVFF  00,1E5
2364:  MOVFF  00,1E6
2368:  MOVFF  01,01
236C:  MOVFF  02,1E8
2370:  MOVFF  03,1E9
2374:  BCF    01.7
2376:  MOVFF  01,1E7
237A:  CALL   1A54
237E:  MOVFF  01,1E5
2382:  MOVLB  1
2384:  CLRF   xE9
2386:  MOVFF  1E2,1E8
238A:  MOVFF  1E3,1EA
238E:  MOVFF  1E4,1EB
2392:  MOVFF  01,1EC
2396:  CLRF   xEE
2398:  CLRF   xED
239A:  MOVLB  0
239C:  CALL   0C9E
....................          }else{ 
23A0:  BRA    25F0
23A2:  MOVLB  1
....................             //Linea gris, borde gordo 
....................             if(prev_y-y>=0) drawVLine(contTotal+22,y,abs(y-prev_y)+1,0xA534); 
23A4:  CLRF   xED
23A6:  MOVFF  174,1EC
23AA:  MOVLB  0
23AC:  CALL   1750
23B0:  BSF    FD8.1
23B2:  CLRF   19
23B4:  BTFSC  FF2.7
23B6:  BSF    19.7
23B8:  BCF    FF2.7
23BA:  MOVFF  1D4,20A
23BE:  MOVFF  1D3,209
23C2:  MOVFF  1D2,208
23C6:  MOVFF  1D1,207
23CA:  MOVFF  03,20E
23CE:  MOVFF  02,20D
23D2:  MOVFF  01,20C
23D6:  MOVFF  00,20B
23DA:  CALL   04EA
23DE:  BTFSC  19.7
23E0:  BSF    FF2.7
23E2:  MOVFF  03,1E5
23E6:  MOVFF  02,1E4
23EA:  MOVFF  01,1E3
23EE:  MOVFF  00,1E2
23F2:  MOVLB  1
23F4:  CLRF   xEB
23F6:  CLRF   xEA
23F8:  CLRF   xE9
23FA:  CLRF   xE8
23FC:  MOVFF  03,1EF
2400:  MOVFF  02,1EE
2404:  MOVFF  01,1ED
2408:  MOVFF  00,1EC
240C:  MOVLB  0
240E:  CALL   19DA
2412:  BC    2416
2414:  BNZ   24F6
2416:  MOVLW  16
2418:  MOVLB  1
241A:  ADDWF  xC9,W
241C:  MOVWF  xE2
241E:  CLRF   xED
2420:  MOVFF  174,1EC
2424:  MOVLB  0
2426:  CALL   1750
242A:  BSF    FD8.1
242C:  CLRF   19
242E:  BTFSC  FF2.7
2430:  BSF    19.7
2432:  BCF    FF2.7
2434:  MOVFF  03,20A
2438:  MOVFF  02,209
243C:  MOVFF  01,208
2440:  MOVFF  00,207
2444:  MOVFF  1D4,20E
2448:  MOVFF  1D3,20D
244C:  MOVFF  1D2,20C
2450:  MOVFF  1D1,20B
2454:  CALL   04EA
2458:  BTFSC  19.7
245A:  BSF    FF2.7
245C:  MOVFF  03,1E6
2460:  MOVFF  02,1E5
2464:  MOVFF  01,1E4
2468:  MOVFF  00,1E3
246C:  MOVFF  00,00
2470:  MOVFF  01,01
2474:  MOVFF  02,02
2478:  MOVFF  03,03
247C:  BCF    01.7
247E:  MOVFF  03,1E6
2482:  MOVFF  02,1E5
2486:  MOVFF  01,1E4
248A:  MOVFF  00,1E3
248E:  BCF    FD8.1
2490:  CLRF   19
2492:  BTFSC  FF2.7
2494:  BSF    19.7
2496:  BCF    FF2.7
2498:  MOVFF  03,20A
249C:  MOVFF  02,209
24A0:  MOVFF  01,208
24A4:  MOVFF  00,207
24A8:  MOVLB  2
24AA:  CLRF   x0E
24AC:  CLRF   x0D
24AE:  CLRF   x0C
24B0:  MOVLW  7F
24B2:  MOVWF  x0B
24B4:  MOVLB  0
24B6:  CALL   04EA
24BA:  BTFSC  19.7
24BC:  BSF    FF2.7
24BE:  MOVFF  03,1E9
24C2:  MOVFF  02,1E8
24C6:  MOVFF  01,1E7
24CA:  MOVFF  00,1E6
24CE:  CALL   1A54
24D2:  MOVFF  01,1E3
24D6:  MOVLB  1
24D8:  CLRF   xE6
24DA:  MOVFF  1E2,1E5
24DE:  MOVFF  174,1E7
24E2:  MOVFF  01,1E8
24E6:  MOVLW  A5
24E8:  MOVWF  xEA
24EA:  MOVLW  34
24EC:  MOVWF  xE9
24EE:  MOVLB  0
24F0:  CALL   14EE
24F4:  BRA    25F0
....................             else drawVLine(contTotal+22,prev_y,abs(y-prev_y)+1,0xA534); 
24F6:  MOVLW  16
24F8:  MOVLB  1
24FA:  ADDWF  xC9,W
24FC:  MOVWF  xE2
24FE:  MOVFF  1D4,1E9
2502:  MOVFF  1D3,1E8
2506:  MOVFF  1D2,1E7
250A:  MOVFF  1D1,1E6
250E:  MOVLB  0
2510:  CALL   1A54
2514:  MOVFF  01,1E3
2518:  MOVLB  1
251A:  CLRF   xED
251C:  MOVFF  174,1EC
2520:  MOVLB  0
2522:  CALL   1750
2526:  BSF    FD8.1
2528:  CLRF   19
252A:  BTFSC  FF2.7
252C:  BSF    19.7
252E:  BCF    FF2.7
2530:  MOVFF  03,20A
2534:  MOVFF  02,209
2538:  MOVFF  01,208
253C:  MOVFF  00,207
2540:  MOVFF  1D4,20E
2544:  MOVFF  1D3,20D
2548:  MOVFF  1D2,20C
254C:  MOVFF  1D1,20B
2550:  CALL   04EA
2554:  BTFSC  19.7
2556:  BSF    FF2.7
2558:  MOVFF  03,1E7
255C:  MOVFF  02,1E6
2560:  MOVFF  01,1E5
2564:  MOVFF  00,1E4
2568:  MOVFF  00,00
256C:  MOVFF  01,01
2570:  MOVFF  02,02
2574:  MOVFF  03,03
2578:  BCF    01.7
257A:  MOVFF  03,1E7
257E:  MOVFF  02,1E6
2582:  MOVFF  01,1E5
2586:  MOVFF  00,1E4
258A:  BCF    FD8.1
258C:  CLRF   19
258E:  BTFSC  FF2.7
2590:  BSF    19.7
2592:  BCF    FF2.7
2594:  MOVFF  03,20A
2598:  MOVFF  02,209
259C:  MOVFF  01,208
25A0:  MOVFF  00,207
25A4:  MOVLB  2
25A6:  CLRF   x0E
25A8:  CLRF   x0D
25AA:  CLRF   x0C
25AC:  MOVLW  7F
25AE:  MOVWF  x0B
25B0:  MOVLB  0
25B2:  CALL   04EA
25B6:  BTFSC  19.7
25B8:  BSF    FF2.7
25BA:  MOVFF  03,1E9
25BE:  MOVFF  02,1E8
25C2:  MOVFF  01,1E7
25C6:  MOVFF  00,1E6
25CA:  CALL   1A54
25CE:  MOVFF  01,1E4
25D2:  MOVLB  1
25D4:  CLRF   xE6
25D6:  MOVFF  1E2,1E5
25DA:  MOVFF  1E3,1E7
25DE:  MOVFF  01,1E8
25E2:  MOVLW  A5
25E4:  MOVWF  xEA
25E6:  MOVLW  34
25E8:  MOVWF  xE9
25EA:  MOVLB  0
25EC:  CALL   14EE
....................          } 
....................          contEtapa++; 
25F0:  MOVLB  1
25F2:  INCF   xCA,F
....................          contTotal++; 
25F4:  INCF   xC9,F
....................          prev_y=y; 
25F6:  CLRF   xED
25F8:  MOVFF  174,1EC
25FC:  MOVLB  0
25FE:  CALL   1750
2602:  MOVFF  03,1D4
2606:  MOVFF  02,1D3
260A:  MOVFF  01,1D2
260E:  MOVFF  00,1D1
2612:  MOVLB  1
2614:  BRA    1F38
....................       } 
2616:  INCF   xE1,F
2618:  GOTO   1E00
....................    } 
....................    if(modo) fillRect(contTotal+23,prev_y,xM-contTotal,abs(yM-prev_y),BG_COLOR); 
261C:  MOVF   xC7,F
261E:  BZ    26D4
2620:  MOVLW  17
2622:  ADDWF  xC9,W
2624:  MOVWF  xE2
2626:  MOVFF  1D4,1E9
262A:  MOVFF  1D3,1E8
262E:  MOVFF  1D2,1E7
2632:  MOVFF  1D1,1E6
2636:  MOVLB  0
2638:  CALL   1A54
263C:  MOVFF  01,1E3
2640:  MOVLB  1
2642:  MOVF   xC9,W
2644:  SUBWF  xCC,W
2646:  MOVWF  xE4
2648:  CLRF   xED
264A:  MOVFF  1CB,1EC
264E:  MOVLB  0
2650:  CALL   1750
2654:  BSF    FD8.1
2656:  CLRF   19
2658:  BTFSC  FF2.7
265A:  BSF    19.7
265C:  BCF    FF2.7
265E:  MOVFF  03,20A
2662:  MOVFF  02,209
2666:  MOVFF  01,208
266A:  MOVFF  00,207
266E:  MOVFF  1D4,20E
2672:  MOVFF  1D3,20D
2676:  MOVFF  1D2,20C
267A:  MOVFF  1D1,20B
267E:  CALL   04EA
2682:  BTFSC  19.7
2684:  BSF    FF2.7
2686:  MOVFF  03,1E8
268A:  MOVFF  02,1E7
268E:  MOVFF  01,1E6
2692:  MOVFF  00,1E5
2696:  MOVFF  00,1E6
269A:  MOVFF  01,01
269E:  MOVFF  02,1E8
26A2:  MOVFF  03,1E9
26A6:  BCF    01.7
26A8:  MOVFF  01,1E7
26AC:  CALL   1A54
26B0:  MOVFF  01,1E5
26B4:  MOVLB  1
26B6:  CLRF   xE9
26B8:  MOVFF  1E2,1E8
26BC:  MOVFF  1E3,1EA
26C0:  MOVFF  1E4,1EB
26C4:  MOVFF  01,1EC
26C8:  CLRF   xEE
26CA:  CLRF   xED
26CC:  MOVLB  0
26CE:  CALL   0C9E
26D2:  MOVLB  1
....................    return Max; 
26D4:  MOVFF  1CD,01
26D8:  MOVFF  1CE,02
26DC:  MOVFF  1CF,03
26E0:  MOVLB  0
26E2:  RETURN 0
.................... } 
.................... void GrafFrame(){ 
....................    drawHLine(        19, (_height-14),(_width-27),TX_COLOR); 
*
156C:  MOVLW  0E
156E:  MOVLB  1
1570:  SUBWF  x69,W
1572:  MOVWF  xB5
1574:  MOVLW  1B
1576:  SUBWF  x68,W
1578:  MOVWF  xB6
157A:  CLRF   xB8
157C:  MOVLW  13
157E:  MOVWF  xB7
1580:  MOVFF  1B5,1B9
1584:  MOVFF  1B6,1BA
1588:  SETF   xBC
158A:  SETF   xBB
158C:  MOVLB  0
158E:  RCALL  144E
....................    drawVLine(        21,           20,(_height-29),TX_COLOR); 
1590:  MOVLW  1D
1592:  MOVLB  1
1594:  SUBWF  x69,W
1596:  MOVWF  xB5
1598:  CLRF   xE6
159A:  MOVLW  15
159C:  MOVWF  xE5
159E:  MOVLW  14
15A0:  MOVWF  xE7
15A2:  MOVFF  1B5,1E8
15A6:  SETF   xEA
15A8:  SETF   xE9
15AA:  MOVLB  0
15AC:  RCALL  14EE
....................    drawHLine(        19,           20,           5,TX_COLOR); 
15AE:  MOVLB  1
15B0:  CLRF   xB8
15B2:  MOVLW  13
15B4:  MOVWF  xB7
15B6:  MOVLW  14
15B8:  MOVWF  xB9
15BA:  MOVLW  05
15BC:  MOVWF  xBA
15BE:  SETF   xBC
15C0:  SETF   xBB
15C2:  MOVLB  0
15C4:  RCALL  144E
....................    drawVLine((_width-10),(_height-16),          5,TX_COLOR); 
15C6:  MOVLW  0A
15C8:  MOVLB  1
15CA:  SUBWF  x68,W
15CC:  MOVWF  xB5
15CE:  MOVLW  10
15D0:  SUBWF  x69,W
15D2:  MOVWF  xB6
15D4:  CLRF   xE6
15D6:  MOVFF  1B5,1E5
15DA:  MOVWF  xE7
15DC:  MOVLW  05
15DE:  MOVWF  xE8
15E0:  SETF   xEA
15E2:  SETF   xE9
15E4:  MOVLB  0
15E6:  RCALL  14EE
....................    return; 
15E8:  RETURN 0
.................... } 
.................... void GrafData(struct Punto Vals){ 
*
27AA:  MOVFF  1C6,1C8
27AE:  MOVFF  1C5,1C7
27B2:  MOVLB  1
27B4:  CLRF   xCF
27B6:  MOVLW  20
27B8:  ADDWF  xC4,W
27BA:  MOVWF  xC9
27BC:  MOVLW  00
27BE:  ADDWFC xCF,W
27C0:  MOVWF  xCA
27C2:  MOVLW  43
27C4:  MOVWF  xCD
....................    long Tiempo = Vals.Tiempo; 
....................    long Temp = (long)Vals.Temperatura+MINTEMP; 
....................    int x=X, y=Y; 
....................    char u='C'; 
....................    if((config&4)==4){  
27C6:  MOVF   1A,W
27C8:  ANDLW  04
27CA:  SUBLW  04
27CC:  BNZ   2812
....................       Temp=((Temp*9)/5)+32; 
27CE:  MOVFF  1CA,1EE
27D2:  MOVFF  1C9,1ED
27D6:  CLRF   xF0
27D8:  MOVLW  09
27DA:  MOVWF  xEF
27DC:  MOVLB  0
27DE:  CALL   0E16
27E2:  MOVFF  02,1CF
27E6:  MOVFF  01,1CE
27EA:  MOVFF  02,1F1
27EE:  MOVFF  01,1F0
27F2:  MOVLB  1
27F4:  CLRF   xF3
27F6:  MOVLW  05
27F8:  MOVWF  xF2
27FA:  MOVLB  0
27FC:  CALL   1A90
2800:  MOVLW  20
2802:  MOVLB  1
2804:  ADDWF  01,W
2806:  MOVWF  xC9
2808:  MOVLW  00
280A:  ADDWFC 02,W
280C:  MOVWF  xCA
....................       u='F'; 
280E:  MOVLW  46
2810:  MOVWF  xCD
....................    } 
....................    tft_gotoxy(0, 2); 
2812:  CLRF   xDC
2814:  MOVLW  02
2816:  MOVWF  xDD
2818:  MOVLB  0
281A:  CALL   0EA2
....................    printf(tft_putc,"°%c\n%03Lu", u, Temp); 
281E:  MOVLW  B0
2820:  MOVLB  1
2822:  MOVWF  xDB
2824:  MOVLB  0
2826:  CALL   0FA0
282A:  MOVFF  1CD,1DB
282E:  CALL   0FA0
2832:  MOVLW  0A
2834:  MOVLB  1
2836:  MOVWF  xDB
2838:  MOVLB  0
283A:  CALL   0FA0
283E:  MOVLW  0A
2840:  MOVWF  FE9
2842:  MOVFF  1CA,1D3
2846:  MOVFF  1C9,1D2
284A:  RCALL  26E4
....................    tft_gotoxy(X_MAX-5, Y_MAX); 
284C:  MOVLW  05
284E:  MOVLB  1
2850:  SUBWF  x6F,W
2852:  MOVWF  xCE
2854:  MOVWF  xDC
2856:  MOVFF  171,1DD
285A:  MOVLB  0
285C:  CALL   0EA2
....................    if((config&16)>>4){ 
2860:  MOVF   1A,W
2862:  ANDLW  10
2864:  MOVWF  00
2866:  SWAPF  00,F
2868:  MOVLW  0F
286A:  ANDWF  00,F
286C:  MOVF   00,W
286E:  BZ    28DA
....................       printf(tft_putc,"%02Lu:%02Lu", Tiempo/60, Tiempo%60); 
2870:  MOVFF  1C8,1F1
2874:  MOVFF  1C7,1F0
2878:  MOVLB  1
287A:  CLRF   xF3
287C:  MOVLW  3C
287E:  MOVWF  xF2
2880:  MOVLB  0
2882:  CALL   1A90
2886:  MOVFF  02,1CF
288A:  MOVFF  01,1CE
288E:  MOVFF  1C8,1F1
2892:  MOVFF  1C7,1F0
2896:  MOVLB  1
2898:  CLRF   xF3
289A:  MOVLW  3C
289C:  MOVWF  xF2
289E:  MOVLB  0
28A0:  CALL   1A90
28A4:  MOVFF  00,1D0
28A8:  MOVLB  1
28AA:  MOVFF  03,1D1
28AE:  MOVLW  0B
28B0:  MOVWF  FE9
28B2:  MOVFF  1CF,1D3
28B6:  MOVFF  1CE,1D2
28BA:  MOVLB  0
28BC:  RCALL  26E4
28BE:  MOVLW  3A
28C0:  MOVLB  1
28C2:  MOVWF  xDB
28C4:  MOVLB  0
28C6:  CALL   0FA0
28CA:  MOVLW  0B
28CC:  MOVWF  FE9
28CE:  MOVFF  1D1,1D3
28D2:  MOVFF  1D0,1D2
28D6:  RCALL  26E4
....................    } 
28D8:  BRA    2918
....................    else if((config&0x03)==3) printf(tft_putc,"%04LuC",Tiempo); 
28DA:  MOVF   1A,W
28DC:  ANDLW  03
28DE:  SUBLW  03
28E0:  BNZ   28FE
28E2:  MOVLW  09
28E4:  MOVWF  FE9
28E6:  MOVFF  1C8,1D3
28EA:  MOVFF  1C7,1D2
28EE:  RCALL  26E4
28F0:  MOVLW  43
28F2:  MOVLB  1
28F4:  MOVWF  xDB
28F6:  MOVLB  0
28F8:  CALL   0FA0
28FC:  BRA    2918
....................    else printf(tft_putc,"%04LuS",Tiempo); 
28FE:  MOVLW  09
2900:  MOVWF  FE9
2902:  MOVFF  1C8,1D3
2906:  MOVFF  1C7,1D2
290A:  RCALL  26E4
290C:  MOVLW  53
290E:  MOVLB  1
2910:  MOVWF  xDB
2912:  MOVLB  0
2914:  CALL   0FA0
....................    tft_gotoxy(x, y); 
2918:  MOVFF  1CB,1DC
291C:  MOVFF  1CC,1DD
2920:  CALL   0EA2
....................    return; 
2924:  RETURN 0
.................... } 
.................... int1 perfilVacio(int nPerfil){ 
....................    return (~read_eeprom(0x33*nPerfil-0x32)==0&&~read_eeprom(0x33*nPerfil-0x31)==0&&~read_eeprom(0x33*nPerfil-0x30)==0)? 1:0; 
*
16D0:  MOVLB  1
16D2:  MOVF   xC2,W
16D4:  MULLW  33
16D6:  MOVF   FF3,W
16D8:  ADDLW  CE
16DA:  MOVWF  xC3
16DC:  MOVFF  FF2,1C4
16E0:  BCF    FF2.7
16E2:  MOVFF  1C3,FA9
16E6:  BCF    FA6.6
16E8:  BCF    FA6.7
16EA:  BSF    FA6.0
16EC:  MOVF   FA8,W
16EE:  BTFSC  xC4.7
16F0:  BSF    FF2.7
16F2:  XORLW  FF
16F4:  XORLW  00
16F6:  BNZ   1748
16F8:  MOVF   xC2,W
16FA:  MULLW  33
16FC:  MOVF   FF3,W
16FE:  ADDLW  CF
1700:  MOVWF  xC3
1702:  MOVFF  FF2,1C5
1706:  BCF    FF2.7
1708:  MOVFF  1C3,FA9
170C:  BCF    FA6.6
170E:  BCF    FA6.7
1710:  BSF    FA6.0
1712:  MOVF   FA8,W
1714:  BTFSC  xC5.7
1716:  BSF    FF2.7
1718:  XORLW  FF
171A:  XORLW  00
171C:  BNZ   1748
171E:  MOVF   xC2,W
1720:  MULLW  33
1722:  MOVF   FF3,W
1724:  ADDLW  D0
1726:  MOVWF  xC3
1728:  MOVFF  FF2,1C6
172C:  BCF    FF2.7
172E:  MOVFF  1C3,FA9
1732:  BCF    FA6.6
1734:  BCF    FA6.7
1736:  BSF    FA6.0
1738:  MOVF   FA8,W
173A:  BTFSC  xC6.7
173C:  BSF    FF2.7
173E:  XORLW  FF
1740:  XORLW  00
1742:  BNZ   1748
1744:  MOVLW  01
1746:  BRA    174A
1748:  MOVLW  00
174A:  MOVWF  01
174C:  MOVLB  0
174E:  RETURN 0
.................... } 
.................... void printVacio(){ 
*
15EA:  MOVFF  173,1C1
15EE:  MOVFF  174,1C2
....................    int _x=X,_y=Y; 
....................    disable_interrupts(global); 
15F2:  BCF    FF2.6
15F4:  BCF    FF2.7
15F6:  BTFSC  FF2.7
15F8:  BRA    15F4
....................    fillRect(22,21,(_width-30),(_height-35),BG_COLOR); 
15FA:  MOVLW  1E
15FC:  MOVLB  1
15FE:  SUBWF  x68,W
1600:  MOVWF  xC3
1602:  MOVLW  23
1604:  SUBWF  x69,W
1606:  MOVWF  xC4
1608:  CLRF   xE9
160A:  MOVLW  16
160C:  MOVWF  xE8
160E:  MOVLW  15
1610:  MOVWF  xEA
1612:  MOVFF  1C3,1EB
1616:  MOVFF  1C4,1EC
161A:  CLRF   xEE
161C:  CLRF   xED
161E:  MOVLB  0
1620:  CALL   0C9E
....................    tft_gotoxy(0, 2); 
1624:  MOVLB  1
1626:  CLRF   xDC
1628:  MOVLW  02
162A:  MOVWF  xDD
162C:  MOVLB  0
162E:  RCALL  0EA2
....................    printf(tft_putc,"  \n   "); 
1630:  MOVLW  C0
1632:  MOVWF  FF6
1634:  MOVLW  01
1636:  MOVWF  FF7
1638:  RCALL  1108
....................    tft_gotoxy(X_MAX-6, Y_MAX); 
163A:  MOVLW  06
163C:  MOVLB  1
163E:  SUBWF  x6F,W
1640:  MOVWF  xC3
1642:  MOVWF  xDC
1644:  MOVFF  171,1DD
1648:  MOVLB  0
164A:  RCALL  0EA2
....................    printf(tft_putc,"TTTTT"); 
164C:  MOVLW  C8
164E:  MOVWF  FF6
1650:  MOVLW  01
1652:  MOVWF  FF7
1654:  RCALL  1108
....................    tft_gotoxy(11,8); 
1656:  MOVLW  0B
1658:  MOVLB  1
165A:  MOVWF  xDC
165C:  MOVLW  08
165E:  MOVWF  xDD
1660:  MOVLB  0
1662:  RCALL  0EA2
....................    switch(config&0x03){ 
1664:  MOVF   1A,W
1666:  ANDLW  03
1668:  ADDLW  FC
166A:  BC    16A0
166C:  ADDLW  04
166E:  GOTO   16AE
....................       case 0: 
....................          printf(tft_putc,"VACIO"); 
1672:  MOVLW  CE
1674:  MOVWF  FF6
1676:  MOVLW  01
1678:  MOVWF  FF7
167A:  RCALL  1108
....................          break; 
167C:  BRA    16A0
....................       case 1: 
....................          printf(tft_putc,"EMPTY"); 
167E:  MOVLW  D4
1680:  MOVWF  FF6
1682:  MOVLW  01
1684:  MOVWF  FF7
1686:  RCALL  1108
....................          break; 
1688:  BRA    16A0
....................       case 2: 
....................          printf(tft_putc,"VIDE"); 
168A:  MOVLW  DA
168C:  MOVWF  FF6
168E:  MOVLW  01
1690:  MOVWF  FF7
1692:  RCALL  1108
....................          break; 
1694:  BRA    16A0
....................       case 3: 
....................          printf(tft_putc,"ÏYCTO]");  
1696:  MOVLW  E0
1698:  MOVWF  FF6
169A:  MOVLW  01
169C:  MOVWF  FF7
169E:  RCALL  1108
....................          break; 
....................    } 
....................    enable_interrupts(global); 
16A0:  MOVLW  C0
16A2:  IORWF  FF2,F
....................    X=_x; 
16A4:  MOVFF  1C1,173
....................    Y=_y; 
16A8:  MOVFF  1C2,174
....................    return; 
16AC:  RETURN 0
.................... } 
.................... void GrafPerfil(int *nPuntos,struct Punto *Curva, int nPerfil){ 
*
2926:  MOVFF  173,1BA
292A:  MOVFF  174,1BB
292E:  MOVLB  1
2930:  BSF    xBC.0
....................    int _x=X,_y=Y; 
....................    int1 prvPerfilVacio = TRUE; 
....................    if(nPerfil!=1) prvPerfilVacio=perfilVacio(nPerfil-1); 
2932:  DECFSZ xB9,W
2934:  BRA    2938
2936:  BRA    294E
2938:  MOVLW  01
293A:  SUBWF  xB9,W
293C:  MOVWF  xC1
293E:  MOVWF  xC2
2940:  MOVLB  0
2942:  CALL   16D0
2946:  MOVLB  1
2948:  BCF    xBC.0
294A:  BTFSC  01.0
294C:  BSF    xBC.0
....................    if(perfilVacio(nPerfil)||nPerfil==6){ 
294E:  MOVFF  1B9,1C2
2952:  MOVLB  0
2954:  CALL   16D0
2958:  MOVF   01,F
295A:  BNZ   2966
295C:  MOVLB  1
295E:  MOVF   xB9,W
2960:  SUBLW  06
2962:  BNZ   2976
2964:  MOVLB  0
....................       if(prvPerfilVacio==0){ 
2966:  MOVLB  1
2968:  BTFSC  xBC.0
296A:  BRA    2974
....................          printVacio(); 
296C:  MOVLB  0
296E:  CALL   15EA
2972:  MOVLB  1
....................       } 
....................    } else{ 
2974:  BRA    2BC0
....................       *nPuntos=17; 
2976:  MOVFF  1B5,FE9
297A:  MOVFF  1B6,FEA
297E:  MOVLW  11
2980:  MOVWF  FEF
....................       for(int i=0;i<(*nPuntos);i++){ 
2982:  CLRF   xBD
2984:  MOVFF  1B6,03
2988:  MOVFF  1B5,FE9
298C:  MOVFF  1B6,FEA
2990:  MOVF   FEF,W
2992:  SUBWF  xBD,W
2994:  BTFSC  FD8.0
2996:  BRA    2B82
....................          Curva[i].Temperatura=~read_eeprom(0x33*nPerfil-0x32+3*i); 
2998:  CLRF   xEE
299A:  MOVFF  1BD,1ED
299E:  CLRF   xF0
29A0:  MOVLW  03
29A2:  MOVWF  xEF
29A4:  MOVLB  0
29A6:  CALL   0E16
29AA:  MOVFF  02,1C2
29AE:  MOVFF  01,1C1
29B2:  MOVLB  1
29B4:  MOVF   xB7,W
29B6:  ADDWF  xC1,W
29B8:  MOVWF  FE9
29BA:  MOVF   xB8,W
29BC:  ADDWFC xC2,W
29BE:  MOVWF  FEA
29C0:  MOVF   xB9,W
29C2:  MULLW  33
29C4:  MOVF   FF3,W
29C6:  ADDLW  CE
29C8:  MOVWF  xC5
29CA:  MOVF   xBD,W
29CC:  MULLW  03
29CE:  MOVF   FF3,W
29D0:  ADDWF  xC5,F
29D2:  MOVFF  FF2,1C6
29D6:  BCF    FF2.7
29D8:  MOVFF  1C5,FA9
29DC:  BCF    FA6.6
29DE:  BCF    FA6.7
29E0:  BSF    FA6.0
29E2:  MOVF   FA8,W
29E4:  BTFSC  xC6.7
29E6:  BSF    FF2.7
29E8:  XORLW  FF
29EA:  MOVWF  FEF
....................          Curva[i].Tiempo=~read_eeprom(0x33*nPerfil-0x31+3*i); 
29EC:  CLRF   xEE
29EE:  MOVFF  1BD,1ED
29F2:  CLRF   xF0
29F4:  MOVLW  03
29F6:  MOVWF  xEF
29F8:  MOVLB  0
29FA:  CALL   0E16
29FE:  MOVFF  02,1C2
2A02:  MOVFF  01,1C1
2A06:  MOVLW  01
2A08:  MOVLB  1
2A0A:  ADDWF  xC1,W
2A0C:  MOVWF  01
2A0E:  MOVLW  00
2A10:  ADDWFC xC2,W
2A12:  MOVWF  03
2A14:  MOVF   01,W
2A16:  ADDWF  xB7,W
2A18:  MOVWF  FE9
2A1A:  MOVF   xB8,W
2A1C:  ADDWFC 03,W
2A1E:  MOVWF  FEA
2A20:  MOVF   xB9,W
2A22:  MULLW  33
2A24:  MOVF   FF3,W
2A26:  ADDLW  CF
2A28:  MOVWF  xC3
2A2A:  MOVF   xBD,W
2A2C:  MULLW  03
2A2E:  MOVF   FF3,W
2A30:  ADDWF  xC3,F
2A32:  MOVFF  FF2,1C4
2A36:  BCF    FF2.7
2A38:  MOVFF  1C3,FA9
2A3C:  BCF    FA6.6
2A3E:  BCF    FA6.7
2A40:  BSF    FA6.0
2A42:  MOVF   FA8,W
2A44:  BTFSC  xC4.7
2A46:  BSF    FF2.7
2A48:  XORLW  FF
2A4A:  CLRF   FEC
2A4C:  MOVF   FED,F
2A4E:  MOVWF  FEF
....................          Curva[i].Tiempo<<=8; 
2A50:  CLRF   xEE
2A52:  MOVFF  1BD,1ED
2A56:  CLRF   xF0
2A58:  MOVLW  03
2A5A:  MOVWF  xEF
2A5C:  MOVLB  0
2A5E:  CALL   0E16
2A62:  MOVFF  01,1C1
2A66:  MOVLW  01
2A68:  MOVLB  1
2A6A:  ADDWF  01,W
2A6C:  MOVWF  01
2A6E:  MOVLW  00
2A70:  ADDWFC 02,W
2A72:  MOVWF  03
2A74:  MOVF   01,W
2A76:  ADDWF  xB7,W
2A78:  MOVWF  FE9
2A7A:  MOVF   xB8,W
2A7C:  ADDWFC 03,W
2A7E:  MOVWF  FEA
2A80:  MOVFF  FEF,03
2A84:  MOVLW  00
2A86:  MOVWF  FEF
2A88:  MOVFF  03,FEC
....................          Curva[i].Tiempo|=~read_eeprom(0x33*nPerfil-0x30+3*i); 
2A8C:  CLRF   xEE
2A8E:  MOVFF  1BD,1ED
2A92:  CLRF   xF0
2A94:  MOVLW  03
2A96:  MOVWF  xEF
2A98:  MOVLB  0
2A9A:  CALL   0E16
2A9E:  MOVFF  02,1C2
2AA2:  MOVFF  01,1C1
2AA6:  MOVLW  01
2AA8:  MOVLB  1
2AAA:  ADDWF  xC1,W
2AAC:  MOVWF  01
2AAE:  MOVLW  00
2AB0:  ADDWFC xC2,W
2AB2:  MOVWF  03
2AB4:  MOVF   01,W
2AB6:  ADDWF  xB7,W
2AB8:  MOVWF  FE9
2ABA:  MOVF   xB8,W
2ABC:  ADDWFC 03,W
2ABE:  MOVWF  FEA
2AC0:  MOVF   xB9,W
2AC2:  MULLW  33
2AC4:  MOVF   FF3,W
2AC6:  ADDLW  D0
2AC8:  MOVWF  xC5
2ACA:  MOVF   xBD,W
2ACC:  MULLW  03
2ACE:  MOVF   FF3,W
2AD0:  ADDWF  xC5,F
2AD2:  MOVFF  FF2,1C6
2AD6:  BCF    FF2.7
2AD8:  MOVFF  1C5,FA9
2ADC:  BCF    FA6.6
2ADE:  BCF    FA6.7
2AE0:  BSF    FA6.0
2AE2:  MOVF   FA8,W
2AE4:  BTFSC  xC6.7
2AE6:  BSF    FF2.7
2AE8:  XORLW  FF
2AEA:  IORWF  FEF,W
2AEC:  MOVWF  00
2AEE:  MOVF   FEC,W
2AF0:  MOVWF  03
2AF2:  MOVF   00,W
2AF4:  MOVF   FED,F
2AF6:  MOVWF  FEF
2AF8:  MOVFF  03,FEC
2AFC:  MOVF   FED,F
....................          if(Curva[i].Temperatura==0&&Curva[i].Tiempo==0){ 
2AFE:  CLRF   xEE
2B00:  MOVFF  1BD,1ED
2B04:  CLRF   xF0
2B06:  MOVLW  03
2B08:  MOVWF  xEF
2B0A:  MOVLB  0
2B0C:  CALL   0E16
2B10:  MOVFF  02,1C2
2B14:  MOVFF  01,1C1
2B18:  MOVLB  1
2B1A:  MOVF   xB7,W
2B1C:  ADDWF  01,W
2B1E:  MOVWF  FE9
2B20:  MOVF   xB8,W
2B22:  ADDWFC 02,W
2B24:  MOVWF  FEA
2B26:  MOVF   FEF,F
2B28:  BNZ   2B7E
2B2A:  CLRF   xEE
2B2C:  MOVFF  1BD,1ED
2B30:  CLRF   xF0
2B32:  MOVLW  03
2B34:  MOVWF  xEF
2B36:  MOVLB  0
2B38:  CALL   0E16
2B3C:  MOVFF  01,1C3
2B40:  MOVLW  01
2B42:  MOVLB  1
2B44:  ADDWF  01,W
2B46:  MOVWF  01
2B48:  MOVLW  00
2B4A:  ADDWFC 02,W
2B4C:  MOVWF  03
2B4E:  MOVF   01,W
2B50:  ADDWF  xB7,W
2B52:  MOVWF  FE9
2B54:  MOVF   xB8,W
2B56:  ADDWFC 03,W
2B58:  MOVWF  FEA
2B5A:  MOVFF  FEC,1C4
2B5E:  MOVF   FED,F
2B60:  MOVFF  FEF,1C3
2B64:  MOVF   xC3,F
2B66:  BNZ   2B7E
2B68:  MOVF   xC4,F
2B6A:  BNZ   2B7E
....................             *nPuntos=i; 
2B6C:  MOVFF  1B6,03
2B70:  MOVFF  1B5,FE9
2B74:  MOVFF  03,FEA
2B78:  MOVFF  1BD,FEF
....................             break; 
2B7C:  BRA    2B82
....................          } 
2B7E:  INCF   xBD,F
2B80:  BRA    2984
....................       } 
....................       struct Punto buff; 
....................       buff = Graf(*nPuntos, Curva, 1); 
2B82:  MOVFF  1B6,03
2B86:  MOVFF  1B5,FE9
2B8A:  MOVFF  1B6,FEA
2B8E:  MOVFF  FEF,1C4
2B92:  MOVFF  1B8,1C6
2B96:  MOVFF  1B7,1C5
2B9A:  MOVLW  01
2B9C:  MOVWF  xC7
2B9E:  MOVLB  0
2BA0:  CALL   1CAA
2BA4:  MOVFF  03,1C0
2BA8:  MOVFF  02,1BF
2BAC:  MOVFF  01,1BE
....................       GrafData(buff); 
2BB0:  MOVFF  1C0,1C6
2BB4:  MOVFF  1BF,1C5
2BB8:  MOVFF  1BE,1C4
2BBC:  RCALL  27AA
2BBE:  MOVLB  1
....................    } 
....................    X=_x; 
2BC0:  MOVFF  1BA,173
....................    Y=_y; 
2BC4:  MOVFF  1BB,174
2BC8:  MOVLB  0
2BCA:  RETURN 0
.................... } 
.................... void Cursor(int _x,int _y){ 
....................    x-=6; 
*
134E:  MOVLW  06
1350:  MOVLB  1
1352:  SUBWF  x73,F
....................    printf(tft_putc," "); 
1354:  MOVLW  20
1356:  MOVWF  xDB
1358:  MOVLB  0
135A:  RCALL  0FA0
....................    tft_gotoxy(_x,_y); 
135C:  MOVFF  1C1,1DC
1360:  MOVFF  1C2,1DD
1364:  RCALL  0EA2
....................    printf(tft_putc,">"); 
1366:  MOVLW  3E
1368:  MOVLB  1
136A:  MOVWF  xDB
136C:  MOVLB  0
136E:  RCALL  0FA0
1370:  RETURN 0
.................... } 
.................... void printEspacios(int n){ 
....................    for(int i=0;i<n;i++) 
*
115C:  MOVLB  1
115E:  CLRF   xB6
1160:  MOVF   xB5,W
1162:  SUBWF  xB6,W
1164:  BC    1178
....................       tft_putc(" "); 
1166:  MOVLW  E8
1168:  MOVWF  FF6
116A:  MOVLW  01
116C:  MOVWF  FF7
116E:  MOVLB  0
1170:  RCALL  1108
1172:  MOVLB  1
1174:  INCF   xB6,F
1176:  BRA    1160
....................    return; 
1178:  MOVLB  0
117A:  RETURN 0
.................... } 
.................... void printPerfilesLit(){ 
....................    switch(config&0x03){ 
117C:  MOVF   1A,W
117E:  ANDLW  03
1180:  ADDLW  FC
1182:  BC    11B8
1184:  ADDLW  04
1186:  GOTO   11BA
....................       case 0: 
....................          printf(tft_putc,"PERFILES"); 
118A:  MOVLW  EA
118C:  MOVWF  FF6
118E:  MOVLW  01
1190:  MOVWF  FF7
1192:  RCALL  1108
....................          break; 
1194:  BRA    11B8
....................       case 1: 
....................          printf(tft_putc,"PROFILES"); 
1196:  MOVLW  F4
1198:  MOVWF  FF6
119A:  MOVLW  01
119C:  MOVWF  FF7
119E:  RCALL  1108
....................          break; 
11A0:  BRA    11B8
....................       case 2: 
....................          printf(tft_putc,"PROFILS"); 
11A2:  MOVLW  FE
11A4:  MOVWF  FF6
11A6:  MOVLW  01
11A8:  MOVWF  FF7
11AA:  RCALL  1108
....................          break; 
11AC:  BRA    11B8
....................       case 3: 
....................          printf(tft_putc,"ÏPOÔ\\Ë\\"); 
11AE:  MOVLW  06
11B0:  MOVWF  FF6
11B2:  MOVLW  02
11B4:  MOVWF  FF7
11B6:  RCALL  1108
....................          break; 
....................    } 
....................    return; 
11B8:  RETURN 0
.................... } 
.................... void printConfiguracionLit(){ 
....................    switch(config&0x03){ 
*
11DC:  MOVF   1A,W
11DE:  ANDLW  03
11E0:  ADDLW  FC
11E2:  BC    1218
11E4:  ADDLW  04
11E6:  GOTO   121A
....................       case 0: 
....................          printf(tft_putc,"CONFIGURACIÓN"); 
11EA:  MOVLW  0E
11EC:  MOVWF  FF6
11EE:  MOVLW  02
11F0:  MOVWF  FF7
11F2:  RCALL  1108
....................          break; 
11F4:  BRA    1218
....................       case 1: 
....................          printf(tft_putc,"SETTINGS"); 
11F6:  MOVLW  1C
11F8:  MOVWF  FF6
11FA:  MOVLW  02
11FC:  MOVWF  FF7
11FE:  RCALL  1108
....................          break; 
1200:  BRA    1218
....................       case 2: 
....................          printf(tft_putc,"PARAMÈTRES"); 
1202:  MOVLW  26
1204:  MOVWF  FF6
1206:  MOVLW  02
1208:  MOVWF  FF7
120A:  RCALL  1108
....................          break; 
120C:  BRA    1218
....................       case 3: 
....................          printf(tft_putc,"ÏAPAMETP"); 
120E:  MOVLW  32
1210:  MOVWF  FF6
1212:  MOVLW  02
1214:  MOVWF  FF7
1216:  RCALL  1108
....................          break; 
....................    } 
....................    return; 
1218:  RETURN 0
.................... } 
.................... void printTiempoLit(){ 
....................    printEspacios(3); 
*
3120:  MOVLW  03
3122:  MOVLB  1
3124:  MOVWF  xB5
3126:  MOVLB  0
3128:  CALL   115C
....................    switch(config&0x03){ 
312C:  MOVF   1A,W
312E:  ANDLW  03
3130:  ADDLW  FC
3132:  BC    3170
3134:  ADDLW  04
3136:  GOTO   3172
....................       case 0: 
....................          printf(tft_putc,"TIEMPO"); 
313A:  MOVLW  3C
313C:  MOVWF  FF6
313E:  MOVLW  02
3140:  MOVWF  FF7
3142:  CALL   1108
....................          break; 
3146:  BRA    3170
....................       case 1: 
....................          printf(tft_putc,"TIME"); 
3148:  MOVLW  44
314A:  MOVWF  FF6
314C:  MOVLW  02
314E:  MOVWF  FF7
3150:  CALL   1108
....................          break; 
3154:  BRA    3170
....................       case 2: 
....................          printf(tft_putc,"TEMPS"); 
3156:  MOVLW  4A
3158:  MOVWF  FF6
315A:  MOVLW  02
315C:  MOVWF  FF7
315E:  CALL   1108
....................          break; 
3162:  BRA    3170
....................       case 3: 
....................          printf(tft_putc,"ÏOÃOÄA"); 
3164:  MOVLW  50
3166:  MOVWF  FF6
3168:  MOVLW  02
316A:  MOVWF  FF7
316C:  CALL   1108
....................          break; 
....................    } 
....................    return; 
3170:  RETURN 0
.................... } 
.................... void printTemperaturaLit(){ 
....................    printEspacios(3); 
*
3194:  MOVLW  03
3196:  MOVLB  1
3198:  MOVWF  xB5
319A:  MOVLB  0
319C:  CALL   115C
....................    switch(config&0x03){ 
31A0:  MOVF   1A,W
31A2:  ANDLW  03
31A4:  ADDLW  FC
31A6:  BC    31E4
31A8:  ADDLW  04
31AA:  GOTO   31E6
....................       case 0: 
....................          printf(tft_putc,"TEMPERATURA"); 
31AE:  MOVLW  58
31B0:  MOVWF  FF6
31B2:  MOVLW  02
31B4:  MOVWF  FF7
31B6:  CALL   1108
....................          break; 
31BA:  BRA    31E4
....................       case 1: 
....................          printf(tft_putc,"TIME"); 
31BC:  MOVLW  64
31BE:  MOVWF  FF6
31C0:  MOVLW  02
31C2:  MOVWF  FF7
31C4:  CALL   1108
....................          break; 
31C8:  BRA    31E4
....................       case 2: 
....................          printf(tft_putc,"TEMPS"); 
31CA:  MOVLW  6A
31CC:  MOVWF  FF6
31CE:  MOVLW  02
31D0:  MOVWF  FF7
31D2:  CALL   1108
....................          break; 
31D6:  BRA    31E4
....................       case 3: 
....................          printf(tft_putc,"ÏOÃOÄA"); 
31D8:  MOVLW  70
31DA:  MOVWF  FF6
31DC:  MOVLW  02
31DE:  MOVWF  FF7
31E0:  CALL   1108
....................          break; 
....................    } 
....................    return; 
31E4:  RETURN 0
.................... } 
.................... void printIdiomaLit(){ 
....................    printEspacios(3); 
*
3208:  MOVLW  03
320A:  MOVLB  1
320C:  MOVWF  xB5
320E:  MOVLB  0
3210:  CALL   115C
....................    switch(config&0x03){ 
3214:  MOVF   1A,W
3216:  ANDLW  03
3218:  ADDLW  FC
321A:  BC    3258
321C:  ADDLW  04
321E:  GOTO   325A
....................       case 0: 
....................          printf(tft_putc,"IDIOMA"); 
3222:  MOVLW  78
3224:  MOVWF  FF6
3226:  MOVLW  02
3228:  MOVWF  FF7
322A:  CALL   1108
....................          break; 
322E:  BRA    3258
....................       case 1: 
....................          printf(tft_putc,"LANGUAGE"); 
3230:  MOVLW  80
3232:  MOVWF  FF6
3234:  MOVLW  02
3236:  MOVWF  FF7
3238:  CALL   1108
....................          break; 
323C:  BRA    3258
....................       case 2: 
....................          printf(tft_putc,"LANGAGE"); 
323E:  MOVLW  8A
3240:  MOVWF  FF6
3242:  MOVLW  02
3244:  MOVWF  FF7
3246:  CALL   1108
....................          break; 
324A:  BRA    3258
....................       case 3: 
....................          printf(tft_putc,"\\Ä\\OMA"); 
324C:  MOVLW  92
324E:  MOVWF  FF6
3250:  MOVLW  02
3252:  MOVWF  FF7
3254:  CALL   1108
....................          break; 
....................    } 
....................    return; 
3258:  RETURN 0
.................... } 
.................... void printFormatoLit(){ 
....................    printEspacios(6); 
*
3306:  MOVLW  06
3308:  MOVLB  1
330A:  MOVWF  xB5
330C:  MOVLB  0
330E:  CALL   115C
....................    switch(config&0x03){ 
3312:  MOVF   1A,W
3314:  ANDLW  03
3316:  ADDLW  FC
3318:  BC    3356
331A:  ADDLW  04
331C:  GOTO   3358
....................       case 0: 
....................          printf(tft_putc,"FORMATO"); 
3320:  MOVLW  9A
3322:  MOVWF  FF6
3324:  MOVLW  02
3326:  MOVWF  FF7
3328:  CALL   1108
....................          break; 
332C:  BRA    3356
....................       case 1: 
....................          printf(tft_putc,"FORMAT"); 
332E:  MOVLW  A2
3330:  MOVWF  FF6
3332:  MOVLW  02
3334:  MOVWF  FF7
3336:  CALL   1108
....................          break; 
333A:  BRA    3356
....................       case 2: 
....................          printf(tft_putc,"FORMAT"); 
333C:  MOVLW  AA
333E:  MOVWF  FF6
3340:  MOVLW  02
3342:  MOVWF  FF7
3344:  CALL   1108
....................          break; 
3348:  BRA    3356
....................       case 3: 
....................          printf(tft_putc,"ÔORMAT"); 
334A:  MOVLW  B2
334C:  MOVWF  FF6
334E:  MOVLW  02
3350:  MOVWF  FF7
3352:  CALL   1108
....................          break; 
....................    } 
....................    return; 
3356:  RETURN 0
.................... } 
.................... void printOrigenLit(){ 
....................    printEspacios(6); 
*
337A:  MOVLW  06
337C:  MOVLB  1
337E:  MOVWF  xB5
3380:  MOVLB  0
3382:  CALL   115C
....................    switch(config&0x03){ 
3386:  MOVF   1A,W
3388:  ANDLW  03
338A:  ADDLW  FC
338C:  BC    33CA
338E:  ADDLW  04
3390:  GOTO   33CC
....................       case 0: 
....................          printf(tft_putc,"ORIGEN"); 
3394:  MOVLW  BA
3396:  MOVWF  FF6
3398:  MOVLW  02
339A:  MOVWF  FF7
339C:  CALL   1108
....................          break; 
33A0:  BRA    33CA
....................       case 1: 
....................          printf(tft_putc,"REFERENCE"); 
33A2:  MOVLW  C2
33A4:  MOVWF  FF6
33A6:  MOVLW  02
33A8:  MOVWF  FF7
33AA:  CALL   1108
....................          break; 
33AE:  BRA    33CA
....................       case 2: 
....................          printf(tft_putc,"ORIGINE"); 
33B0:  MOVLW  CC
33B2:  MOVWF  FF6
33B4:  MOVLW  02
33B6:  MOVWF  FF7
33B8:  CALL   1108
....................          break; 
33BC:  BRA    33CA
....................       case 3: 
....................          printf(tft_putc,"\\CTO×H\\K"); 
33BE:  MOVLW  D4
33C0:  MOVWF  FF6
33C2:  MOVLW  02
33C4:  MOVWF  FF7
33C6:  CALL   1108
....................          break; 
....................    } 
....................    return; 
33CA:  RETURN 0
.................... } 
.................... void printVolver(){ 
....................    disable_interrupts(global); 
*
13A6:  BCF    FF2.6
13A8:  BCF    FF2.7
13AA:  BTFSC  FF2.7
13AC:  BRA    13A8
....................    switch(config&0x03){ 
13AE:  MOVF   1A,W
13B0:  ANDLW  03
13B2:  ADDLW  FC
13B4:  BC    13EA
13B6:  ADDLW  04
13B8:  GOTO   13F0
....................       case 0: 
....................          printf(tft_putc,"VOLVER "); 
13BC:  MOVLW  DE
13BE:  MOVWF  FF6
13C0:  MOVLW  02
13C2:  MOVWF  FF7
13C4:  RCALL  1108
....................          break; 
13C6:  BRA    13EA
....................       case 1: 
....................          printf(tft_putc,"RETURN "); 
13C8:  MOVLW  E6
13CA:  MOVWF  FF6
13CC:  MOVLW  02
13CE:  MOVWF  FF7
13D0:  RCALL  1108
....................          break; 
13D2:  BRA    13EA
....................       case 2: 
....................          printf(tft_putc,"REVENIR "); 
13D4:  MOVLW  EE
13D6:  MOVWF  FF6
13D8:  MOVLW  02
13DA:  MOVWF  FF7
13DC:  RCALL  1108
....................          break; 
13DE:  BRA    13EA
....................       case 3: 
....................          printf(tft_putc,"BO[BPAÙATÜCß "); 
13E0:  MOVLW  F8
13E2:  MOVWF  FF6
13E4:  MOVLW  02
13E6:  MOVWF  FF7
13E8:  RCALL  1108
....................          break; 
....................    } 
....................    enable_interrupts(global); 
13EA:  MOVLW  C0
13EC:  IORWF  FF2,F
....................    return; 
13EE:  RETURN 0
.................... } 
.................... void printInit(){ 
....................    printf(tft_putc,"\f\n "); 
*
1128:  MOVLW  06
112A:  MOVWF  FF6
112C:  MOVLW  03
112E:  MOVWF  FF7
1130:  RCALL  1108
....................    return; 
1132:  RETURN 0
.................... } 
.................... void printDobleEndl(int1 DosPuntos){ 
....................    if(DosPuntos) tft_putc(":"); 
1134:  MOVLB  1
1136:  MOVF   xB5,F
1138:  BZ    1148
113A:  MOVLW  0A
113C:  MOVWF  FF6
113E:  MOVLW  03
1140:  MOVWF  FF7
1142:  MOVLB  0
1144:  RCALL  1108
1146:  MOVLB  1
....................    printf(tft_putc,"\n\n"); 
1148:  MOVLW  0A
114A:  MOVWF  xDB
114C:  MOVLB  0
114E:  RCALL  0FA0
1150:  MOVLW  0A
1152:  MOVLB  1
1154:  MOVWF  xDB
1156:  MOVLB  0
1158:  RCALL  0FA0
....................    return; 
115A:  RETURN 0
.................... } 
.................... void printMenuPrincipal(){ 
....................    disable_interrupts(global); 
*
123C:  BCF    FF2.6
123E:  BCF    FF2.7
1240:  BTFSC  FF2.7
1242:  BRA    123E
....................    printInit(); 
1244:  RCALL  1128
....................    switch(config&0x03){ 
1246:  MOVF   1A,W
1248:  ANDLW  03
124A:  ADDLW  FC
124C:  BC    1282
124E:  ADDLW  04
1250:  GOTO   130A
....................       case 0: 
....................          printf(tft_putc,"MENU PRINCIPAL"); 
1254:  MOVLW  0C
1256:  MOVWF  FF6
1258:  MOVLW  03
125A:  MOVWF  FF7
125C:  RCALL  1108
....................          break; 
125E:  BRA    1282
....................       case 1: 
....................          printf(tft_putc,"MAIN MENU"); 
1260:  MOVLW  1C
1262:  MOVWF  FF6
1264:  MOVLW  03
1266:  MOVWF  FF7
1268:  RCALL  1108
....................          break; 
126A:  BRA    1282
....................       case 2: 
....................          printf(tft_putc,"MENU PRINCIPAL"); 
126C:  MOVLW  26
126E:  MOVWF  FF6
1270:  MOVLW  03
1272:  MOVWF  FF7
1274:  RCALL  1108
....................          break; 
1276:  BRA    1282
....................       case 3: 
....................          printf(tft_putc,"ÃËABHOE MEHÞ"); 
1278:  MOVLW  36
127A:  MOVWF  FF6
127C:  MOVLW  03
127E:  MOVWF  FF7
1280:  RCALL  1108
....................          break; 
....................    } 
....................     
....................    printDobleEndl(1); 
1282:  MOVLW  01
1284:  MOVLB  1
1286:  MOVWF  xB5
1288:  MOVLB  0
128A:  RCALL  1134
....................    printEspacios(3); 
128C:  MOVLW  03
128E:  MOVLB  1
1290:  MOVWF  xB5
1292:  MOVLB  0
1294:  RCALL  115C
....................    printPerfilesLit(); 
1296:  RCALL  117C
....................    printDobleEndl(0); 
1298:  MOVLB  1
129A:  CLRF   xB5
129C:  MOVLB  0
129E:  RCALL  1134
....................    printEspacios(3); 
12A0:  MOVLW  03
12A2:  MOVLB  1
12A4:  MOVWF  xB5
12A6:  MOVLB  0
12A8:  RCALL  115C
....................    switch(config&0x03){ 
12AA:  MOVF   1A,W
12AC:  ANDLW  03
12AE:  ADDLW  FC
12B0:  BC    12E6
12B2:  ADDLW  04
12B4:  GOTO   132C
....................       case 0: 
....................          printf(tft_putc,"CARGAR VALORES"); 
12B8:  MOVLW  44
12BA:  MOVWF  FF6
12BC:  MOVLW  03
12BE:  MOVWF  FF7
12C0:  RCALL  1108
....................          break; 
12C2:  BRA    12E6
....................       case 1: 
....................          printf(tft_putc,"LOAD VALUES"); 
12C4:  MOVLW  54
12C6:  MOVWF  FF6
12C8:  MOVLW  03
12CA:  MOVWF  FF7
12CC:  RCALL  1108
....................          break; 
12CE:  BRA    12E6
....................       case 2: 
....................          printf(tft_putc,"CHARGER VALEURS"); 
12D0:  MOVLW  60
12D2:  MOVWF  FF6
12D4:  MOVLW  03
12D6:  MOVWF  FF7
12D8:  RCALL  1108
....................          break; 
12DA:  BRA    12E6
....................       case 3: 
....................          printf(tft_putc,"[HA×EH\\ß HAÃPY[K\\"); 
12DC:  MOVLW  70
12DE:  MOVWF  FF6
12E0:  MOVLW  03
12E2:  MOVWF  FF7
12E4:  RCALL  1108
....................          break; 
....................    } 
....................    printDobleEndl(0); 
12E6:  MOVLB  1
12E8:  CLRF   xB5
12EA:  MOVLB  0
12EC:  RCALL  1134
....................    printEspacios(3); 
12EE:  MOVLW  03
12F0:  MOVLB  1
12F2:  MOVWF  xB5
12F4:  MOVLB  0
12F6:  RCALL  115C
....................    printConfiguracionLit(); 
12F8:  RCALL  11DC
....................    printf(tft_putc," "); 
12FA:  MOVLW  20
12FC:  MOVLB  1
12FE:  MOVWF  xDB
1300:  MOVLB  0
1302:  RCALL  0FA0
....................    enable_interrupts(global); 
1304:  MOVLW  C0
1306:  IORWF  FF2,F
....................    return; 
1308:  RETURN 0
.................... } 
.................... void printPerfiles(){ 
....................    disable_interrupts(global); 
*
1412:  BCF    FF2.6
1414:  BCF    FF2.7
1416:  BTFSC  FF2.7
1418:  BRA    1414
....................    printf(tft_putc,"\f"); 
141A:  MOVLW  0C
141C:  MOVLB  1
141E:  MOVWF  xDB
1420:  MOVLB  0
1422:  RCALL  0FA0
....................    printPerfilesLit(); 
1424:  RCALL  117C
....................    printf(tft_putc,":\n"); 
1426:  MOVLW  3A
1428:  MOVLB  1
142A:  MOVWF  xDB
142C:  MOVLB  0
142E:  RCALL  0FA0
1430:  MOVLW  0A
1432:  MOVLB  1
1434:  MOVWF  xDB
1436:  MOVLB  0
1438:  RCALL  0FA0
....................    printf(tft_putc,"  1  2  3  4  5  "); 
143A:  MOVLW  82
143C:  MOVWF  FF6
143E:  MOVLW  03
1440:  MOVWF  FF7
1442:  RCALL  1108
....................    printVolver(); 
1444:  RCALL  13A6
....................    enable_interrupts(global); 
1446:  MOVLW  C0
1448:  IORWF  FF2,F
....................    return; 
144A:  GOTO   2CB4 (RETURN)
.................... } 
.................... void printConfiguracion(){ 
....................    printInit(); 
*
327C:  CALL   1128
....................    printConfiguracionLit(); 
3280:  CALL   11DC
....................    printDobleEndl(1); 
3284:  MOVLW  01
3286:  MOVLB  1
3288:  MOVWF  xB5
328A:  MOVLB  0
328C:  CALL   1134
....................    printTiempoLit(); 
3290:  RCALL  3120
....................    printDobleEndl(0); 
3292:  MOVLB  1
3294:  CLRF   xB5
3296:  MOVLB  0
3298:  CALL   1134
....................    printTemperaturaLit(); 
329C:  RCALL  3194
....................    printDobleEndl(0); 
329E:  MOVLB  1
32A0:  CLRF   xB5
32A2:  MOVLB  0
32A4:  CALL   1134
....................    printIdiomaLit(); 
32A8:  RCALL  3208
....................    printDobleEndl(0); 
32AA:  MOVLB  1
32AC:  CLRF   xB5
32AE:  MOVLB  0
32B0:  CALL   1134
....................    printEspacios(3); 
32B4:  MOVLW  03
32B6:  MOVLB  1
32B8:  MOVWF  xB5
32BA:  MOVLB  0
32BC:  CALL   115C
....................    printVolver(); 
32C0:  CALL   13A6
....................    return; 
32C4:  RETURN 0
.................... } 
.................... void printTiempo(){ 
....................    printInit(); 
*
33EE:  CALL   1128
....................    printConfiguracionLit(); 
33F2:  CALL   11DC
....................    printDobleEndl(1); 
33F6:  MOVLW  01
33F8:  MOVLB  1
33FA:  MOVWF  xB5
33FC:  MOVLB  0
33FE:  CALL   1134
....................    printTiempoLit(); 
3402:  RCALL  3120
....................    printDobleEndl(1); 
3404:  MOVLW  01
3406:  MOVLB  1
3408:  MOVWF  xB5
340A:  MOVLB  0
340C:  CALL   1134
....................    printFormatoLit(); 
3410:  RCALL  3306
....................    printDobleEndl(0); 
3412:  MOVLB  1
3414:  CLRF   xB5
3416:  MOVLB  0
3418:  CALL   1134
....................    printOrigenLit(); 
341C:  RCALL  337A
....................    printDobleEndl(0); 
341E:  MOVLB  1
3420:  CLRF   xB5
3422:  MOVLB  0
3424:  CALL   1134
....................    printEspacios(6); 
3428:  MOVLW  06
342A:  MOVLB  1
342C:  MOVWF  xB5
342E:  MOVLB  0
3430:  CALL   115C
....................    printVolver(); 
3434:  CALL   13A6
....................    return; 
3438:  RETURN 0
.................... } 
.................... void printFormato(){ 
....................    printInit(); 
*
3472:  CALL   1128
....................    printConfiguracionLit(); 
3476:  CALL   11DC
....................    printDobleEndl(1); 
347A:  MOVLW  01
347C:  MOVLB  1
347E:  MOVWF  xB5
3480:  MOVLB  0
3482:  CALL   1134
....................    printTiempoLit(); 
3486:  RCALL  3120
....................    printDobleEndl(1); 
3488:  MOVLW  01
348A:  MOVLB  1
348C:  MOVWF  xB5
348E:  MOVLB  0
3490:  CALL   1134
....................    printFormatoLit(); 
3494:  RCALL  3306
....................    printDobleEndl(1); 
3496:  MOVLW  01
3498:  MOVLB  1
349A:  MOVWF  xB5
349C:  MOVLB  0
349E:  CALL   1134
....................    printEspacios(9); 
34A2:  MOVLW  09
34A4:  MOVLB  1
34A6:  MOVWF  xB5
34A8:  MOVLB  0
34AA:  CALL   115C
....................    if(config&0x03==3) printf(tft_putc,"CCCC"); 
34AE:  BTFSS  1A.0
34B0:  BRA    34C0
34B2:  MOVLW  94
34B4:  MOVWF  FF6
34B6:  MOVLW  03
34B8:  MOVWF  FF7
34BA:  CALL   1108
34BE:  BRA    34CC
....................    else printf(tft_putc,"SSSS"); 
34C0:  MOVLW  9A
34C2:  MOVWF  FF6
34C4:  MOVLW  03
34C6:  MOVWF  FF7
34C8:  CALL   1108
....................    printDobleEndl(0); 
34CC:  MOVLB  1
34CE:  CLRF   xB5
34D0:  MOVLB  0
34D2:  CALL   1134
....................    printEspacios(9); 
34D6:  MOVLW  09
34D8:  MOVLB  1
34DA:  MOVWF  xB5
34DC:  MOVLB  0
34DE:  CALL   115C
....................    printf(tft_putc,"MM:"); 
34E2:  MOVLW  A0
34E4:  MOVWF  FF6
34E6:  MOVLW  03
34E8:  MOVWF  FF7
34EA:  CALL   1108
....................    if(config&0x03==3) printf(tft_putc,"CC"); 
34EE:  BTFSS  1A.0
34F0:  BRA    350C
34F2:  MOVLW  43
34F4:  MOVLB  1
34F6:  MOVWF  xDB
34F8:  MOVLB  0
34FA:  CALL   0FA0
34FE:  MOVLW  43
3500:  MOVLB  1
3502:  MOVWF  xDB
3504:  MOVLB  0
3506:  CALL   0FA0
350A:  BRA    3524
....................    else printf(tft_putc,"SS"); 
350C:  MOVLW  53
350E:  MOVLB  1
3510:  MOVWF  xDB
3512:  MOVLB  0
3514:  CALL   0FA0
3518:  MOVLW  53
351A:  MOVLB  1
351C:  MOVWF  xDB
351E:  MOVLB  0
3520:  CALL   0FA0
....................    printDobleEndl(0); 
3524:  MOVLB  1
3526:  CLRF   xB5
3528:  MOVLB  0
352A:  CALL   1134
....................    printEspacios(9); 
352E:  MOVLW  09
3530:  MOVLB  1
3532:  MOVWF  xB5
3534:  MOVLB  0
3536:  CALL   115C
....................    printVolver(); 
353A:  CALL   13A6
....................    return; 
353E:  GOTO   356C (RETURN)
.................... } 
.................... void printOrigen(){ 
....................    printInit(); 
*
36E0:  CALL   1128
....................    printConfiguracionLit(); 
36E4:  CALL   11DC
....................    printDobleEndl(1); 
36E8:  MOVLW  01
36EA:  MOVLB  1
36EC:  MOVWF  xB5
36EE:  MOVLB  0
36F0:  CALL   1134
....................    printTiempoLit(); 
36F4:  RCALL  3120
....................    printDobleEndl(1); 
36F6:  MOVLW  01
36F8:  MOVLB  1
36FA:  MOVWF  xB5
36FC:  MOVLB  0
36FE:  CALL   1134
....................    printOrigenLit(); 
3702:  RCALL  337A
....................    printDobleEndl(1); 
3704:  MOVLW  01
3706:  MOVLB  1
3708:  MOVWF  xB5
370A:  MOVLB  0
370C:  CALL   1134
....................    printEspacios(9); 
3710:  MOVLW  09
3712:  MOVLB  1
3714:  MOVWF  xB5
3716:  MOVLB  0
3718:  CALL   115C
....................    switch(config&0x03){ 
371C:  MOVF   1A,W
371E:  ANDLW  03
3720:  ADDLW  FC
3722:  BC    3760
3724:  ADDLW  04
3726:  GOTO   37D8
....................       case 0: 
....................          printf(tft_putc,"RELATIVO"); 
372A:  MOVLW  A4
372C:  MOVWF  FF6
372E:  MOVLW  03
3730:  MOVWF  FF7
3732:  CALL   1108
....................          break; 
3736:  BRA    3760
....................       case 1: 
....................          printf(tft_putc,"RELATIVE"); 
3738:  MOVLW  AE
373A:  MOVWF  FF6
373C:  MOVLW  03
373E:  MOVWF  FF7
3740:  CALL   1108
....................          break; 
3744:  BRA    3760
....................       case 2: 
....................          printf(tft_putc,"RELATIF"); 
3746:  MOVLW  B8
3748:  MOVWF  FF6
374A:  MOVLW  03
374C:  MOVWF  FF7
374E:  CALL   1108
....................          break; 
3752:  BRA    3760
....................       case 3: 
....................          printf(tft_putc,"POÄCTBEHH\\K"); 
3754:  MOVLW  C0
3756:  MOVWF  FF6
3758:  MOVLW  03
375A:  MOVWF  FF7
375C:  CALL   1108
....................          break; 
....................    } 
....................    printDobleEndl(0); 
3760:  MOVLB  1
3762:  CLRF   xB5
3764:  MOVLB  0
3766:  CALL   1134
....................    printEspacios(9); 
376A:  MOVLW  09
376C:  MOVLB  1
376E:  MOVWF  xB5
3770:  MOVLB  0
3772:  CALL   115C
....................    switch(config&0x03){ 
3776:  MOVF   1A,W
3778:  ANDLW  03
377A:  ADDLW  FC
377C:  BC    37BA
377E:  ADDLW  04
3780:  GOTO   37FA
....................       case 0: 
....................          printf(tft_putc,"ABSOLUTO"); 
3784:  MOVLW  CC
3786:  MOVWF  FF6
3788:  MOVLW  03
378A:  MOVWF  FF7
378C:  CALL   1108
....................          break; 
3790:  BRA    37BA
....................       case 1: 
....................          printf(tft_putc,"ABSOLUT"); 
3792:  MOVLW  D6
3794:  MOVWF  FF6
3796:  MOVLW  03
3798:  MOVWF  FF7
379A:  CALL   1108
....................          break; 
379E:  BRA    37BA
....................       case 2: 
....................          printf(tft_putc,"ABSOLU"); 
37A0:  MOVLW  DE
37A2:  MOVWF  FF6
37A4:  MOVLW  03
37A6:  MOVWF  FF7
37A8:  CALL   1108
....................          break; 
37AC:  BRA    37BA
....................       case 3: 
....................          printf(tft_putc,"AÁCOËÞTHÛ]"); 
37AE:  MOVLW  E6
37B0:  MOVWF  FF6
37B2:  MOVLW  03
37B4:  MOVWF  FF7
37B6:  CALL   1108
....................          break; 
....................    } 
....................    printDobleEndl(0); 
37BA:  MOVLB  1
37BC:  CLRF   xB5
37BE:  MOVLB  0
37C0:  CALL   1134
....................    printEspacios(9); 
37C4:  MOVLW  09
37C6:  MOVLB  1
37C8:  MOVWF  xB5
37CA:  MOVLB  0
37CC:  CALL   115C
....................    printVolver(); 
37D0:  CALL   13A6
....................    return; 
37D4:  GOTO   3848 (RETURN)
.................... } 
.................... void printTemperatura(){ 
....................    printInit(); 
*
39F6:  CALL   1128
....................    printConfiguracionLit(); 
39FA:  CALL   11DC
....................    printDobleEndl(1); 
39FE:  MOVLW  01
3A00:  MOVLB  1
3A02:  MOVWF  xB5
3A04:  MOVLB  0
3A06:  CALL   1134
....................    printTemperaturaLit(); 
3A0A:  CALL   3194
....................    printDobleEndl(1); 
3A0E:  MOVLW  01
3A10:  MOVLB  1
3A12:  MOVWF  xB5
3A14:  MOVLB  0
3A16:  CALL   1134
....................    printEspacios(6); 
3A1A:  MOVLW  06
3A1C:  MOVLB  1
3A1E:  MOVWF  xB5
3A20:  MOVLB  0
3A22:  CALL   115C
....................    printf(tft_putc,"°C"); 
3A26:  MOVLW  B0
3A28:  MOVLB  1
3A2A:  MOVWF  xDB
3A2C:  MOVLB  0
3A2E:  CALL   0FA0
3A32:  MOVLW  43
3A34:  MOVLB  1
3A36:  MOVWF  xDB
3A38:  MOVLB  0
3A3A:  CALL   0FA0
....................    printDobleEndl(0); 
3A3E:  MOVLB  1
3A40:  CLRF   xB5
3A42:  MOVLB  0
3A44:  CALL   1134
....................    printEspacios(6); 
3A48:  MOVLW  06
3A4A:  MOVLB  1
3A4C:  MOVWF  xB5
3A4E:  MOVLB  0
3A50:  CALL   115C
....................    printf(tft_putc,"°F"); 
3A54:  MOVLW  B0
3A56:  MOVLB  1
3A58:  MOVWF  xDB
3A5A:  MOVLB  0
3A5C:  CALL   0FA0
3A60:  MOVLW  46
3A62:  MOVLB  1
3A64:  MOVWF  xDB
3A66:  MOVLB  0
3A68:  CALL   0FA0
....................    printDobleEndl(0); 
3A6C:  MOVLB  1
3A6E:  CLRF   xB5
3A70:  MOVLB  0
3A72:  CALL   1134
....................    printEspacios(6); 
3A76:  MOVLW  06
3A78:  MOVLB  1
3A7A:  MOVWF  xB5
3A7C:  MOVLB  0
3A7E:  CALL   115C
....................    printVolver(); 
3A82:  CALL   13A6
....................    return; 
3A86:  GOTO   3AB6 (RETURN)
.................... } 
.................... void printIdioma(){ 
....................    printInit(); 
*
3C2C:  CALL   1128
....................    printConfiguracionLit(); 
3C30:  CALL   11DC
....................    printDobleEndl(1); 
3C34:  MOVLW  01
3C36:  MOVLB  1
3C38:  MOVWF  xB5
3C3A:  MOVLB  0
3C3C:  CALL   1134
....................    printIdiomaLit(); 
3C40:  CALL   3208
....................    printDobleEndl(1); 
3C44:  MOVLW  01
3C46:  MOVLB  1
3C48:  MOVWF  xB5
3C4A:  MOVLB  0
3C4C:  CALL   1134
....................    printEspacios(6); 
3C50:  MOVLW  06
3C52:  MOVLB  1
3C54:  MOVWF  xB5
3C56:  MOVLB  0
3C58:  CALL   115C
....................    printf(tft_putc,"ESPAÑOL"); 
3C5C:  MOVLW  F2
3C5E:  MOVWF  FF6
3C60:  MOVLW  03
3C62:  MOVWF  FF7
3C64:  CALL   1108
....................    printDobleEndl(0); 
3C68:  MOVLB  1
3C6A:  CLRF   xB5
3C6C:  MOVLB  0
3C6E:  CALL   1134
....................    printEspacios(6); 
3C72:  MOVLW  06
3C74:  MOVLB  1
3C76:  MOVWF  xB5
3C78:  MOVLB  0
3C7A:  CALL   115C
....................    printf(tft_putc,"ENGLISH"); 
3C7E:  MOVLW  FA
3C80:  MOVWF  FF6
3C82:  MOVLW  03
3C84:  MOVWF  FF7
3C86:  CALL   1108
....................    printDobleEndl(0); 
3C8A:  MOVLB  1
3C8C:  CLRF   xB5
3C8E:  MOVLB  0
3C90:  CALL   1134
....................    printEspacios(6); 
3C94:  MOVLW  06
3C96:  MOVLB  1
3C98:  MOVWF  xB5
3C9A:  MOVLB  0
3C9C:  CALL   115C
....................    printf(tft_putc,"FRANÇAIS"); 
3CA0:  MOVLW  02
3CA2:  MOVWF  FF6
3CA4:  MOVLW  04
3CA6:  MOVWF  FF7
3CA8:  CALL   1108
....................    printDobleEndl(0); 
3CAC:  MOVLB  1
3CAE:  CLRF   xB5
3CB0:  MOVLB  0
3CB2:  CALL   1134
....................    printEspacios(6); 
3CB6:  MOVLW  06
3CB8:  MOVLB  1
3CBA:  MOVWF  xB5
3CBC:  MOVLB  0
3CBE:  CALL   115C
....................    printf(tft_putc,"PYCCK\\]"); 
3CC2:  MOVLW  0C
3CC4:  MOVWF  FF6
3CC6:  MOVLW  04
3CC8:  MOVWF  FF7
3CCA:  CALL   1108
....................    printDobleEndl(0); 
3CCE:  MOVLB  1
3CD0:  CLRF   xB5
3CD2:  MOVLB  0
3CD4:  CALL   1134
....................    printEspacios(6); 
3CD8:  MOVLW  06
3CDA:  MOVLB  1
3CDC:  MOVWF  xB5
3CDE:  MOVLB  0
3CE0:  CALL   115C
....................    printVolver(); 
3CE4:  CALL   13A6
....................    return; 
3CE8:  RETURN 0
.................... } 
.................... void printSoldando(){ 
....................    disable_interrupts(global); 
*
530A:  BCF    FF2.6
530C:  BCF    FF2.7
530E:  BTFSC  FF2.7
5310:  BRA    530C
....................    fillRect(X_BEGIN,Y_BEGIN-8,_width,16,BG_COLOR); 
5312:  MOVLW  08
5314:  MOVLB  1
5316:  SUBWF  x72,W
5318:  MOVWF  xD0
531A:  CLRF   xE9
531C:  MOVFF  170,1E8
5320:  MOVWF  xEA
5322:  MOVFF  168,1EB
5326:  MOVLW  10
5328:  MOVWF  xEC
532A:  CLRF   xEE
532C:  CLRF   xED
532E:  MOVLB  0
5330:  CALL   0C9E
....................    tft_gotoxy(0,0); 
5334:  MOVLB  1
5336:  CLRF   xDC
5338:  CLRF   xDD
533A:  MOVLB  0
533C:  CALL   0EA2
....................    switch(config&0x03){ 
5340:  MOVF   1A,W
5342:  ANDLW  03
5344:  ADDLW  FC
5346:  BC    5384
5348:  ADDLW  04
534A:  GOTO   5396
....................       case 0: 
....................          printf(tft_putc,"SOLDANDO"); 
534E:  MOVLW  14
5350:  MOVWF  FF6
5352:  MOVLW  04
5354:  MOVWF  FF7
5356:  CALL   1108
....................          break; 
535A:  BRA    5384
....................       case 1: 
....................          printf(tft_putc,"REFLOWING"); 
535C:  MOVLW  1E
535E:  MOVWF  FF6
5360:  MOVLW  04
5362:  MOVWF  FF7
5364:  CALL   1108
....................          break; 
5368:  BRA    5384
....................       case 2: 
....................          printf(tft_putc,"SOLDURE"); 
536A:  MOVLW  28
536C:  MOVWF  FF6
536E:  MOVLW  04
5370:  MOVWF  FF7
5372:  CALL   1108
....................          break; 
5376:  BRA    5384
....................       case 3: 
....................          printf(tft_putc,"ÏA]KA"); 
5378:  MOVLW  30
537A:  MOVWF  FF6
537C:  MOVLW  04
537E:  MOVWF  FF7
5380:  CALL   1108
....................          break; 
....................    } 
....................    printf(tft_putc,"..."); 
5384:  MOVLW  36
5386:  MOVWF  FF6
5388:  MOVLW  04
538A:  MOVWF  FF7
538C:  CALL   1108
....................    enable_interrupts(global); 
5390:  MOVLW  C0
5392:  IORWF  FF2,F
....................    return; 
5394:  RETURN 0
.................... } 
.................... void printCancelar(){ 
....................    disable_interrupts(global); 
*
566C:  BCF    FF2.6
566E:  BCF    FF2.7
5670:  BTFSC  FF2.7
5672:  BRA    566E
....................    fillRect(X_BEGIN,Y_BEGIN-8,_width,16,BG_COLOR); 
5674:  MOVLW  08
5676:  MOVLB  1
5678:  SUBWF  x72,W
567A:  MOVWF  xD0
567C:  CLRF   xE9
567E:  MOVFF  170,1E8
5682:  MOVWF  xEA
5684:  MOVFF  168,1EB
5688:  MOVLW  10
568A:  MOVWF  xEC
568C:  CLRF   xEE
568E:  CLRF   xED
5690:  MOVLB  0
5692:  CALL   0C9E
....................    tft_gotoxy(0,0); 
5696:  MOVLB  1
5698:  CLRF   xDC
569A:  CLRF   xDD
569C:  MOVLB  0
569E:  CALL   0EA2
....................    switch(config&0x03){   
56A2:  MOVF   1A,W
56A4:  ANDLW  03
56A6:  ADDLW  FC
56A8:  BC    56E6
56AA:  ADDLW  04
56AC:  GOTO   56FE
....................       case 0: 
....................          printf(tft_putc,"¿CANCELAR"); 
56B0:  MOVLW  3A
56B2:  MOVWF  FF6
56B4:  MOVLW  04
56B6:  MOVWF  FF7
56B8:  CALL   1108
....................          break; 
56BC:  BRA    56E6
....................       case 1: 
....................          printf(tft_putc,"CANCEL"); 
56BE:  MOVLW  44
56C0:  MOVWF  FF6
56C2:  MOVLW  04
56C4:  MOVWF  FF7
56C6:  CALL   1108
....................          break; 
56CA:  BRA    56E6
....................       case 2: 
....................          printf(tft_putc,"ANNULER"); 
56CC:  MOVLW  4C
56CE:  MOVWF  FF6
56D0:  MOVLW  04
56D2:  MOVWF  FF7
56D4:  CALL   1108
....................          break; 
56D8:  BRA    56E6
....................       case 3: 
....................          printf(tft_putc,"OTMEH\\TÜ"); 
56DA:  MOVLW  54
56DC:  MOVWF  FF6
56DE:  MOVLW  04
56E0:  MOVWF  FF7
56E2:  CALL   1108
....................          break; 
....................    }  
....................    tft_putc("?"); 
56E6:  MOVLW  5E
56E8:  MOVWF  FF6
56EA:  MOVLW  04
56EC:  MOVWF  FF7
56EE:  CALL   1108
....................    enable_interrupts(INT_EXT2_H2L); 
56F2:  BSF    FF0.4
56F4:  BCF    FF1.4
....................    enable_interrupts(global); 
56F6:  MOVLW  C0
56F8:  IORWF  FF2,F
....................    return; 
56FA:  GOTO   5C72 (RETURN)
.................... } 
.................... void printTermiando(){ 
....................    disable_interrupts(global); 
*
6122:  BCF    FF2.6
6124:  BCF    FF2.7
6126:  BTFSC  FF2.7
6128:  BRA    6124
....................    fillRect(X_BEGIN,Y_BEGIN-8,_width,16,BG_COLOR); 
612A:  MOVLW  08
612C:  MOVLB  1
612E:  SUBWF  x72,W
6130:  MOVWF  xB0
6132:  CLRF   xE9
6134:  MOVFF  170,1E8
6138:  MOVWF  xEA
613A:  MOVFF  168,1EB
613E:  MOVLW  10
6140:  MOVWF  xEC
6142:  CLRF   xEE
6144:  CLRF   xED
6146:  MOVLB  0
6148:  CALL   0C9E
....................    tft_gotoxy(0,0); 
614C:  MOVLB  1
614E:  CLRF   xDC
6150:  CLRF   xDD
6152:  MOVLB  0
6154:  CALL   0EA2
....................    switch(config&0x03){ 
6158:  MOVF   1A,W
615A:  ANDLW  03
615C:  ADDLW  FC
615E:  BC    619C
6160:  ADDLW  04
6162:  GOTO   61A4
....................       case 0: 
....................          printf(tft_putc,"TERMINADO"); 
6166:  MOVLW  60
6168:  MOVWF  FF6
616A:  MOVLW  04
616C:  MOVWF  FF7
616E:  CALL   1108
....................          break; 
6172:  BRA    619C
....................       case 1: 
....................          printf(tft_putc,"ENDED"); 
6174:  MOVLW  6A
6176:  MOVWF  FF6
6178:  MOVLW  04
617A:  MOVWF  FF7
617C:  CALL   1108
....................          break; 
6180:  BRA    619C
....................       case 2: 
....................          printf(tft_putc,"FINALISE"); 
6182:  MOVLW  70
6184:  MOVWF  FF6
6186:  MOVLW  04
6188:  MOVWF  FF7
618A:  CALL   1108
....................          break; 
618E:  BRA    619C
....................       case 3: 
....................          printf(tft_putc,"[AKOH×EHHÛ]"); 
6190:  MOVLW  7A
6192:  MOVWF  FF6
6194:  MOVLW  04
6196:  MOVWF  FF7
6198:  CALL   1108
....................          break; 
....................       } 
....................    enable_interrupts(global); 
619C:  MOVLW  C0
619E:  IORWF  FF2,F
....................    return; 
61A0:  GOTO   61DA (RETURN)
.................... } 
.................... void printIniciar(){ 
....................    switch(config&0x03){ 
*
4FA8:  MOVF   1A,W
4FAA:  ANDLW  03
4FAC:  ADDLW  FC
4FAE:  BC    4FEC
4FB0:  ADDLW  04
4FB2:  GOTO   4FFC
....................       case 0: 
....................          printf(tft_putc,"¿INICIAR"); 
4FB6:  MOVLW  86
4FB8:  MOVWF  FF6
4FBA:  MOVLW  04
4FBC:  MOVWF  FF7
4FBE:  CALL   1108
....................          break; 
4FC2:  BRA    4FEC
....................       case 1: 
....................          printf(tft_putc,"START"); 
4FC4:  MOVLW  90
4FC6:  MOVWF  FF6
4FC8:  MOVLW  04
4FCA:  MOVWF  FF7
4FCC:  CALL   1108
....................          break; 
4FD0:  BRA    4FEC
....................       case 2: 
....................          printf(tft_putc,"COMMENCER"); 
4FD2:  MOVLW  96
4FD4:  MOVWF  FF6
4FD6:  MOVLW  04
4FD8:  MOVWF  FF7
4FDA:  CALL   1108
....................          break; 
4FDE:  BRA    4FEC
....................       case 3: 
....................          printf(tft_putc,"HA×\\HATÜ");  
4FE0:  MOVLW  A0
4FE2:  MOVWF  FF6
4FE4:  MOVLW  04
4FE6:  MOVWF  FF7
4FE8:  CALL   1108
....................          break; 
....................    } 
....................    tft_putc("?"); 
4FEC:  MOVLW  AA
4FEE:  MOVWF  FF6
4FF0:  MOVLW  04
4FF2:  MOVWF  FF7
4FF4:  CALL   1108
....................    return; 
4FF8:  GOTO   504E (RETURN)
.................... } 
.................... void printOtroPunto(){ 
....................    printf(tft_putc," >"); 
*
51E8:  MOVLW  20
51EA:  MOVLB  1
51EC:  MOVWF  xDB
51EE:  MOVLB  0
51F0:  CALL   0FA0
51F4:  MOVLW  3E
51F6:  MOVLB  1
51F8:  MOVWF  xDB
51FA:  MOVLB  0
51FC:  CALL   0FA0
....................    switch(config&0x03){ 
5200:  MOVF   1A,W
5202:  ANDLW  03
5204:  ADDLW  FC
5206:  BC    5244
5208:  ADDLW  04
520A:  GOTO   5254
....................       case 0: 
....................          printf(tft_putc,"¿OTRO PUNTO"); 
520E:  MOVLW  AC
5210:  MOVWF  FF6
5212:  MOVLW  04
5214:  MOVWF  FF7
5216:  CALL   1108
....................          break; 
521A:  BRA    5244
....................       case 1: 
....................          printf(tft_putc,"ANOTHER POINT"); 
521C:  MOVLW  B8
521E:  MOVWF  FF6
5220:  MOVLW  04
5222:  MOVWF  FF7
5224:  CALL   1108
....................          break; 
5228:  BRA    5244
....................       case 2: 
....................          printf(tft_putc,"AUTRE POINT"); 
522A:  MOVLW  C6
522C:  MOVWF  FF6
522E:  MOVLW  04
5230:  MOVWF  FF7
5232:  CALL   1108
....................          break; 
5236:  BRA    5244
....................       case 3: 
....................          printf(tft_putc,"ÄPYÃAß TO×KA"); 
5238:  MOVLW  D2
523A:  MOVWF  FF6
523C:  MOVLW  04
523E:  MOVWF  FF7
5240:  CALL   1108
....................          break; 
....................    } 
....................    tft_putc("?"); 
5244:  MOVLW  E0
5246:  MOVWF  FF6
5248:  MOVLW  04
524A:  MOVWF  FF7
524C:  CALL   1108
....................    return; 
5250:  GOTO   5296 (RETURN)
.................... } 
.................... void print_temp(long ovr){ 
*
4002:  MOVFF  173,1C2
4006:  MOVFF  174,1C3
....................    int _x=X,_y=Y; 
....................    tft_gotoxy(X_MAX-4,0); 
400A:  MOVLW  04
400C:  MOVLB  1
400E:  SUBWF  x6F,W
4010:  MOVWF  xC4
4012:  MOVWF  xDC
4014:  CLRF   xDD
4016:  MOVLB  0
4018:  CALL   0EA2
....................    if(ovr==1000){ 
401C:  MOVLB  1
401E:  MOVF   xC0,W
4020:  SUBLW  E8
4022:  BNZ   4044
4024:  MOVF   xC1,W
4026:  SUBLW  03
4028:  BNZ   4044
....................       printf(tft_putc,"MAX"); 
402A:  MOVLW  E2
402C:  MOVWF  FF6
402E:  MOVLW  04
4030:  MOVWF  FF7
4032:  MOVLB  0
4034:  CALL   1108
....................       X=_x; 
4038:  MOVFF  1C2,173
....................       Y=_y; 
403C:  MOVFF  1C3,174
....................       return; 
4040:  BRA    4080
4042:  MOVLB  1
....................    } 
....................    if(ovr==-1){ 
4044:  INCFSZ xC0,W
4046:  BRA    4066
4048:  INCFSZ xC1,W
404A:  BRA    4066
....................       printf(tft_putc,"MIN"); 
404C:  MOVLW  E6
404E:  MOVWF  FF6
4050:  MOVLW  04
4052:  MOVWF  FF7
4054:  MOVLB  0
4056:  CALL   1108
....................       X=_x; 
405A:  MOVFF  1C2,173
....................       Y=_y; 
405E:  MOVFF  1C3,174
....................       return; 
4062:  BRA    4080
4064:  MOVLB  1
....................    } 
....................    printf(tft_putc,"%03Lu",ovr); 
4066:  MOVLW  0A
4068:  MOVWF  FE9
406A:  MOVFF  1C1,1D3
406E:  MOVFF  1C0,1D2
4072:  MOVLB  0
4074:  CALL   26E4
....................    X=_x; 
4078:  MOVFF  1C2,173
....................    Y=_y; 
407C:  MOVFF  1C3,174
....................    return; 
4080:  RETURN 0
.................... } 
.................... void print_tiempo(long tiempo){ 
*
414A:  MOVFF  173,1C0
414E:  MOVFF  174,1C1
....................    int _x=X,_y=Y; 
....................    tft_gotoxy(X_MAX-4,1); 
4152:  MOVLW  04
4154:  MOVLB  1
4156:  SUBWF  x6F,W
4158:  MOVWF  xC4
415A:  MOVWF  xDC
415C:  MOVLW  01
415E:  MOVWF  xDD
4160:  MOVLB  0
4162:  CALL   0EA2
....................    if((config&0x10)==0x10){ 
4166:  MOVF   1A,W
4168:  ANDLW  10
416A:  SUBLW  10
416C:  BNZ   41F2
....................       int min=(tiempo/60)%100,seg=tiempo%60; 
416E:  MOVFF  1BF,1F1
4172:  MOVFF  1BE,1F0
4176:  MOVLB  1
4178:  CLRF   xF3
417A:  MOVLW  3C
417C:  MOVWF  xF2
417E:  MOVLB  0
4180:  CALL   1A90
4184:  MOVFF  02,1C5
4188:  MOVFF  01,1C4
418C:  MOVFF  02,1F1
4190:  MOVFF  01,1F0
4194:  MOVLB  1
4196:  CLRF   xF3
4198:  MOVLW  64
419A:  MOVWF  xF2
419C:  MOVLB  0
419E:  CALL   1A90
41A2:  MOVFF  00,1C2
41A6:  MOVLB  1
41A8:  MOVFF  1BF,1F1
41AC:  MOVFF  1BE,1F0
41B0:  CLRF   xF3
41B2:  MOVLW  3C
41B4:  MOVWF  xF2
41B6:  MOVLB  0
41B8:  CALL   1A90
41BC:  MOVFF  00,1C3
41C0:  MOVLB  1
....................       printf(tft_putc,"%02d:%02d",min,seg); 
41C2:  MOVFF  1C2,1C4
41C6:  MOVLW  01
41C8:  MOVWF  xC5
41CA:  MOVLB  0
41CC:  RCALL  4082
41CE:  MOVLW  3A
41D0:  MOVLB  1
41D2:  MOVWF  xDB
41D4:  MOVLB  0
41D6:  CALL   0FA0
41DA:  MOVFF  1C3,1C4
41DE:  MOVLW  01
41E0:  MOVLB  1
41E2:  MOVWF  xC5
41E4:  MOVLB  0
41E6:  RCALL  4082
....................       X=_x; 
41E8:  MOVFF  1C0,173
....................       Y=_y; 
41EC:  MOVFF  1C1,174
....................       return; 
41F0:  BRA    4240
....................    } 
....................    if(config&0x03==3){ 
41F2:  BTFSS  1A.0
41F4:  BRA    421C
....................       printf(tft_putc,"%04LuC",tiempo); 
41F6:  MOVLW  09
41F8:  MOVWF  FE9
41FA:  MOVFF  1BF,1D3
41FE:  MOVFF  1BE,1D2
4202:  CALL   26E4
4206:  MOVLW  43
4208:  MOVLB  1
420A:  MOVWF  xDB
420C:  MOVLB  0
420E:  CALL   0FA0
....................       X=_x; 
4212:  MOVFF  1C0,173
....................       Y=_y; 
4216:  MOVFF  1C1,174
....................       return; 
421A:  BRA    4240
....................    } 
....................    printf(tft_putc,"%04LuS",tiempo); 
421C:  MOVLW  09
421E:  MOVWF  FE9
4220:  MOVFF  1BF,1D3
4224:  MOVFF  1BE,1D2
4228:  CALL   26E4
422C:  MOVLW  53
422E:  MOVLB  1
4230:  MOVWF  xDB
4232:  MOVLB  0
4234:  CALL   0FA0
....................    X=_x; 
4238:  MOVFF  1C0,173
....................    Y=_y; 
423C:  MOVFF  1C1,174
....................    return; 
4240:  RETURN 0
.................... } 
.................... int guardarPuntos(int nPerfil, int nPuntos, struct Punto *Curva){ 
....................    if((config&8)==8){ 
*
4864:  MOVF   1A,W
4866:  ANDLW  08
4868:  SUBLW  08
486A:  BNZ   492A
....................       for(int i=nPuntos;i>1;i--)Curva[i-1].Tiempo-=Curva[i-2].Tiempo; 
486C:  MOVFF  1C5,1C8
4870:  MOVLB  1
4872:  MOVF   xC8,W
4874:  SUBLW  01
4876:  BC    4928
4878:  MOVLW  01
487A:  SUBWF  xC8,W
487C:  MOVWF  xCB
487E:  CLRF   xEE
4880:  MOVWF  xED
4882:  CLRF   xF0
4884:  MOVLW  03
4886:  MOVWF  xEF
4888:  MOVLB  0
488A:  CALL   0E16
488E:  MOVFF  01,1CA
4892:  MOVLW  01
4894:  MOVLB  1
4896:  ADDWF  01,W
4898:  MOVWF  01
489A:  MOVLW  00
489C:  ADDWFC 02,W
489E:  MOVWF  03
48A0:  MOVF   01,W
48A2:  ADDWF  xC6,W
48A4:  MOVWF  01
48A6:  MOVF   xC7,W
48A8:  ADDWFC 03,F
48AA:  MOVFF  01,1CA
48AE:  MOVFF  03,1CB
48B2:  MOVFF  03,FEA
48B6:  MOVFF  01,FE9
48BA:  MOVFF  FEC,1CD
48BE:  MOVF   FED,F
48C0:  MOVFF  FEF,1CC
48C4:  MOVLW  02
48C6:  SUBWF  xC8,W
48C8:  MOVWF  xCF
48CA:  CLRF   xEE
48CC:  MOVWF  xED
48CE:  CLRF   xF0
48D0:  MOVLW  03
48D2:  MOVWF  xEF
48D4:  MOVLB  0
48D6:  CALL   0E16
48DA:  MOVFF  02,1CF
48DE:  MOVFF  01,1CE
48E2:  MOVLW  01
48E4:  MOVLB  1
48E6:  ADDWF  01,W
48E8:  MOVWF  01
48EA:  MOVLW  00
48EC:  ADDWFC 02,W
48EE:  MOVWF  03
48F0:  MOVF   01,W
48F2:  ADDWF  xC6,W
48F4:  MOVWF  FE9
48F6:  MOVF   xC7,W
48F8:  ADDWFC 03,W
48FA:  MOVWF  FEA
48FC:  MOVFF  FEC,03
4900:  MOVF   FED,F
4902:  MOVF   FEF,W
4904:  SUBWF  xCC,W
4906:  MOVWF  00
4908:  MOVF   03,W
490A:  SUBWFB xCD,W
490C:  MOVWF  03
490E:  MOVFF  00,1CC
4912:  MOVWF  xCD
4914:  MOVFF  1CB,FEA
4918:  MOVFF  1CA,FE9
491C:  MOVWF  FEC
491E:  MOVF   FED,F
4920:  MOVFF  00,FEF
4924:  DECF   xC8,F
4926:  BRA    4872
4928:  MOVLB  0
....................    } 
....................    if(nPerfil!=0){ 
492A:  MOVLB  1
492C:  MOVF   xC4,F
492E:  BTFSC  FD8.2
4930:  BRA    4C54
....................       for(int i=0;i<nPuntos;i++){ 
4932:  CLRF   xC9
4934:  MOVF   xC5,W
4936:  SUBWF  xC9,W
4938:  BTFSC  FD8.0
493A:  BRA    4ABA
....................          write_eeprom(0x33*nPerfil-0x32+3*i,~Curva[i].Temperatura); 
493C:  MOVF   xC4,W
493E:  MULLW  33
4940:  MOVF   FF3,W
4942:  ADDLW  CE
4944:  MOVWF  xCA
4946:  MOVF   xC9,W
4948:  MULLW  03
494A:  MOVF   FF3,W
494C:  ADDWF  xCA,F
494E:  CLRF   xEE
4950:  MOVFF  1C9,1ED
4954:  CLRF   xF0
4956:  MOVLW  03
4958:  MOVWF  xEF
495A:  MOVLB  0
495C:  CALL   0E16
4960:  MOVFF  02,1CC
4964:  MOVFF  01,1CB
4968:  MOVLB  1
496A:  MOVF   xC6,W
496C:  ADDWF  xCB,W
496E:  MOVWF  FE9
4970:  MOVF   xC7,W
4972:  ADDWFC xCC,W
4974:  MOVWF  FEA
4976:  MOVF   FEF,W
4978:  XORLW  FF
497A:  MOVWF  xCD
497C:  MOVF   FF2,W
497E:  MOVWF  00
4980:  BCF    FF2.7
4982:  MOVFF  1CA,FA9
4986:  MOVFF  1CD,FA8
498A:  BCF    FA6.6
498C:  BCF    FA6.7
498E:  BSF    FA6.2
4990:  MOVLB  F
4992:  MOVLW  55
4994:  MOVWF  FA7
4996:  MOVLW  AA
4998:  MOVWF  FA7
499A:  BSF    FA6.1
499C:  BTFSC  FA6.1
499E:  BRA    499C
49A0:  BCF    FA6.2
49A2:  MOVF   00,W
49A4:  IORWF  FF2,F
....................          write_eeprom(0x33*nPerfil-0x31+3*i,~Curva[i].Tiempo>>8); 
49A6:  MOVLB  1
49A8:  MOVF   xC4,W
49AA:  MULLW  33
49AC:  MOVF   FF3,W
49AE:  ADDLW  CF
49B0:  MOVWF  xCA
49B2:  MOVF   xC9,W
49B4:  MULLW  03
49B6:  MOVF   FF3,W
49B8:  ADDWF  xCA,F
49BA:  CLRF   xEE
49BC:  MOVFF  1C9,1ED
49C0:  CLRF   xF0
49C2:  MOVLW  03
49C4:  MOVWF  xEF
49C6:  MOVLB  0
49C8:  CALL   0E16
49CC:  MOVFF  02,1CC
49D0:  MOVFF  01,1CB
49D4:  MOVLW  01
49D6:  MOVLB  1
49D8:  ADDWF  xCB,W
49DA:  MOVWF  01
49DC:  MOVLW  00
49DE:  ADDWFC xCC,W
49E0:  MOVWF  03
49E2:  MOVF   01,W
49E4:  ADDWF  xC6,W
49E6:  MOVWF  FE9
49E8:  MOVF   xC7,W
49EA:  ADDWFC 03,W
49EC:  MOVWF  FEA
49EE:  MOVFF  FEC,03
49F2:  MOVF   FED,F
49F4:  MOVF   FEF,W
49F6:  XORLW  FF
49F8:  MOVWF  xCB
49FA:  MOVLW  FF
49FC:  XORWF  03,W
49FE:  MOVWF  xCC
4A00:  MOVFF  1CC,1CB
4A04:  CLRF   xCC
4A06:  MOVF   FF2,W
4A08:  MOVWF  00
4A0A:  BCF    FF2.7
4A0C:  MOVFF  1CA,FA9
4A10:  MOVFF  1CB,FA8
4A14:  BCF    FA6.6
4A16:  BCF    FA6.7
4A18:  BSF    FA6.2
4A1A:  MOVLB  F
4A1C:  MOVLW  55
4A1E:  MOVWF  FA7
4A20:  MOVLW  AA
4A22:  MOVWF  FA7
4A24:  BSF    FA6.1
4A26:  BTFSC  FA6.1
4A28:  BRA    4A26
4A2A:  BCF    FA6.2
4A2C:  MOVF   00,W
4A2E:  IORWF  FF2,F
....................          write_eeprom(0x33*nPerfil-0x30+3*i,~Curva[i].Tiempo); 
4A30:  MOVLB  1
4A32:  MOVF   xC4,W
4A34:  MULLW  33
4A36:  MOVF   FF3,W
4A38:  ADDLW  D0
4A3A:  MOVWF  xCA
4A3C:  MOVF   xC9,W
4A3E:  MULLW  03
4A40:  MOVF   FF3,W
4A42:  ADDWF  xCA,F
4A44:  CLRF   xEE
4A46:  MOVFF  1C9,1ED
4A4A:  CLRF   xF0
4A4C:  MOVLW  03
4A4E:  MOVWF  xEF
4A50:  MOVLB  0
4A52:  CALL   0E16
4A56:  MOVFF  02,1CC
4A5A:  MOVFF  01,1CB
4A5E:  MOVLW  01
4A60:  MOVLB  1
4A62:  ADDWF  xCB,W
4A64:  MOVWF  01
4A66:  MOVLW  00
4A68:  ADDWFC xCC,W
4A6A:  MOVWF  03
4A6C:  MOVF   01,W
4A6E:  ADDWF  xC6,W
4A70:  MOVWF  FE9
4A72:  MOVF   xC7,W
4A74:  ADDWFC 03,W
4A76:  MOVWF  FEA
4A78:  MOVFF  FEC,03
4A7C:  MOVF   FED,F
4A7E:  MOVF   FEF,W
4A80:  XORLW  FF
4A82:  MOVWF  xCB
4A84:  MOVLW  FF
4A86:  XORWF  03,W
4A88:  MOVWF  xCC
4A8A:  MOVF   FF2,W
4A8C:  MOVWF  00
4A8E:  BCF    FF2.7
4A90:  MOVFF  1CA,FA9
4A94:  MOVFF  1CB,FA8
4A98:  BCF    FA6.6
4A9A:  BCF    FA6.7
4A9C:  BSF    FA6.2
4A9E:  MOVLB  F
4AA0:  MOVLW  55
4AA2:  MOVWF  FA7
4AA4:  MOVLW  AA
4AA6:  MOVWF  FA7
4AA8:  BSF    FA6.1
4AAA:  BTFSC  FA6.1
4AAC:  BRA    4AAA
4AAE:  BCF    FA6.2
4AB0:  MOVF   00,W
4AB2:  IORWF  FF2,F
4AB4:  MOVLB  1
4AB6:  INCF   xC9,F
4AB8:  BRA    4934
....................       } 
....................       if(nPuntos<17){//Terminacion de 00 00 00 para que cargar valores sepa donde acaba la curva 
4ABA:  MOVF   xC5,W
4ABC:  SUBLW  10
4ABE:  BTFSS  FD8.0
4AC0:  BRA    4C54
....................          write_eeprom(0x33*nPerfil-0x32+3*(nPuntos+1),~Curva[(nPuntos+1)].Temperatura); 
4AC2:  MOVF   xC4,W
4AC4:  MULLW  33
4AC6:  MOVF   FF3,W
4AC8:  ADDLW  CE
4ACA:  MOVWF  xCA
4ACC:  MOVLW  01
4ACE:  ADDWF  xC5,W
4AD0:  MULLW  03
4AD2:  MOVF   FF3,W
4AD4:  ADDWF  xCA,F
4AD6:  MOVLW  01
4AD8:  ADDWF  xC5,W
4ADA:  MOVWF  xCC
4ADC:  CLRF   xEE
4ADE:  MOVFF  1CC,1ED
4AE2:  CLRF   xF0
4AE4:  MOVLW  03
4AE6:  MOVWF  xEF
4AE8:  MOVLB  0
4AEA:  CALL   0E16
4AEE:  MOVFF  02,1CC
4AF2:  MOVFF  01,1CB
4AF6:  MOVLB  1
4AF8:  MOVF   xC6,W
4AFA:  ADDWF  xCB,W
4AFC:  MOVWF  FE9
4AFE:  MOVF   xC7,W
4B00:  ADDWFC xCC,W
4B02:  MOVWF  FEA
4B04:  MOVF   FEF,W
4B06:  XORLW  FF
4B08:  MOVWF  xCD
4B0A:  MOVF   FF2,W
4B0C:  MOVWF  00
4B0E:  BCF    FF2.7
4B10:  MOVFF  1CA,FA9
4B14:  MOVFF  1CD,FA8
4B18:  BCF    FA6.6
4B1A:  BCF    FA6.7
4B1C:  BSF    FA6.2
4B1E:  MOVLB  F
4B20:  MOVLW  55
4B22:  MOVWF  FA7
4B24:  MOVLW  AA
4B26:  MOVWF  FA7
4B28:  BSF    FA6.1
4B2A:  BTFSC  FA6.1
4B2C:  BRA    4B2A
4B2E:  BCF    FA6.2
4B30:  MOVF   00,W
4B32:  IORWF  FF2,F
....................          write_eeprom(0x33*nPerfil-0x31+3*(nPuntos+1),~Curva[(nPuntos+1)].Tiempo>>8); 
4B34:  MOVLB  1
4B36:  MOVF   xC4,W
4B38:  MULLW  33
4B3A:  MOVF   FF3,W
4B3C:  ADDLW  CF
4B3E:  MOVWF  xCA
4B40:  MOVLW  01
4B42:  ADDWF  xC5,W
4B44:  MULLW  03
4B46:  MOVF   FF3,W
4B48:  ADDWF  xCA,F
4B4A:  MOVLW  01
4B4C:  ADDWF  xC5,W
4B4E:  MOVWF  xCC
4B50:  CLRF   xEE
4B52:  MOVFF  1CC,1ED
4B56:  CLRF   xF0
4B58:  MOVLW  03
4B5A:  MOVWF  xEF
4B5C:  MOVLB  0
4B5E:  CALL   0E16
4B62:  MOVFF  02,1CC
4B66:  MOVFF  01,1CB
4B6A:  MOVLW  01
4B6C:  MOVLB  1
4B6E:  ADDWF  xCB,W
4B70:  MOVWF  01
4B72:  MOVLW  00
4B74:  ADDWFC xCC,W
4B76:  MOVWF  03
4B78:  MOVF   01,W
4B7A:  ADDWF  xC6,W
4B7C:  MOVWF  FE9
4B7E:  MOVF   xC7,W
4B80:  ADDWFC 03,W
4B82:  MOVWF  FEA
4B84:  MOVFF  FEC,03
4B88:  MOVF   FED,F
4B8A:  MOVF   FEF,W
4B8C:  XORLW  FF
4B8E:  MOVWF  xCB
4B90:  MOVLW  FF
4B92:  XORWF  03,W
4B94:  MOVWF  xCC
4B96:  MOVFF  1CC,1CB
4B9A:  CLRF   xCC
4B9C:  MOVF   FF2,W
4B9E:  MOVWF  00
4BA0:  BCF    FF2.7
4BA2:  MOVFF  1CA,FA9
4BA6:  MOVFF  1CB,FA8
4BAA:  BCF    FA6.6
4BAC:  BCF    FA6.7
4BAE:  BSF    FA6.2
4BB0:  MOVLB  F
4BB2:  MOVLW  55
4BB4:  MOVWF  FA7
4BB6:  MOVLW  AA
4BB8:  MOVWF  FA7
4BBA:  BSF    FA6.1
4BBC:  BTFSC  FA6.1
4BBE:  BRA    4BBC
4BC0:  BCF    FA6.2
4BC2:  MOVF   00,W
4BC4:  IORWF  FF2,F
....................          write_eeprom(0x33*nPerfil-0x30+3*(nPuntos+1),~Curva[(nPuntos+1)].Tiempo); 
4BC6:  MOVLB  1
4BC8:  MOVF   xC4,W
4BCA:  MULLW  33
4BCC:  MOVF   FF3,W
4BCE:  ADDLW  D0
4BD0:  MOVWF  xCA
4BD2:  MOVLW  01
4BD4:  ADDWF  xC5,W
4BD6:  MULLW  03
4BD8:  MOVF   FF3,W
4BDA:  ADDWF  xCA,F
4BDC:  MOVLW  01
4BDE:  ADDWF  xC5,W
4BE0:  MOVWF  xCC
4BE2:  CLRF   xEE
4BE4:  MOVFF  1CC,1ED
4BE8:  CLRF   xF0
4BEA:  MOVLW  03
4BEC:  MOVWF  xEF
4BEE:  MOVLB  0
4BF0:  CALL   0E16
4BF4:  MOVFF  02,1CC
4BF8:  MOVFF  01,1CB
4BFC:  MOVLW  01
4BFE:  MOVLB  1
4C00:  ADDWF  xCB,W
4C02:  MOVWF  01
4C04:  MOVLW  00
4C06:  ADDWFC xCC,W
4C08:  MOVWF  03
4C0A:  MOVF   01,W
4C0C:  ADDWF  xC6,W
4C0E:  MOVWF  FE9
4C10:  MOVF   xC7,W
4C12:  ADDWFC 03,W
4C14:  MOVWF  FEA
4C16:  MOVFF  FEC,03
4C1A:  MOVF   FED,F
4C1C:  MOVF   FEF,W
4C1E:  XORLW  FF
4C20:  MOVWF  xCB
4C22:  MOVLW  FF
4C24:  XORWF  03,W
4C26:  MOVWF  xCC
4C28:  MOVF   FF2,W
4C2A:  MOVWF  00
4C2C:  BCF    FF2.7
4C2E:  MOVFF  1CA,FA9
4C32:  MOVFF  1CB,FA8
4C36:  BCF    FA6.6
4C38:  BCF    FA6.7
4C3A:  BSF    FA6.2
4C3C:  MOVLB  F
4C3E:  MOVLW  55
4C40:  MOVWF  FA7
4C42:  MOVLW  AA
4C44:  MOVWF  FA7
4C46:  BSF    FA6.1
4C48:  BTFSC  FA6.1
4C4A:  BRA    4C48
4C4C:  BCF    FA6.2
4C4E:  MOVF   00,W
4C50:  IORWF  FF2,F
4C52:  MOVLB  1
....................       } 
....................    } 
....................    return _Iniciar; 
4C54:  MOVLW  1E
4C56:  MOVWF  01
4C58:  MOVLB  0
4C5A:  RETURN 0
.................... } 
.................... enum{ 
....................    _CargarTemperatura =100, 
....................    _CargarMinutos, 
....................    _CargarSegundos, 
....................    _CargarTiempo, 
....................    _CheckearSiValido 
.................... }; 
.................... int CargarTemperatura(int *temp, int *nPuntos){ 
*
4242:  MOVLB  1
4244:  MOVFF  1B9,FE9
4248:  MOVFF  1BA,FEA
424C:  CLRF   xBE
424E:  MOVFF  FEF,1BD
....................    long ovr=*temp; 
....................    Cursor(X_MAX-5,0); 
4252:  MOVLW  05
4254:  SUBWF  x6F,W
4256:  MOVWF  xC0
4258:  MOVWF  xC1
425A:  CLRF   xC2
425C:  MOVLB  0
425E:  CALL   134E
....................    while(ultimaTecla!=_TICK){ 
4262:  MOVF   1B,W
4264:  SUBLW  0B
4266:  BTFSC  FD8.2
4268:  BRA    43CC
....................       if(ultimaTecla==_X){ 
426A:  MOVF   1B,W
426C:  SUBLW  0A
426E:  BTFSS  FD8.2
4270:  BRA    436C
....................          ultimaTecla=_VISTO; 
4272:  MOVLW  0C
4274:  MOVWF  1B
....................          if(ovr==0){ 
4276:  MOVLB  1
4278:  MOVF   xBD,F
427A:  BNZ   4346
427C:  MOVF   xBE,F
427E:  BNZ   4346
....................             tecl_mode(estatico); 
4280:  CLRF   xC4
4282:  MOVLB  0
4284:  CALL   08A2
....................             if((*nPuntos&0x3F)==1){ 
4288:  MOVFF  1BC,03
428C:  MOVLB  1
428E:  MOVFF  1BB,FE9
4292:  MOVFF  1BC,FEA
4296:  MOVF   FEF,W
4298:  ANDLW  3F
429A:  SUBLW  01
429C:  BNZ   4336
....................                int nPerfil=(config&0xE0)>>5; 
429E:  MOVF   1A,W
42A0:  ANDLW  E0
42A2:  MOVWF  00
42A4:  SWAPF  00,W
42A6:  MOVWF  xBF
42A8:  RRCF   xBF,F
42AA:  MOVLW  07
42AC:  ANDWF  xBF,F
....................                if(nPerfil==0) return _CargarValores; 
42AE:  MOVF   xBF,F
42B0:  BNZ   42B8
42B2:  MOVLW  06
42B4:  MOVWF  01
42B6:  BRA    44B4
....................                if(~read_eeprom(0x33*nPerfil-0x32)==0&&~read_eeprom(0x33*nPerfil-0x31)==0&&~read_eeprom(0x33*nPerfil-0x30)==0) return _Perfil_Crear; 
42B8:  MOVF   xBF,W
42BA:  MULLW  33
42BC:  MOVF   FF3,W
42BE:  ADDLW  CE
42C0:  MOVWF  xC0
42C2:  MOVFF  FF2,1C1
42C6:  BCF    FF2.7
42C8:  MOVFF  1C0,FA9
42CC:  BCF    FA6.6
42CE:  BCF    FA6.7
42D0:  BSF    FA6.0
42D2:  MOVF   FA8,W
42D4:  BTFSC  xC1.7
42D6:  BSF    FF2.7
42D8:  XORLW  FF
42DA:  XORLW  00
42DC:  BNZ   4330
42DE:  MOVF   xBF,W
42E0:  MULLW  33
42E2:  MOVF   FF3,W
42E4:  ADDLW  CF
42E6:  MOVWF  xC0
42E8:  MOVFF  FF2,1C2
42EC:  BCF    FF2.7
42EE:  MOVFF  1C0,FA9
42F2:  BCF    FA6.6
42F4:  BCF    FA6.7
42F6:  BSF    FA6.0
42F8:  MOVF   FA8,W
42FA:  BTFSC  xC2.7
42FC:  BSF    FF2.7
42FE:  XORLW  FF
4300:  XORLW  00
4302:  BNZ   4330
4304:  MOVF   xBF,W
4306:  MULLW  33
4308:  MOVF   FF3,W
430A:  ADDLW  D0
430C:  MOVWF  xC0
430E:  MOVFF  FF2,1C3
4312:  BCF    FF2.7
4314:  MOVFF  1C0,FA9
4318:  BCF    FA6.6
431A:  BCF    FA6.7
431C:  BSF    FA6.0
431E:  MOVF   FA8,W
4320:  BTFSC  xC3.7
4322:  BSF    FF2.7
4324:  XORLW  FF
4326:  XORLW  00
4328:  BNZ   4330
432A:  MOVLW  02
432C:  MOVWF  01
432E:  BRA    44B4
....................                return _Perfil_Editar;   
4330:  MOVLW  04
4332:  MOVWF  01
4334:  BRA    44B4
....................             } 
....................             (*nPuntos)--; 
4336:  MOVFF  1BB,FE9
433A:  MOVFF  1BC,FEA
433E:  DECF   FEF,F
....................             return _OtroPunto;    
4340:  MOVLW  20
4342:  MOVWF  01
4344:  BRA    44B4
....................          } 
....................          ovr/=10; 
4346:  MOVFF  1BE,1F1
434A:  MOVFF  1BD,1F0
434E:  CLRF   xF3
4350:  MOVLW  0A
4352:  MOVWF  xF2
4354:  MOVLB  0
4356:  CALL   1A90
435A:  MOVFF  02,1BE
435E:  MOVFF  01,1BD
....................          print_temp(ovr); 
4362:  MOVFF  1BE,1C1
4366:  MOVFF  1BD,1C0
436A:  RCALL  4002
....................       } 
....................       if(ultimaTecla<10){ 
436C:  MOVF   1B,W
436E:  SUBLW  09
4370:  BNC   43CA
....................          ovr=(ovr*10+ultimaTecla)%1000; 
4372:  MOVFF  1BE,1EE
4376:  MOVFF  1BD,1ED
437A:  MOVLB  1
437C:  CLRF   xF0
437E:  MOVLW  0A
4380:  MOVWF  xEF
4382:  MOVLB  0
4384:  CALL   0E16
4388:  MOVFF  02,1C1
438C:  MOVFF  01,1C0
4390:  MOVF   1B,W
4392:  MOVLB  1
4394:  ADDWF  xC0,F
4396:  MOVLW  00
4398:  ADDWFC xC1,F
439A:  MOVFF  1C1,1F1
439E:  MOVFF  1C0,1F0
43A2:  MOVLW  03
43A4:  MOVWF  xF3
43A6:  MOVLW  E8
43A8:  MOVWF  xF2
43AA:  MOVLB  0
43AC:  CALL   1A90
43B0:  MOVFF  00,1BD
43B4:  MOVLB  1
43B6:  MOVFF  03,1BE
....................          ultimaTecla=_VISTO; 
43BA:  MOVLW  0C
43BC:  MOVWF  1B
....................          print_temp(ovr); 
43BE:  MOVFF  1BE,1C1
43C2:  MOVFF  1BD,1C0
43C6:  MOVLB  0
43C8:  RCALL  4002
....................       } 
43CA:  BRA    4262
....................    } 
....................    ultimaTecla=_VISTO; 
43CC:  MOVLW  0C
43CE:  MOVWF  1B
....................    if((config&4)==4){  
43D0:  MOVF   1A,W
43D2:  ANDLW  04
43D4:  SUBLW  04
43D6:  BNZ   442E
....................       if(ovr<32) ovr=32; 
43D8:  MOVLB  1
43DA:  MOVF   xBE,F
43DC:  BNZ   43EA
43DE:  MOVF   xBD,W
43E0:  SUBLW  1F
43E2:  BNC   43EA
43E4:  CLRF   xBE
43E6:  MOVLW  20
43E8:  MOVWF  xBD
....................       ovr=((ovr-32)*5)/9; 
43EA:  MOVLW  20
43EC:  SUBWF  xBD,W
43EE:  MOVWF  xC0
43F0:  MOVLW  00
43F2:  SUBWFB xBE,W
43F4:  MOVWF  xC1
43F6:  MOVWF  xEE
43F8:  MOVFF  1C0,1ED
43FC:  CLRF   xF0
43FE:  MOVLW  05
4400:  MOVWF  xEF
4402:  MOVLB  0
4404:  CALL   0E16
4408:  MOVFF  02,1C1
440C:  MOVFF  01,1C0
4410:  MOVFF  02,1F1
4414:  MOVFF  01,1F0
4418:  MOVLB  1
441A:  CLRF   xF3
441C:  MOVLW  09
441E:  MOVWF  xF2
4420:  MOVLB  0
4422:  CALL   1A90
4426:  MOVFF  02,1BE
442A:  MOVFF  01,1BD
....................    } 
....................    if(ovr<=MINTEMP){ 
442E:  MOVLB  1
4430:  MOVF   xBE,F
4432:  BNZ   4450
4434:  MOVF   xBD,W
4436:  SUBLW  20
4438:  BNC   4450
....................       *temp=0; 
443A:  MOVFF  1B9,FE9
443E:  MOVFF  1BA,FEA
4442:  CLRF   FEF
....................       print_temp(-1); 
4444:  SETF   xC1
4446:  SETF   xC0
4448:  MOVLB  0
444A:  RCALL  4002
....................    }else if(ovr>=255+MINTEMP){ 
444C:  BRA    4494
444E:  MOVLB  1
4450:  MOVF   xBE,W
4452:  SUBLW  00
4454:  BC    447A
4456:  XORLW  FF
4458:  BNZ   4460
445A:  MOVF   xBD,W
445C:  SUBLW  1E
445E:  BC    447A
....................       *temp=255; 
4460:  MOVFF  1B9,FE9
4464:  MOVFF  1BA,FEA
4468:  SETF   FEF
....................       print_temp(1000); 
446A:  MOVLW  03
446C:  MOVWF  xC1
446E:  MOVLW  E8
4470:  MOVWF  xC0
4472:  MOVLB  0
4474:  RCALL  4002
....................    }else *temp=ovr-MINTEMP; 
4476:  BRA    4494
4478:  MOVLB  1
447A:  MOVFF  1B9,FE9
447E:  MOVFF  1BA,FEA
4482:  MOVLW  20
4484:  SUBWF  xBD,W
4486:  MOVWF  00
4488:  MOVLW  00
448A:  SUBWFB xBE,W
448C:  MOVWF  03
448E:  MOVFF  00,FEF
4492:  MOVLB  0
....................    if((config&16)>>4) return _CargarMinutos; 
4494:  MOVF   1A,W
4496:  ANDLW  10
4498:  MOVWF  00
449A:  SWAPF  00,F
449C:  MOVLW  0F
449E:  ANDWF  00,F
44A0:  MOVF   00,W
44A2:  BZ    44AE
44A4:  MOVLW  65
44A6:  MOVWF  01
44A8:  MOVLB  1
44AA:  BRA    44B4
44AC:  MOVLB  0
....................    return _CargarTiempo; 
44AE:  MOVLW  67
44B0:  MOVWF  01
44B2:  MOVLB  1
44B4:  MOVLB  0
44B6:  GOTO   4EFC (RETURN)
.................... } 
.................... int CargarMinutos(long *tiempo){  
....................    Cursor(X_MAX-5,1); 
44BA:  MOVLW  05
44BC:  MOVLB  1
44BE:  SUBWF  x6F,W
44C0:  MOVWF  xBB
44C2:  MOVWF  xC1
44C4:  MOVLW  01
44C6:  MOVWF  xC2
44C8:  MOVLB  0
44CA:  CALL   134E
....................    while(ultimaTecla!=_TICK){ 
44CE:  MOVF   1B,W
44D0:  SUBLW  0B
44D2:  BTFSC  FD8.2
44D4:  BRA    460C
....................       if(ultimaTecla==_X){ 
44D6:  MOVF   1B,W
44D8:  SUBLW  0A
44DA:  BNZ   4566
....................          ultimaTecla=_VISTO; 
44DC:  MOVLW  0C
44DE:  MOVWF  1B
....................          if(*tiempo==0) return _CargarTemperatura; 
44E0:  MOVFF  1BA,03
44E4:  MOVLB  1
44E6:  MOVFF  1B9,FE9
44EA:  MOVFF  1BA,FEA
44EE:  MOVFF  FEC,1BC
44F2:  MOVF   FED,F
44F4:  MOVFF  FEF,1BB
44F8:  MOVF   xBB,F
44FA:  BNZ   4506
44FC:  MOVF   xBC,F
44FE:  BNZ   4506
4500:  MOVLW  64
4502:  MOVWF  01
4504:  BRA    4642
....................          *tiempo/=10; 
4506:  MOVFF  1BA,03
450A:  MOVFF  1B9,FE9
450E:  MOVFF  1BA,FEA
4512:  MOVFF  FEC,1F1
4516:  MOVF   FED,F
4518:  MOVFF  FEF,1F0
451C:  CLRF   xF3
451E:  MOVLW  0A
4520:  MOVWF  xF2
4522:  MOVLB  0
4524:  CALL   1A90
4528:  MOVFF  01,FEF
452C:  MOVFF  02,FEC
....................          print_tiempo(*tiempo*60); 
4530:  MOVFF  1BA,03
4534:  MOVLB  1
4536:  MOVFF  1B9,FE9
453A:  MOVFF  1BA,FEA
453E:  MOVFF  FEC,1EE
4542:  MOVF   FED,F
4544:  MOVFF  FEF,1ED
4548:  CLRF   xF0
454A:  MOVLW  3C
454C:  MOVWF  xEF
454E:  MOVLB  0
4550:  CALL   0E16
4554:  MOVFF  02,1BC
4558:  MOVFF  01,1BB
455C:  MOVFF  02,1BF
4560:  MOVFF  01,1BE
4564:  RCALL  414A
....................       } 
....................       if(ultimaTecla<10){ 
4566:  MOVF   1B,W
4568:  SUBLW  09
456A:  BNC   460A
....................          *tiempo=(*tiempo*10+ultimaTecla)%100; 
456C:  MOVLB  1
456E:  MOVFF  1B9,1BB
4572:  MOVFF  1BA,1BC
4576:  MOVFF  1BA,03
457A:  MOVFF  1B9,FE9
457E:  MOVFF  1BA,FEA
4582:  MOVFF  FEC,1EE
4586:  MOVF   FED,F
4588:  MOVFF  FEF,1ED
458C:  CLRF   xF0
458E:  MOVLW  0A
4590:  MOVWF  xEF
4592:  MOVLB  0
4594:  CALL   0E16
4598:  MOVFF  02,1BE
459C:  MOVFF  01,1BD
45A0:  MOVF   1B,W
45A2:  MOVLB  1
45A4:  ADDWF  xBD,F
45A6:  MOVLW  00
45A8:  ADDWFC xBE,F
45AA:  MOVFF  1BE,1F1
45AE:  MOVFF  1BD,1F0
45B2:  CLRF   xF3
45B4:  MOVLW  64
45B6:  MOVWF  xF2
45B8:  MOVLB  0
45BA:  CALL   1A90
45BE:  MOVLB  1
45C0:  MOVFF  1BC,FEA
45C4:  MOVFF  1BB,FE9
45C8:  MOVFF  03,FEC
45CC:  MOVF   FED,F
45CE:  MOVFF  00,FEF
....................          ultimaTecla=_VISTO; 
45D2:  MOVLW  0C
45D4:  MOVWF  1B
....................          print_tiempo(*tiempo*60); 
45D6:  MOVFF  1BA,03
45DA:  MOVFF  1B9,FE9
45DE:  MOVFF  1BA,FEA
45E2:  MOVFF  FEC,1EE
45E6:  MOVF   FED,F
45E8:  MOVFF  FEF,1ED
45EC:  CLRF   xF0
45EE:  MOVLW  3C
45F0:  MOVWF  xEF
45F2:  MOVLB  0
45F4:  CALL   0E16
45F8:  MOVFF  02,1BC
45FC:  MOVFF  01,1BB
4600:  MOVFF  02,1BF
4604:  MOVFF  01,1BE
4608:  RCALL  414A
....................       } 
460A:  BRA    44CE
....................    } 
....................    ultimaTecla=_VISTO; 
460C:  MOVLW  0C
460E:  MOVWF  1B
....................    *tiempo*=60; 
4610:  MOVFF  1BA,03
4614:  MOVLB  1
4616:  MOVFF  1B9,FE9
461A:  MOVFF  1BA,FEA
461E:  MOVFF  FEC,1EE
4622:  MOVF   FED,F
4624:  MOVFF  FEF,1ED
4628:  CLRF   xF0
462A:  MOVLW  3C
462C:  MOVWF  xEF
462E:  MOVLB  0
4630:  CALL   0E16
4634:  MOVFF  01,FEF
4638:  MOVFF  02,FEC
....................    return _CargarSegundos; 
463C:  MOVLW  66
463E:  MOVWF  01
4640:  MOVLB  1
4642:  MOVLB  0
4644:  GOTO   4F12 (RETURN)
.................... } 
.................... int CargarSegundos(long *tiempo){ 
4648:  MOVLB  1
464A:  CLRF   xBB
....................    int seg=0; 
....................    while(ultimaTecla!=_TICK){ 
464C:  MOVF   1B,W
464E:  SUBLW  0B
4650:  BZ    4708
....................       if(ultimaTecla==_X){ 
4652:  MOVF   1B,W
4654:  SUBLW  0A
4656:  BNZ   46A6
....................          ultimaTecla=_VISTO; 
4658:  MOVLW  0C
465A:  MOVWF  1B
....................          if(seg==0) return _CargarMinutos; 
465C:  MOVF   xBB,F
465E:  BNZ   4666
4660:  MOVLW  65
4662:  MOVWF  01
4664:  BRA    472A
....................          seg/=10; 
4666:  MOVFF  1BB,1DE
466A:  MOVLW  0A
466C:  MOVWF  xDF
466E:  MOVLB  0
4670:  CALL   0A92
4674:  MOVFF  01,1BB
....................          print_tiempo((*tiempo)+seg); 
4678:  MOVFF  1BA,03
467C:  MOVLB  1
467E:  MOVFF  1B9,FE9
4682:  MOVFF  1BA,FEA
4686:  MOVFF  FEC,1BD
468A:  MOVF   FED,F
468C:  MOVFF  FEF,1BC
4690:  MOVF   xBB,W
4692:  ADDWF  xBC,F
4694:  MOVLW  00
4696:  ADDWFC xBD,F
4698:  MOVFF  1BD,1BF
469C:  MOVFF  1BC,1BE
46A0:  MOVLB  0
46A2:  RCALL  414A
46A4:  MOVLB  1
....................       } 
....................       if(ultimaTecla<10){ 
46A6:  MOVF   1B,W
46A8:  SUBLW  09
46AA:  BNC   4706
....................          seg=((seg%10)*10+ultimaTecla); 
46AC:  MOVFF  1BB,1DE
46B0:  MOVLW  0A
46B2:  MOVWF  xDF
46B4:  MOVLB  0
46B6:  CALL   0A92
46BA:  MOVF   00,W
46BC:  MULLW  0A
46BE:  MOVF   FF3,W
46C0:  ADDWF  1B,W
46C2:  MOVLB  1
46C4:  MOVWF  xBB
....................          ultimaTecla=_VISTO; 
46C6:  MOVLW  0C
46C8:  MOVWF  1B
....................          print_tiempo((*tiempo+(seg%60))); 
46CA:  MOVFF  1BA,03
46CE:  MOVFF  1B9,FE9
46D2:  MOVFF  1BA,FEA
46D6:  MOVFF  FEC,1BD
46DA:  MOVF   FED,F
46DC:  MOVFF  FEF,1BC
46E0:  MOVFF  1BB,1DE
46E4:  MOVLW  3C
46E6:  MOVWF  xDF
46E8:  MOVLB  0
46EA:  CALL   0A92
46EE:  MOVF   00,W
46F0:  MOVLB  1
46F2:  ADDWF  xBC,F
46F4:  MOVLW  00
46F6:  ADDWFC xBD,F
46F8:  MOVFF  1BD,1BF
46FC:  MOVFF  1BC,1BE
4700:  MOVLB  0
4702:  RCALL  414A
4704:  MOVLB  1
....................       } 
4706:  BRA    464C
....................    } 
....................    ultimaTecla=_VISTO; 
4708:  MOVLW  0C
470A:  MOVWF  1B
....................    *tiempo+=seg; 
470C:  MOVFF  1B9,FE9
4710:  MOVFF  1BA,FEA
4714:  MOVF   xBB,W
4716:  ADDWF  FEF,W
4718:  MOVWF  01
471A:  MOVLW  00
471C:  ADDWFC FEC,W
471E:  MOVF   FED,F
4720:  MOVFF  01,FEF
4724:  MOVWF  FEC
....................    return _CheckearSiValido; 
4726:  MOVLW  68
4728:  MOVWF  01
472A:  MOVLB  0
472C:  GOTO   4F28 (RETURN)
.................... } 
.................... int CargarTiempo(long *tiempo){ 
....................    Cursor(X_MAX-5,1); 
4730:  MOVLW  05
4732:  MOVLB  1
4734:  SUBWF  x6F,W
4736:  MOVWF  xBB
4738:  MOVWF  xC1
473A:  MOVLW  01
473C:  MOVWF  xC2
473E:  MOVLB  0
4740:  CALL   134E
....................    while(ultimaTecla!=_TICK){ 
4744:  MOVF   1B,W
4746:  SUBLW  0B
4748:  BTFSC  FD8.2
474A:  BRA    4854
....................       if(ultimaTecla==_X){ 
474C:  MOVF   1B,W
474E:  SUBLW  0A
4750:  BNZ   47C2
....................          ultimaTecla=_VISTO; 
4752:  MOVLW  0C
4754:  MOVWF  1B
....................          if(*tiempo==0) return _CargarTemperatura; 
4756:  MOVFF  1BA,03
475A:  MOVLB  1
475C:  MOVFF  1B9,FE9
4760:  MOVFF  1BA,FEA
4764:  MOVFF  FEC,1BC
4768:  MOVF   FED,F
476A:  MOVFF  FEF,1BB
476E:  MOVF   xBB,F
4770:  BNZ   477C
4772:  MOVF   xBC,F
4774:  BNZ   477C
4776:  MOVLW  64
4778:  MOVWF  01
477A:  BRA    485E
....................          *tiempo/=10; 
477C:  MOVFF  1BA,03
4780:  MOVFF  1B9,FE9
4784:  MOVFF  1BA,FEA
4788:  MOVFF  FEC,1F1
478C:  MOVF   FED,F
478E:  MOVFF  FEF,1F0
4792:  CLRF   xF3
4794:  MOVLW  0A
4796:  MOVWF  xF2
4798:  MOVLB  0
479A:  CALL   1A90
479E:  MOVFF  01,FEF
47A2:  MOVFF  02,FEC
....................          print_tiempo(*tiempo); 
47A6:  MOVFF  1BA,03
47AA:  MOVLB  1
47AC:  MOVFF  1B9,FE9
47B0:  MOVFF  1BA,FEA
47B4:  MOVFF  FEC,1BF
47B8:  MOVF   FED,F
47BA:  MOVFF  FEF,1BE
47BE:  MOVLB  0
47C0:  RCALL  414A
....................       } 
....................       if(ultimaTecla<10){ 
47C2:  MOVF   1B,W
47C4:  SUBLW  09
47C6:  BNC   4852
....................          *tiempo=((*tiempo%1000)*10+ultimaTecla); 
47C8:  MOVLB  1
47CA:  MOVFF  1B9,1BB
47CE:  MOVFF  1BA,1BC
47D2:  MOVFF  1BA,03
47D6:  MOVFF  1B9,FE9
47DA:  MOVFF  1BA,FEA
47DE:  MOVFF  FEC,1F1
47E2:  MOVF   FED,F
47E4:  MOVFF  FEF,1F0
47E8:  MOVLW  03
47EA:  MOVWF  xF3
47EC:  MOVLW  E8
47EE:  MOVWF  xF2
47F0:  MOVLB  0
47F2:  CALL   1A90
47F6:  MOVFF  00,1BD
47FA:  MOVLB  1
47FC:  MOVFF  03,1BE
4800:  MOVFF  03,1EE
4804:  MOVFF  00,1ED
4808:  CLRF   xF0
480A:  MOVLW  0A
480C:  MOVWF  xEF
480E:  MOVLB  0
4810:  CALL   0E16
4814:  MOVFF  01,1BD
4818:  MOVF   1B,W
481A:  MOVLB  1
481C:  ADDWF  01,W
481E:  MOVWF  01
4820:  MOVLW  00
4822:  ADDWFC 02,W
4824:  MOVFF  1BC,FEA
4828:  MOVFF  1BB,FE9
482C:  MOVWF  FEC
482E:  MOVF   FED,F
4830:  MOVFF  01,FEF
....................          ultimaTecla=_VISTO; 
4834:  MOVLW  0C
4836:  MOVWF  1B
....................          print_tiempo(*tiempo); 
4838:  MOVFF  1BA,03
483C:  MOVFF  1B9,FE9
4840:  MOVFF  1BA,FEA
4844:  MOVFF  FEC,1BF
4848:  MOVF   FED,F
484A:  MOVFF  FEF,1BE
484E:  MOVLB  0
4850:  RCALL  414A
....................       } 
4852:  BRA    4744
....................    } 
....................    ultimaTecla=_VISTO; 
4854:  MOVLW  0C
4856:  MOVWF  1B
....................    return _CheckearSiValido; 
4858:  MOVLW  68
485A:  MOVWF  01
485C:  MOVLB  1
485E:  MOVLB  0
4860:  GOTO   4F3E (RETURN)
.................... } 
.................... int CheckearSiValido(long tiempo, int temp, int nPuntos, struct Punto *Curva){ 
....................    tecl_mode(estatico); 
*
4C5C:  MOVLB  1
4C5E:  CLRF   xC4
4C60:  MOVLB  0
4C62:  CALL   08A2
....................    int nPerfil=(config&0xE0)>>5; 
4C66:  MOVF   1A,W
4C68:  ANDLW  E0
4C6A:  MOVWF  00
4C6C:  SWAPF  00,W
4C6E:  MOVLB  1
4C70:  MOVWF  xC0
4C72:  RRCF   xC0,F
4C74:  MOVLW  07
4C76:  ANDWF  xC0,F
....................    if((tiempo==0)||(((config&8)==8)&&(nPuntos>1)&&(tiempo<Curva[nPuntos-2].Tiempo))) return _PuntoNoValido; 
4C78:  MOVF   xBA,F
4C7A:  BNZ   4C80
4C7C:  MOVF   xBB,F
4C7E:  BZ    4CDE
4C80:  MOVF   1A,W
4C82:  ANDLW  08
4C84:  SUBLW  08
4C86:  BNZ   4CE4
4C88:  MOVF   xBD,W
4C8A:  SUBLW  01
4C8C:  BC    4CE4
4C8E:  MOVLW  02
4C90:  SUBWF  xBD,W
4C92:  MOVWF  xC5
4C94:  CLRF   xEE
4C96:  MOVWF  xED
4C98:  CLRF   xF0
4C9A:  MOVLW  03
4C9C:  MOVWF  xEF
4C9E:  MOVLB  0
4CA0:  CALL   0E16
4CA4:  MOVFF  02,1C5
4CA8:  MOVFF  01,1C4
4CAC:  MOVLW  01
4CAE:  MOVLB  1
4CB0:  ADDWF  01,W
4CB2:  MOVWF  01
4CB4:  MOVLW  00
4CB6:  ADDWFC 02,W
4CB8:  MOVWF  03
4CBA:  MOVF   01,W
4CBC:  ADDWF  xBE,W
4CBE:  MOVWF  FE9
4CC0:  MOVF   xBF,W
4CC2:  ADDWFC 03,W
4CC4:  MOVWF  FEA
4CC6:  MOVFF  FEC,03
4CCA:  MOVF   FED,F
4CCC:  MOVFF  FEF,01
4CD0:  MOVF   xBB,W
4CD2:  SUBWF  03,W
4CD4:  BNC   4CE4
4CD6:  BNZ   4CDE
4CD8:  MOVF   01,W
4CDA:  SUBWF  xBA,W
4CDC:  BC    4CE4
4CDE:  MOVLW  1F
4CE0:  MOVWF  01
4CE2:  BRA    4DA2
....................    Curva[nPuntos-1].Temperatura=temp; 
4CE4:  MOVLW  01
4CE6:  SUBWF  xBD,W
4CE8:  MOVWF  xC5
4CEA:  CLRF   xEE
4CEC:  MOVWF  xED
4CEE:  CLRF   xF0
4CF0:  MOVLW  03
4CF2:  MOVWF  xEF
4CF4:  MOVLB  0
4CF6:  CALL   0E16
4CFA:  MOVLB  1
4CFC:  MOVF   xBE,W
4CFE:  ADDWF  01,W
4D00:  MOVWF  FE9
4D02:  MOVF   xBF,W
4D04:  ADDWFC 02,W
4D06:  MOVWF  FEA
4D08:  MOVFF  1BC,FEF
....................    Curva[nPuntos-1].Tiempo=tiempo; 
4D0C:  MOVLW  01
4D0E:  SUBWF  xBD,W
4D10:  MOVWF  xC5
4D12:  CLRF   xEE
4D14:  MOVWF  xED
4D16:  CLRF   xF0
4D18:  MOVLW  03
4D1A:  MOVWF  xEF
4D1C:  MOVLB  0
4D1E:  CALL   0E16
4D22:  MOVFF  01,1C4
4D26:  MOVLW  01
4D28:  MOVLB  1
4D2A:  ADDWF  01,W
4D2C:  MOVWF  01
4D2E:  MOVLW  00
4D30:  ADDWFC 02,W
4D32:  MOVWF  03
4D34:  MOVF   01,W
4D36:  ADDWF  xBE,W
4D38:  MOVWF  FE9
4D3A:  MOVF   xBF,W
4D3C:  ADDWFC 03,W
4D3E:  MOVWF  FEA
4D40:  MOVFF  1BB,FEC
4D44:  MOVF   FED,F
4D46:  MOVFF  1BA,FEF
....................    if(nPuntos==17) return guardarPuntos(nPerfil,nPuntos,Curva); 
4D4A:  MOVF   xBD,W
4D4C:  SUBLW  11
4D4E:  BNZ   4D6A
4D50:  MOVFF  1C0,1C4
4D54:  MOVFF  1BD,1C5
4D58:  MOVFF  1BF,1C7
4D5C:  MOVFF  1BE,1C6
4D60:  MOVLB  0
4D62:  RCALL  4864
4D64:  MOVF   01,W
4D66:  MOVLB  1
4D68:  BRA    4DA2
....................    struct Punto buff; 
....................    buff = Graf(nPuntos, Curva, 1); 
4D6A:  MOVFF  1BD,1C4
4D6E:  MOVFF  1BF,1C6
4D72:  MOVFF  1BE,1C5
4D76:  MOVLW  01
4D78:  MOVWF  xC7
4D7A:  MOVLB  0
4D7C:  CALL   1CAA
4D80:  MOVFF  03,1C3
4D84:  MOVFF  02,1C2
4D88:  MOVFF  01,1C1
....................    GrafData(buff); 
4D8C:  MOVFF  1C3,1C6
4D90:  MOVFF  1C2,1C5
4D94:  MOVFF  1C1,1C4
4D98:  CALL   27AA
....................    return _OtroPunto; 
4D9C:  MOVLW  20
4D9E:  MOVWF  01
4DA0:  MOVLB  1
4DA2:  MOVLB  0
4DA4:  GOTO   4F6C (RETURN)
.................... } 
.................... #INT_TIMER1 
.................... void isr_timer1(){ 
....................    Setpoint+=dt; 
*
0762:  BCF    FD8.1
0764:  MOVFF  23,20A
0768:  MOVFF  22,209
076C:  MOVFF  21,208
0770:  MOVFF  20,207
0774:  MOVFF  1F,20E
0778:  MOVFF  1E,20D
077C:  MOVFF  1D,20C
0780:  MOVFF  1C,20B
0784:  RCALL  04EA
0786:  MOVFF  03,23
078A:  MOVFF  02,22
078E:  MOVFF  01,21
0792:  MOVFF  00,20
....................    cont++; 
0796:  MOVLW  01
0798:  ADDWF  24,F
079A:  BTFSC  FD8.0
079C:  INCF   25,F
079E:  BTFSC  FD8.2
07A0:  INCF   26,F
07A2:  BTFSC  FD8.2
07A4:  INCF   27,F
....................    return; 
07A6:  BCF    F9E.0
07A8:  GOTO   0078
.................... } 
.................... void timer1_init(){ 
....................    setup_timer_1(T1_DIV_BY_4|T1_INTERNAL);   //-> Diferencial de tiempo, Granularidad con la que se actualiiza el setpoint. 7.62Hz 
*
53B8:  MOVLW  A5
53BA:  MOVWF  FCD
....................    enable_interrupts(global);             
53BC:  MOVLW  C0
53BE:  IORWF  FF2,F
....................    enable_interrupts(INT_TIMER1); 
53C0:  BSF    F9D.0
....................    return; 
53C2:  GOTO   572A (RETURN)
.................... } 
.................... void adc_init(){ 
....................    setup_adc(ADC_CLOCK_INTERNAL|ADC_CLOCK_DIV_8); // FOSC/8 -> FOSCmax = 10MHz 
53C6:  MOVF   FC0,W
53C8:  ANDLW  C0
53CA:  IORLW  07
53CC:  MOVWF  FC0
53CE:  BSF    FC0.7
53D0:  BSF    FC2.0
....................    setup_adc_ports(port_adc, VSS_VDD); 
53D2:  MOVF   FC1,W
53D4:  ANDLW  C0
53D6:  IORLW  0E
53D8:  MOVWF  FC1
....................    return; 
53DA:  GOTO   573C (RETURN)
.................... } 
.................... float MedirTemp(){ 
53DE:  BSF    FC2.1
53E0:  BTFSC  FC2.1
53E2:  BRA    53E0
53E4:  MOVFF  FC4,1ED
53E8:  MOVFF  FC3,1EC
53EC:  MOVLB  0
53EE:  CALL   1750
53F2:  MOVFF  03,1D3
53F6:  MOVFF  02,1D2
53FA:  MOVFF  01,1D1
53FE:  MOVFF  00,1D0
5402:  MOVFF  1D3,1EF
5406:  MOVFF  1D2,1EE
540A:  MOVFF  1D1,1ED
540E:  MOVFF  1D0,1EC
5412:  MOVLW  F3
5414:  MOVLB  1
5416:  MOVWF  xF3
5418:  MOVLW  95
541A:  MOVWF  xF2
541C:  MOVLW  1C
541E:  MOVWF  xF1
5420:  MOVLW  7D
5422:  MOVWF  xF0
5424:  MOVLB  0
5426:  CALL   18E4
542A:  MOVFF  03,1E1
542E:  MOVFF  02,1E0
5432:  MOVFF  01,1DF
5436:  MOVFF  00,1DE
543A:  BCF    FD8.1
543C:  CLRF   19
543E:  BTFSC  FF2.7
5440:  BSF    19.7
5442:  BCF    FF2.7
5444:  MOVFF  03,20A
5448:  MOVFF  02,209
544C:  MOVFF  01,208
5450:  MOVFF  00,207
5454:  MOVLB  2
5456:  CLRF   x0E
5458:  CLRF   x0D
545A:  CLRF   x0C
545C:  CLRF   x0B
545E:  MOVLB  0
5460:  CALL   04EA
5464:  BTFSC  19.7
5466:  BSF    FF2.7
5468:  MOVFF  03,1D7
546C:  MOVFF  02,1D6
5470:  MOVFF  01,1D5
5474:  MOVFF  00,1D4
....................    float x=read_adc(); 
....................    float temp = (float)x*ESCALADO+OFFSET; 
....................    delay_ms(1); 
5478:  MOVLW  01
547A:  MOVLB  1
547C:  MOVWF  xDE
547E:  MOVLB  0
5480:  CALL   08DC
....................    int EnteroContacto; 
....................    int DecimalesContacto; 
....................    float TempContacto; 
....................    OFF(CS2); 
5484:  BCF    F92.4
5486:  BCF    F89.4
....................    EnteroContacto=spi_xfer(ST7789, 0); 
5488:  MOVLB  2
548A:  CLRF   x03
548C:  MOVLB  0
548E:  CALL   0928
5492:  MOVF   01,W
5494:  MOVFF  00,1D8
....................    DecimalesContacto=spi_xfer(ST7789, 0); 
5498:  MOVLB  2
549A:  CLRF   x03
549C:  MOVLB  0
549E:  CALL   0928
54A2:  MOVF   01,W
54A4:  MOVFF  00,1D9
....................    ON(CS2); 
54A8:  BCF    F92.4
54AA:  BSF    F89.4
....................    TempContacto = (float)((long)EnteroContacto<<5|DecimalesContacto>>3)/16; 
54AC:  MOVLB  1
54AE:  CLRF   xDF
54B0:  MOVFF  1D8,1DE
54B4:  RLCF   xDE,F
54B6:  RLCF   xDF,F
54B8:  RLCF   xDE,F
54BA:  RLCF   xDF,F
54BC:  RLCF   xDE,F
54BE:  RLCF   xDF,F
54C0:  RLCF   xDE,F
54C2:  RLCF   xDF,F
54C4:  RLCF   xDE,F
54C6:  RLCF   xDF,F
54C8:  MOVLW  E0
54CA:  ANDWF  xDE,F
54CC:  RRCF   xD9,W
54CE:  MOVWF  00
54D0:  RRCF   00,F
54D2:  RRCF   00,F
54D4:  MOVLW  1F
54D6:  ANDWF  00,F
54D8:  MOVF   00,W
54DA:  IORWF  xDE,W
54DC:  MOVWF  00
54DE:  MOVFF  1DF,03
54E2:  MOVWF  xEC
54E4:  MOVFF  1DF,1ED
54E8:  MOVLB  0
54EA:  CALL   1750
54EE:  MOVFF  03,1E1
54F2:  MOVFF  02,1E0
54F6:  MOVFF  01,1DF
54FA:  MOVFF  00,1DE
54FE:  MOVFF  03,1ED
5502:  MOVFF  02,1EC
5506:  MOVFF  01,1EB
550A:  MOVFF  00,1EA
550E:  MOVLB  1
5510:  CLRF   xF1
5512:  CLRF   xF0
5514:  CLRF   xEF
5516:  MOVLW  83
5518:  MOVWF  xEE
551A:  MOVLB  0
551C:  CALL   1786
5520:  MOVFF  03,1DD
5524:  MOVFF  02,1DC
5528:  MOVFF  01,1DB
552C:  MOVFF  00,1DA
....................    if(temp>TempContacto)temp-=TempContacto; 
5530:  MOVFF  1DD,1EB
5534:  MOVFF  1DC,1EA
5538:  MOVFF  1DB,1E9
553C:  MOVFF  1DA,1E8
5540:  MOVFF  1D7,1EF
5544:  MOVFF  1D6,1EE
5548:  MOVFF  1D5,1ED
554C:  MOVFF  1D4,1EC
5550:  CALL   19DA
5554:  BNC   5598
5556:  BSF    FD8.1
5558:  CLRF   19
555A:  BTFSC  FF2.7
555C:  BSF    19.7
555E:  BCF    FF2.7
5560:  MOVFF  1D7,20A
5564:  MOVFF  1D6,209
5568:  MOVFF  1D5,208
556C:  MOVFF  1D4,207
5570:  MOVFF  1DD,20E
5574:  MOVFF  1DC,20D
5578:  MOVFF  1DB,20C
557C:  MOVFF  1DA,20B
5580:  CALL   04EA
5584:  BTFSC  19.7
5586:  BSF    FF2.7
5588:  MOVFF  03,1D7
558C:  MOVFF  02,1D6
5590:  MOVFF  01,1D5
5594:  MOVFF  00,1D4
....................    if(temp<MINTEMP)temp=MINTEMP; 
5598:  MOVFF  1D7,1EB
559C:  MOVFF  1D6,1EA
55A0:  MOVFF  1D5,1E9
55A4:  MOVFF  1D4,1E8
55A8:  MOVLB  1
55AA:  CLRF   xEF
55AC:  CLRF   xEE
55AE:  CLRF   xED
55B0:  MOVLW  84
55B2:  MOVWF  xEC
55B4:  MOVLB  0
55B6:  CALL   19DA
55BA:  BNC   55CA
55BC:  MOVLB  1
55BE:  CLRF   xD7
55C0:  CLRF   xD6
55C2:  CLRF   xD5
55C4:  MOVLW  84
55C6:  MOVWF  xD4
55C8:  MOVLB  0
....................    return (temp>(255+MINTEMP))? 255:temp-MINTEMP; 
55CA:  MOVLB  1
55CC:  CLRF   xEB
55CE:  MOVLW  80
55D0:  MOVWF  xEA
55D2:  MOVLW  0F
55D4:  MOVWF  xE9
55D6:  MOVLW  87
55D8:  MOVWF  xE8
55DA:  MOVFF  1D7,1EF
55DE:  MOVFF  1D6,1EE
55E2:  MOVFF  1D5,1ED
55E6:  MOVFF  1D4,1EC
55EA:  MOVLB  0
55EC:  CALL   19DA
55F0:  BNC   5600
55F2:  MOVLW  86
55F4:  MOVWF  00
55F6:  MOVLW  7F
55F8:  MOVWF  01
55FA:  CLRF   02
55FC:  CLRF   03
55FE:  BRA    5630
5600:  BSF    FD8.1
5602:  CLRF   19
5604:  BTFSC  FF2.7
5606:  BSF    19.7
5608:  BCF    FF2.7
560A:  MOVFF  1D7,20A
560E:  MOVFF  1D6,209
5612:  MOVFF  1D5,208
5616:  MOVFF  1D4,207
561A:  MOVLB  2
561C:  CLRF   x0E
561E:  CLRF   x0D
5620:  CLRF   x0C
5622:  MOVLW  84
5624:  MOVWF  x0B
5626:  MOVLB  0
5628:  CALL   04EA
562C:  BTFSC  19.7
562E:  BSF    FF2.7
5630:  RETURN 0
.................... } 
.................... void curva_init(struct punto *Curva){ 
....................    for(int i=0;i<17;i++){ 
*
0E38:  MOVLB  1
0E3A:  CLRF   xB2
0E3C:  MOVF   xB2,W
0E3E:  SUBLW  10
0E40:  BNC   0E9A
....................       Curva[i].Temperatura=0; 
0E42:  CLRF   xEE
0E44:  MOVFF  1B2,1ED
0E48:  CLRF   xF0
0E4A:  MOVLW  03
0E4C:  MOVWF  xEF
0E4E:  MOVLB  0
0E50:  RCALL  0E16
0E52:  MOVLB  1
0E54:  MOVF   xB0,W
0E56:  ADDWF  01,W
0E58:  MOVWF  FE9
0E5A:  MOVF   xB1,W
0E5C:  ADDWFC 02,W
0E5E:  MOVWF  FEA
0E60:  CLRF   FEF
....................       Curva[i].Tiempo=0; 
0E62:  CLRF   xEE
0E64:  MOVFF  1B2,1ED
0E68:  CLRF   xF0
0E6A:  MOVLW  03
0E6C:  MOVWF  xEF
0E6E:  MOVLB  0
0E70:  RCALL  0E16
0E72:  MOVFF  01,1B3
0E76:  MOVLW  01
0E78:  MOVLB  1
0E7A:  ADDWF  01,W
0E7C:  MOVWF  01
0E7E:  MOVLW  00
0E80:  ADDWFC 02,W
0E82:  MOVWF  03
0E84:  MOVF   01,W
0E86:  ADDWF  xB0,W
0E88:  MOVWF  FE9
0E8A:  MOVF   xB1,W
0E8C:  ADDWFC 03,W
0E8E:  MOVWF  FEA
0E90:  CLRF   FEC
0E92:  MOVF   FED,F
0E94:  CLRF   FEF
0E96:  INCF   xB2,F
0E98:  BRA    0E3C
....................    } 
....................    ultimaTecla=_VISTO; 
0E9A:  MOVLW  0C
0E9C:  MOVWF  1B
0E9E:  MOVLB  0
0EA0:  RETURN 0
.................... } 
.................... #endif 
....................  
.................... //Funciones de estado 
.................... int SeleccionDePerfil(){ 
....................    Cursor(2,3); 
*
1372:  MOVLW  02
1374:  MOVLB  1
1376:  MOVWF  xC1
1378:  MOVLW  03
137A:  MOVWF  xC2
137C:  MOVLB  0
137E:  RCALL  134E
....................    while(1){ 
....................       if(ultimaTecla==_X){ 
1380:  MOVF   1B,W
1382:  SUBLW  0A
1384:  BNZ   1390
....................          ultimaTecla=_VISTO; 
1386:  MOVLW  0C
1388:  MOVWF  1B
....................          return _CargarValores; 
138A:  MOVLW  06
138C:  MOVWF  01
138E:  BRA    13A2
....................       } 
....................       if(ultimaTecla==_TICK){ 
1390:  MOVF   1B,W
1392:  SUBLW  0B
1394:  BNZ   13A0
....................          ultimaTecla=_VISTO; 
1396:  MOVLW  0C
1398:  MOVWF  1B
....................          return _Perfiles; 
139A:  MOVLW  01
139C:  MOVWF  01
139E:  BRA    13A2
....................            
....................       } 
13A0:  BRA    1380
....................    } 
13A2:  GOTO   6464 (RETURN)
.................... } 
.................... int Perfiles(int *nPuntos,struct Punto *Curva){ 
*
2C94:  MOVF   1A,W
2C96:  ANDLW  E0
2C98:  MOVWF  00
2C9A:  SWAPF  00,W
2C9C:  MOVLB  1
2C9E:  MOVWF  xB4
2CA0:  RRCF   xB4,F
2CA2:  MOVLW  07
2CA4:  ANDWF  xB4,F
....................    int nPerfil=(config&0xE0)>>5; 
....................    if(nPerfil==0)nPerfil=1; 
2CA6:  MOVF   xB4,F
2CA8:  BNZ   2CAE
2CAA:  MOVLW  01
2CAC:  MOVWF  xB4
....................    printPerfiles(); 
2CAE:  MOVLB  0
2CB0:  GOTO   1412
....................    Cursor(3*(nPerfil-1)+1,1); 
2CB4:  MOVLW  01
2CB6:  MOVLB  1
2CB8:  SUBWF  xB4,W
2CBA:  MULLW  03
2CBC:  MOVF   FF3,W
2CBE:  ADDLW  01
2CC0:  MOVWF  xB5
2CC2:  MOVWF  xC1
2CC4:  MOVLW  01
2CC6:  MOVWF  xC2
2CC8:  MOVLB  0
2CCA:  CALL   134E
....................    GrafFrame(); 
2CCE:  CALL   156C
....................    printVacio(); 
2CD2:  CALL   15EA
....................    GrafPerfil(nPuntos, Curva, nPerfil); 
2CD6:  MOVFF  1B1,1B6
2CDA:  MOVFF  1B0,1B5
2CDE:  MOVFF  1B3,1B8
2CE2:  MOVFF  1B2,1B7
2CE6:  MOVFF  1B4,1B9
2CEA:  RCALL  2926
....................    while(1){ 
....................       if(ultimaTecla==_X){ 
2CEC:  MOVF   1B,W
2CEE:  SUBLW  0A
2CF0:  BNZ   2D34
....................          ultimaTecla=_VISTO; 
2CF2:  MOVLW  0C
2CF4:  MOVWF  1B
....................          if(nPerfil>5) nPerfil = 1; 
2CF6:  MOVLB  1
2CF8:  MOVF   xB4,W
2CFA:  SUBLW  05
2CFC:  BC    2D04
2CFE:  MOVLW  01
2D00:  MOVWF  xB4
2D02:  BRA    2D06
....................          else nPerfil++; 
2D04:  INCF   xB4,F
....................          Cursor(3*(nPerfil-1)+1,1); 
2D06:  MOVLW  01
2D08:  SUBWF  xB4,W
2D0A:  MULLW  03
2D0C:  MOVF   FF3,W
2D0E:  ADDLW  01
2D10:  MOVWF  xB5
2D12:  MOVWF  xC1
2D14:  MOVLW  01
2D16:  MOVWF  xC2
2D18:  MOVLB  0
2D1A:  CALL   134E
....................          GrafPerfil(nPuntos, Curva, nPerfil); 
2D1E:  MOVFF  1B1,1B6
2D22:  MOVFF  1B0,1B5
2D26:  MOVFF  1B3,1B8
2D2A:  MOVFF  1B2,1B7
2D2E:  MOVFF  1B4,1B9
2D32:  RCALL  2926
....................       } 
....................       if(ultimaTecla==_TICK){ 
2D34:  MOVF   1B,W
2D36:  SUBLW  0B
2D38:  BTFSS  FD8.2
2D3A:  BRA    2F6E
....................          ultimaTecla=_VISTO; 
2D3C:  MOVLW  0C
2D3E:  MOVWF  1B
....................          if(nPerfil>5){ 
2D40:  MOVLB  1
2D42:  MOVF   xB4,W
2D44:  SUBLW  05
2D46:  BC    2D7A
....................             fillRect(_width-9,_height-14,2,5,BG_COLOR); 
2D48:  MOVLW  09
2D4A:  SUBWF  x68,W
2D4C:  MOVWF  xB5
2D4E:  MOVLW  0E
2D50:  SUBWF  x69,W
2D52:  MOVWF  xB6
2D54:  CLRF   xE9
2D56:  MOVFF  1B5,1E8
2D5A:  MOVWF  xEA
2D5C:  MOVLW  02
2D5E:  MOVWF  xEB
2D60:  MOVLW  05
2D62:  MOVWF  xEC
2D64:  CLRF   xEE
2D66:  CLRF   xED
2D68:  MOVLB  0
2D6A:  CALL   0C9E
....................             printMenuPrincipal(); 
2D6E:  CALL   123C
....................             return _SeleccionDePerfil; 
2D72:  MOVLW  00
2D74:  MOVWF  01
2D76:  BRA    2F70
2D78:  MOVLB  1
....................          } 
....................          config=(config&0x1F)|(nPerfil<<5); 
2D7A:  MOVF   1A,W
2D7C:  ANDLW  1F
2D7E:  MOVWF  xB5
2D80:  SWAPF  xB4,W
2D82:  MOVWF  00
2D84:  RLCF   00,F
2D86:  MOVLW  E0
2D88:  ANDWF  00,F
2D8A:  MOVF   00,W
2D8C:  IORWF  xB5,W
2D8E:  MOVWF  1A
....................          tft_gotoxy(0,0); 
2D90:  CLRF   xDC
2D92:  CLRF   xDD
2D94:  MOVLB  0
2D96:  CALL   0EA2
....................          switch(config&0x03){ 
2D9A:  MOVF   1A,W
2D9C:  ANDLW  03
2D9E:  ADDLW  FC
2DA0:  BC    2DDE
2DA2:  ADDLW  04
2DA4:  GOTO   2F74
....................             case 0: 
....................                printf(tft_putc,"PERFIL"); 
2DA8:  MOVLW  AC
2DAA:  MOVWF  FF6
2DAC:  MOVLW  07
2DAE:  MOVWF  FF7
2DB0:  CALL   1108
....................                break; 
2DB4:  BRA    2DDE
....................             case 1: 
....................                printf(tft_putc,"PROFILE"); 
2DB6:  MOVLW  B4
2DB8:  MOVWF  FF6
2DBA:  MOVLW  07
2DBC:  MOVWF  FF7
2DBE:  CALL   1108
....................                break; 
2DC2:  BRA    2DDE
....................             case 2: 
....................                printf(tft_putc,"PROFIL"); 
2DC4:  MOVLW  BC
2DC6:  MOVWF  FF6
2DC8:  MOVLW  07
2DCA:  MOVWF  FF7
2DCC:  CALL   1108
....................                break; 
2DD0:  BRA    2DDE
....................             case 3: 
....................                printf(tft_putc,"ÏPOÔ\\Ë"); 
2DD2:  MOVLW  C4
2DD4:  MOVWF  FF6
2DD6:  MOVLW  07
2DD8:  MOVWF  FF7
2DDA:  CALL   1108
....................                break; 
....................          } 
....................          printf(tft_putc," %d:\n",nPerfil); 
2DDE:  MOVLW  20
2DE0:  MOVLB  1
2DE2:  MOVWF  xDB
2DE4:  MOVLB  0
2DE6:  CALL   0FA0
2DEA:  MOVFF  1B4,1BA
2DEE:  MOVLW  18
2DF0:  MOVLB  1
2DF2:  MOVWF  xBB
2DF4:  MOVLB  0
2DF6:  RCALL  2BCC
2DF8:  MOVLW  3A
2DFA:  MOVLB  1
2DFC:  MOVWF  xDB
2DFE:  MOVLB  0
2E00:  CALL   0FA0
2E04:  MOVLW  0A
2E06:  MOVLB  1
2E08:  MOVWF  xDB
2E0A:  MOVLB  0
2E0C:  CALL   0FA0
....................          if(perfilVacio(nPerfil)){ 
2E10:  MOVFF  1B4,1C2
2E14:  CALL   16D0
2E18:  MOVF   01,F
2E1A:  BZ    2EB8
....................             printf(tft_putc," >"); 
2E1C:  MOVLW  20
2E1E:  MOVLB  1
2E20:  MOVWF  xDB
2E22:  MOVLB  0
2E24:  CALL   0FA0
2E28:  MOVLW  3E
2E2A:  MOVLB  1
2E2C:  MOVWF  xDB
2E2E:  MOVLB  0
2E30:  CALL   0FA0
....................             switch(config&0x03){ 
2E34:  MOVF   1A,W
2E36:  ANDLW  03
2E38:  ADDLW  FC
2E3A:  BC    2E78
2E3C:  ADDLW  04
2E3E:  GOTO   2F96
....................                case 0: 
....................                   printf(tft_putc,"CREAR"); 
2E42:  MOVLW  CC
2E44:  MOVWF  FF6
2E46:  MOVLW  07
2E48:  MOVWF  FF7
2E4A:  CALL   1108
....................                   break; 
2E4E:  BRA    2E78
....................                case 1: 
....................                   printf(tft_putc,"CREATE"); 
2E50:  MOVLW  D2
2E52:  MOVWF  FF6
2E54:  MOVLW  07
2E56:  MOVWF  FF7
2E58:  CALL   1108
....................                   break; 
2E5C:  BRA    2E78
....................                case 2: 
....................                   printf(tft_putc,"CRÉER"); 
2E5E:  MOVLW  DA
2E60:  MOVWF  FF6
2E62:  MOVLW  07
2E64:  MOVWF  FF7
2E66:  CALL   1108
....................                   break; 
2E6A:  BRA    2E78
....................                case 3: 
....................                   printf(tft_putc,"CO[ÄABATÜ"); 
2E6C:  MOVLW  E0
2E6E:  MOVWF  FF6
2E70:  MOVLW  07
2E72:  MOVWF  FF7
2E74:  CALL   1108
....................                   break; 
....................             } 
....................             fillRect(X,Y-8,_width-X,8,BG_COLOR); 
2E78:  MOVLW  08
2E7A:  MOVLB  1
2E7C:  SUBWF  x74,W
2E7E:  MOVWF  xB5
2E80:  MOVF   x73,W
2E82:  SUBWF  x68,W
2E84:  MOVWF  xB6
2E86:  CLRF   xE9
2E88:  MOVFF  173,1E8
2E8C:  MOVFF  1B5,1EA
2E90:  MOVWF  xEB
2E92:  MOVLW  08
2E94:  MOVWF  xEC
2E96:  CLRF   xEE
2E98:  CLRF   xED
2E9A:  MOVLB  0
2E9C:  CALL   0C9E
....................             *nPuntos=1; 
2EA0:  MOVLB  1
2EA2:  MOVFF  1B0,FE9
2EA6:  MOVFF  1B1,FEA
2EAA:  MOVLW  01
2EAC:  MOVWF  FEF
....................             return _Perfil_Crear; 
2EAE:  MOVLW  02
2EB0:  MOVWF  01
2EB2:  MOVLB  0
2EB4:  BRA    2F70
....................          }else{ 
2EB6:  BRA    2F6E
....................             printEspacios(2); 
2EB8:  MOVLW  02
2EBA:  MOVLB  1
2EBC:  MOVWF  xB5
2EBE:  MOVLB  0
2EC0:  CALL   115C
....................             switch(config&0x03){ 
2EC4:  MOVF   1A,W
2EC6:  ANDLW  03
2EC8:  ADDLW  FC
2ECA:  BC    2F08
2ECC:  ADDLW  04
2ECE:  GOTO   2FB8
....................                case 0: 
....................                   printf(tft_putc,"CARGAR"); 
2ED2:  MOVLW  EA
2ED4:  MOVWF  FF6
2ED6:  MOVLW  07
2ED8:  MOVWF  FF7
2EDA:  CALL   1108
....................                   break; 
2EDE:  BRA    2F08
....................                case 1: 
....................                   printf(tft_putc,"LOAD"); 
2EE0:  MOVLW  F2
2EE2:  MOVWF  FF6
2EE4:  MOVLW  07
2EE6:  MOVWF  FF7
2EE8:  CALL   1108
....................                   break; 
2EEC:  BRA    2F08
....................                case 2: 
....................                   printf(tft_putc,"CHARGER"); 
2EEE:  MOVLW  F8
2EF0:  MOVWF  FF6
2EF2:  MOVLW  07
2EF4:  MOVWF  FF7
2EF6:  CALL   1108
....................                   break; 
2EFA:  BRA    2F08
....................                case 3: 
....................                   printf(tft_putc,"HAÃPY[KA"); 
2EFC:  MOVLW  00
2EFE:  MOVWF  FF6
2F00:  MOVLW  08
2F02:  MOVWF  FF7
2F04:  CALL   1108
....................                   break; 
....................             } 
....................             printEspacios(2); 
2F08:  MOVLW  02
2F0A:  MOVLB  1
2F0C:  MOVWF  xB5
2F0E:  MOVLB  0
2F10:  CALL   115C
....................             switch(config&0x03){ 
2F14:  MOVF   1A,W
2F16:  ANDLW  03
2F18:  ADDLW  FC
2F1A:  BC    2F58
2F1C:  ADDLW  04
2F1E:  GOTO   2FDA
....................                case 0: 
....................                   printf(tft_putc,"EDITAR"); 
2F22:  MOVLW  0A
2F24:  MOVWF  FF6
2F26:  MOVLW  08
2F28:  MOVWF  FF7
2F2A:  CALL   1108
....................                   break; 
2F2E:  BRA    2F58
....................                case 1: 
....................                   printf(tft_putc,"EDIT"); 
2F30:  MOVLW  12
2F32:  MOVWF  FF6
2F34:  MOVLW  08
2F36:  MOVWF  FF7
2F38:  CALL   1108
....................                   break; 
2F3C:  BRA    2F58
....................                case 2: 
....................                   printf(tft_putc,"ÉDITER"); 
2F3E:  MOVLW  18
2F40:  MOVWF  FF6
2F42:  MOVLW  08
2F44:  MOVWF  FF7
2F46:  CALL   1108
....................                   break; 
2F4A:  BRA    2F58
....................                case 3: 
....................                   printf(tft_putc,"PEÄAKT\\POBATÜ"); 
2F4C:  MOVLW  20
2F4E:  MOVWF  FF6
2F50:  MOVLW  08
2F52:  MOVWF  FF7
2F54:  CALL   1108
....................                   break; 
....................             } 
....................             printEspacios(2); 
2F58:  MOVLW  02
2F5A:  MOVLB  1
2F5C:  MOVWF  xB5
2F5E:  MOVLB  0
2F60:  CALL   115C
....................             printVolver(); 
2F64:  CALL   13A6
....................             return _Perfil_Cargar; 
2F68:  MOVLW  03
2F6A:  MOVWF  01
2F6C:  BRA    2F70
....................          } 
....................       } 
2F6E:  BRA    2CEC
....................    }  
2F70:  GOTO   6484 (RETURN)
.................... } 
....................    int Perfil_Crear(){ 
....................       while(1){ 
....................          if(ultimaTecla==_X){ 
*
2FFC:  MOVF   1B,W
2FFE:  SUBLW  0A
3000:  BNZ   300C
....................             ultimaTecla=_VISTO; 
3002:  MOVLW  0C
3004:  MOVWF  1B
....................             return _Perfiles; 
3006:  MOVLW  01
3008:  MOVWF  01
300A:  BRA    301E
....................          } 
....................          if(ultimaTecla==_TICK){ 
300C:  MOVF   1B,W
300E:  SUBLW  0B
3010:  BNZ   301C
....................             ultimaTecla=_VISTO; 
3012:  MOVLW  0C
3014:  MOVWF  1B
....................             return _CargarPunto; 
3016:  MOVLW  1D
3018:  MOVWF  01
301A:  BRA    301E
....................          } 
301C:  BRA    2FFC
....................       } 
301E:  GOTO   6490 (RETURN)
....................    } 
....................    int Perfil_Cargar(){ 
....................       Cursor(1,1); 
3022:  MOVLW  01
3024:  MOVLB  1
3026:  MOVWF  xC1
3028:  MOVWF  xC2
302A:  MOVLB  0
302C:  CALL   134E
....................       while(1){ 
....................          if(ultimaTecla==_X){ 
3030:  MOVF   1B,W
3032:  SUBLW  0A
3034:  BNZ   3040
....................             ultimaTecla=_VISTO; 
3036:  MOVLW  0C
3038:  MOVWF  1B
....................             return _Perfil_Editar;   
303A:  MOVLW  04
303C:  MOVWF  01
303E:  BRA    3052
....................          } 
....................          if(ultimaTecla==_TICK){ 
3040:  MOVF   1B,W
3042:  SUBLW  0B
3044:  BNZ   3050
....................             ultimaTecla=_VISTO; 
3046:  MOVLW  0C
3048:  MOVWF  1B
....................             return _Iniciar;   
304A:  MOVLW  1E
304C:  MOVWF  01
304E:  BRA    3052
....................          } 
3050:  BRA    3030
....................       } 
3052:  GOTO   649C (RETURN)
....................    } 
....................    int Perfil_Editar(){ 
....................       Cursor(9,1); 
3056:  MOVLW  09
3058:  MOVLB  1
305A:  MOVWF  xC1
305C:  MOVLW  01
305E:  MOVWF  xC2
3060:  MOVLB  0
3062:  CALL   134E
....................       while(1){ 
....................          if(ultimaTecla==_X){ 
3066:  MOVF   1B,W
3068:  SUBLW  0A
306A:  BNZ   3076
....................             ultimaTecla=_VISTO; 
306C:  MOVLW  0C
306E:  MOVWF  1B
....................             return _Perfil_Volver; 
3070:  MOVLW  05
3072:  MOVWF  01
3074:  BRA    3088
....................               
....................          } 
....................          if(ultimaTecla==_TICK){ 
3076:  MOVF   1B,W
3078:  SUBLW  0B
307A:  BNZ   3086
....................             ultimaTecla=_VISTO; 
307C:  MOVLW  0C
307E:  MOVWF  1B
....................             return _CargarPunto; 
3080:  MOVLW  1D
3082:  MOVWF  01
3084:  BRA    3088
....................          } 
3086:  BRA    3066
....................       } 
3088:  GOTO   64A8 (RETURN)
....................    } 
....................    int Perfil_Volver(){ 
....................       Cursor(17,1); 
308C:  MOVLW  11
308E:  MOVLB  1
3090:  MOVWF  xC1
3092:  MOVLW  01
3094:  MOVWF  xC2
3096:  MOVLB  0
3098:  CALL   134E
....................       while(1){ 
....................          if(ultimaTecla==_X){ 
309C:  MOVF   1B,W
309E:  SUBLW  0A
30A0:  BNZ   30AC
....................             ultimaTecla=_VISTO; 
30A2:  MOVLW  0C
30A4:  MOVWF  1B
....................             return _Perfil_Cargar; 
30A6:  MOVLW  03
30A8:  MOVWF  01
30AA:  BRA    30BE
....................          } 
....................          if(ultimaTecla==_TICK){ 
30AC:  MOVF   1B,W
30AE:  SUBLW  0B
30B0:  BNZ   30BC
....................             ultimaTecla=_VISTO; 
30B2:  MOVLW  0C
30B4:  MOVWF  1B
....................             return _Perfiles; 
30B6:  MOVLW  01
30B8:  MOVWF  01
30BA:  BRA    30BE
....................               
....................          } 
30BC:  BRA    309C
....................       } 
30BE:  GOTO   64B4 (RETURN)
....................    } 
.................... int CargarValores(int *nPuntos){ 
....................    Cursor(2,5); 
30C2:  MOVLW  02
30C4:  MOVLB  1
30C6:  MOVWF  xC1
30C8:  MOVLW  05
30CA:  MOVWF  xC2
30CC:  MOVLB  0
30CE:  CALL   134E
....................    *nPuntos=1; 
30D2:  MOVLB  1
30D4:  MOVFF  1AE,FE9
30D8:  MOVFF  1AF,FEA
30DC:  MOVLW  01
30DE:  MOVWF  FEF
....................    while(1){ 
....................       if(ultimaTecla==_X){ 
30E0:  MOVF   1B,W
30E2:  SUBLW  0A
30E4:  BNZ   30F0
....................          ultimaTecla=_VISTO; 
30E6:  MOVLW  0C
30E8:  MOVWF  1B
....................          return _Configuracion; 
30EA:  MOVLW  07
30EC:  MOVWF  01
30EE:  BRA    311A
....................       } 
....................       if(ultimaTecla==_TICK){ 
30F0:  MOVF   1B,W
30F2:  SUBLW  0B
30F4:  BNZ   3118
....................          ultimaTecla=_VISTO; 
30F6:  MOVLW  0C
30F8:  MOVWF  1B
....................          config=(config&0x1F); 
30FA:  MOVLW  1F
30FC:  ANDWF  1A,F
....................          printf(tft_putc,"\fCARGAR VALORES:"); 
30FE:  MOVLW  2E
3100:  MOVWF  FF6
3102:  MOVLW  08
3104:  MOVWF  FF7
3106:  MOVLB  0
3108:  CALL   1108
....................          GrafFrame(); 
310C:  CALL   156C
....................          return _CargarPunto; 
3110:  MOVLW  1D
3112:  MOVWF  01
3114:  MOVLB  1
3116:  BRA    311A
....................            
....................       } 
3118:  BRA    30E0
....................    }  
311A:  MOVLB  0
311C:  GOTO   64CC (RETURN)
.................... } 
.................... int Configuracion(){ 
....................    Cursor(2,7); 
*
32C6:  MOVLW  02
32C8:  MOVLB  1
32CA:  MOVWF  xC1
32CC:  MOVLW  07
32CE:  MOVWF  xC2
32D0:  MOVLB  0
32D2:  CALL   134E
....................    while(1){ 
....................       if(ultimaTecla==_X){ 
32D6:  MOVF   1B,W
32D8:  SUBLW  0A
32DA:  BNZ   32EE
....................          ultimaTecla=_VISTO; 
32DC:  MOVLW  0C
32DE:  MOVWF  1B
....................          config=(config&0x1F)|(1<<5);  //Ultimo perfil = 001 
32E0:  MOVF   1A,W
32E2:  ANDLW  1F
32E4:  IORLW  20
32E6:  MOVWF  1A
....................          return _SeleccionDePerfil; 
32E8:  MOVLW  00
32EA:  MOVWF  01
32EC:  BRA    3302
....................            
....................       } 
....................       if(ultimaTecla==_TICK){ 
32EE:  MOVF   1B,W
32F0:  SUBLW  0B
32F2:  BNZ   3300
....................          ultimaTecla=_VISTO; 
32F4:  MOVLW  0C
32F6:  MOVWF  1B
....................          printConfiguracion(); 
32F8:  RCALL  327C
....................          return _Config_Tiempo; 
32FA:  MOVLW  08
32FC:  MOVWF  01
32FE:  BRA    3302
....................            
....................       } 
3300:  BRA    32D6
....................    } 
3302:  GOTO   64D8 (RETURN)
.................... } 
....................    int Config_Tiempo(){ 
....................       Cursor(2,3); 
*
343A:  MOVLW  02
343C:  MOVLB  1
343E:  MOVWF  xC1
3440:  MOVLW  03
3442:  MOVWF  xC2
3444:  MOVLB  0
3446:  CALL   134E
....................       while(1){ 
....................          if(ultimaTecla==_X){ 
344A:  MOVF   1B,W
344C:  SUBLW  0A
344E:  BNZ   345A
....................             ultimaTecla=_VISTO; 
3450:  MOVLW  0C
3452:  MOVWF  1B
....................             return _Config_Temp; 
3454:  MOVLW  12
3456:  MOVWF  01
3458:  BRA    346E
....................               
....................          } 
....................          if(ultimaTecla==_TICK){ 
345A:  MOVF   1B,W
345C:  SUBLW  0B
345E:  BNZ   346C
....................             ultimaTecla=_VISTO; 
3460:  MOVLW  0C
3462:  MOVWF  1B
....................             printTiempo(); 
3464:  RCALL  33EE
....................             return _Config_Tiempo_Formato; 
3466:  MOVLW  09
3468:  MOVWF  01
346A:  BRA    346E
....................               
....................          } 
346C:  BRA    344A
....................       } 
346E:  GOTO   64E4 (RETURN)
....................    } 
....................       int Config_Tiempo_Formato(){ 
....................          Cursor(5,5); 
*
3542:  MOVLW  05
3544:  MOVLB  1
3546:  MOVWF  xC1
3548:  MOVWF  xC2
354A:  MOVLB  0
354C:  CALL   134E
....................          while(1){ 
....................             if(ultimaTecla==_X){ 
3550:  MOVF   1B,W
3552:  SUBLW  0A
3554:  BNZ   3560
....................                ultimaTecla=_VISTO; 
3556:  MOVLW  0C
3558:  MOVWF  1B
....................                return _Config_Tiempo_Origen; 
355A:  MOVLW  0D
355C:  MOVWF  01
355E:  BRA    3574
....................                  
....................             } 
....................             if(ultimaTecla==_TICK){ 
3560:  MOVF   1B,W
3562:  SUBLW  0B
3564:  BNZ   3572
....................                ultimaTecla=_VISTO; 
3566:  MOVLW  0C
3568:  MOVWF  1B
....................                printFormato(); 
356A:  BRA    3472
....................                return _Config_Tiempo_Formato_ssss; 
356C:  MOVLW  0B
356E:  MOVWF  01
3570:  BRA    3574
....................                  
....................             } 
3572:  BRA    3550
....................          } 
3574:  GOTO   64F0 (RETURN)
....................       } 
....................          int Config_Tiempo_Formato_ssss(){ 
....................             Cursor(8,7); 
*
3610:  MOVLW  08
3612:  MOVLB  1
3614:  MOVWF  xC1
3616:  MOVLW  07
3618:  MOVWF  xC2
361A:  MOVLB  0
361C:  CALL   134E
....................             while(1){ 
....................                if(ultimaTecla==_X){ 
3620:  MOVF   1B,W
3622:  SUBLW  0A
3624:  BNZ   3630
....................                   ultimaTecla=_VISTO; 
3626:  MOVLW  0C
3628:  MOVWF  1B
....................                   return _Config_Tiempo_Formato_mmss; 
362A:  MOVLW  0A
362C:  MOVWF  01
362E:  BRA    36A4
....................                     
....................                } 
....................                if(ultimaTecla==_TICK){ 
3630:  MOVF   1B,W
3632:  SUBLW  0B
3634:  BNZ   36A2
....................                   ultimaTecla=_VISTO; 
3636:  MOVLW  0C
3638:  MOVWF  1B
....................                   write_eeprom(0x00,~(((~read_eeprom(0x00))&(~16))|0)); 
363A:  MOVFF  FF2,1AE
363E:  BCF    FF2.7
3640:  CLRF   FA9
3642:  BCF    FA6.6
3644:  BCF    FA6.7
3646:  BSF    FA6.0
3648:  MOVF   FA8,W
364A:  MOVLB  1
364C:  BTFSC  xAE.7
364E:  BSF    FF2.7
3650:  XORLW  FF
3652:  ANDLW  EF
3654:  XORLW  FF
3656:  MOVWF  xAF
3658:  MOVF   FF2,W
365A:  MOVWF  00
365C:  BCF    FF2.7
365E:  CLRF   FA9
3660:  MOVFF  1AF,FA8
3664:  BCF    FA6.6
3666:  BCF    FA6.7
3668:  BSF    FA6.2
366A:  MOVLB  F
366C:  MOVLW  55
366E:  MOVWF  FA7
3670:  MOVLW  AA
3672:  MOVWF  FA7
3674:  BSF    FA6.1
3676:  BTFSC  FA6.1
3678:  BRA    3676
367A:  BCF    FA6.2
367C:  MOVF   00,W
367E:  IORWF  FF2,F
....................                   config=~read_eeprom(0x00); 
3680:  MOVFF  FF2,1AE
3684:  BCF    FF2.7
3686:  CLRF   FA9
3688:  BCF    FA6.6
368A:  BCF    FA6.7
368C:  BSF    FA6.0
368E:  MOVF   FA8,W
3690:  MOVLB  1
3692:  BTFSC  xAE.7
3694:  BSF    FF2.7
3696:  XORLW  FF
3698:  MOVWF  1A
....................                   return _Config_Tiempo_Formato_Volver; 
369A:  MOVLW  0C
369C:  MOVWF  01
369E:  MOVLB  0
36A0:  BRA    36A4
....................                     
....................                } 
36A2:  BRA    3620
....................             } 
36A4:  GOTO   6508 (RETURN)
....................          } 
....................          int Config_Tiempo_Formato_mmss(){ 
....................            Cursor(8,9); 
*
3578:  MOVLW  08
357A:  MOVLB  1
357C:  MOVWF  xC1
357E:  MOVLW  09
3580:  MOVWF  xC2
3582:  MOVLB  0
3584:  CALL   134E
....................             while(1){ 
....................                if(ultimaTecla==_X){ 
3588:  MOVF   1B,W
358A:  SUBLW  0A
358C:  BNZ   3596
....................                   ultimaTecla=_VISTO; 
358E:  MOVLW  0C
3590:  MOVWF  1B
....................                   return _Config_Tiempo_Formato_Volver; 
3592:  MOVWF  01
3594:  BRA    360C
....................                     
....................                } 
....................                if(ultimaTecla==_TICK){ 
3596:  MOVF   1B,W
3598:  SUBLW  0B
359A:  BNZ   360A
....................                   ultimaTecla=_VISTO; 
359C:  MOVLW  0C
359E:  MOVWF  1B
....................                   write_eeprom(0x00,~(((~read_eeprom(0x00))&(~16))|16)); 
35A0:  MOVFF  FF2,1AE
35A4:  BCF    FF2.7
35A6:  CLRF   FA9
35A8:  BCF    FA6.6
35AA:  BCF    FA6.7
35AC:  BSF    FA6.0
35AE:  MOVF   FA8,W
35B0:  MOVLB  1
35B2:  BTFSC  xAE.7
35B4:  BSF    FF2.7
35B6:  XORLW  FF
35B8:  ANDLW  EF
35BA:  IORLW  10
35BC:  XORLW  FF
35BE:  MOVWF  xAF
35C0:  MOVF   FF2,W
35C2:  MOVWF  00
35C4:  BCF    FF2.7
35C6:  CLRF   FA9
35C8:  MOVFF  1AF,FA8
35CC:  BCF    FA6.6
35CE:  BCF    FA6.7
35D0:  BSF    FA6.2
35D2:  MOVLB  F
35D4:  MOVLW  55
35D6:  MOVWF  FA7
35D8:  MOVLW  AA
35DA:  MOVWF  FA7
35DC:  BSF    FA6.1
35DE:  BTFSC  FA6.1
35E0:  BRA    35DE
35E2:  BCF    FA6.2
35E4:  MOVF   00,W
35E6:  IORWF  FF2,F
....................                   config=~read_eeprom(0x00); 
35E8:  MOVFF  FF2,1AE
35EC:  BCF    FF2.7
35EE:  CLRF   FA9
35F0:  BCF    FA6.6
35F2:  BCF    FA6.7
35F4:  BSF    FA6.0
35F6:  MOVF   FA8,W
35F8:  MOVLB  1
35FA:  BTFSC  xAE.7
35FC:  BSF    FF2.7
35FE:  XORLW  FF
3600:  MOVWF  1A
....................                   return _Config_Tiempo_Formato_Volver; 
3602:  MOVLW  0C
3604:  MOVWF  01
3606:  MOVLB  0
3608:  BRA    360C
....................                     
....................                } 
360A:  BRA    3588
....................             } 
360C:  GOTO   64FC (RETURN)
....................          } 
....................          int Config_Tiempo_Formato_Volver(){ 
....................             Cursor(8,11); 
*
36A8:  MOVLW  08
36AA:  MOVLB  1
36AC:  MOVWF  xC1
36AE:  MOVLW  0B
36B0:  MOVWF  xC2
36B2:  MOVLB  0
36B4:  CALL   134E
....................             while(1){ 
....................                if(ultimaTecla==_X){ 
36B8:  MOVF   1B,W
36BA:  SUBLW  0A
36BC:  BNZ   36C8
....................                   ultimaTecla=_VISTO; 
36BE:  MOVLW  0C
36C0:  MOVWF  1B
....................                   return _Config_Tiempo_Formato_ssss; 
36C2:  MOVLW  0B
36C4:  MOVWF  01
36C6:  BRA    36DC
....................                     
....................                } 
....................                if(ultimaTecla==_TICK){ 
36C8:  MOVF   1B,W
36CA:  SUBLW  0B
36CC:  BNZ   36DA
....................                   ultimaTecla=_VISTO; 
36CE:  MOVLW  0C
36D0:  MOVWF  1B
....................                   printTiempo(); 
36D2:  RCALL  33EE
....................                   return _Config_Tiempo_Formato; 
36D4:  MOVLW  09
36D6:  MOVWF  01
36D8:  BRA    36DC
....................                     
....................                } 
36DA:  BRA    36B8
....................             } 
36DC:  GOTO   6514 (RETURN)
....................          } 
....................       int Config_Tiempo_Origen(){ 
....................          Cursor(5,7); 
*
381C:  MOVLW  05
381E:  MOVLB  1
3820:  MOVWF  xC1
3822:  MOVLW  07
3824:  MOVWF  xC2
3826:  MOVLB  0
3828:  CALL   134E
....................          while(1){ 
....................             if(ultimaTecla==_X){ 
382C:  MOVF   1B,W
382E:  SUBLW  0A
3830:  BNZ   383C
....................                ultimaTecla=_VISTO; 
3832:  MOVLW  0C
3834:  MOVWF  1B
....................                return _Config_Tiempo_Volver; 
3836:  MOVLW  11
3838:  MOVWF  01
383A:  BRA    3850
....................                  
....................             } 
....................             if(ultimaTecla==_TICK){ 
383C:  MOVF   1B,W
383E:  SUBLW  0B
3840:  BNZ   384E
....................                ultimaTecla=_VISTO; 
3842:  MOVLW  0C
3844:  MOVWF  1B
....................                printOrigen(); 
3846:  BRA    36E0
....................                return _Config_Tiempo_Origen_Relativo; 
3848:  MOVLW  0F
384A:  MOVWF  01
384C:  BRA    3850
....................                  
....................             } 
384E:  BRA    382C
....................          } 
3850:  GOTO   6520 (RETURN)
....................       } 
....................          int Config_Tiempo_Origen_Relativo(){ 
....................             Cursor(8,7); 
*
38EE:  MOVLW  08
38F0:  MOVLB  1
38F2:  MOVWF  xC1
38F4:  MOVLW  07
38F6:  MOVWF  xC2
38F8:  MOVLB  0
38FA:  CALL   134E
....................             while(1){ 
....................                if(ultimaTecla==_X){ 
38FE:  MOVF   1B,W
3900:  SUBLW  0A
3902:  BNZ   390E
....................                   ultimaTecla=_VISTO; 
3904:  MOVLW  0C
3906:  MOVWF  1B
....................                   return _Config_Tiempo_Origen_Absoluto; 
3908:  MOVLW  0E
390A:  MOVWF  01
390C:  BRA    3982
....................                     
....................                } 
....................                if(ultimaTecla==_TICK){ 
390E:  MOVF   1B,W
3910:  SUBLW  0B
3912:  BNZ   3980
....................                   ultimaTecla=_VISTO; 
3914:  MOVLW  0C
3916:  MOVWF  1B
....................                   write_eeprom(0x00,~(((~read_eeprom(0x00))&(~8))|0)); 
3918:  MOVFF  FF2,1AE
391C:  BCF    FF2.7
391E:  CLRF   FA9
3920:  BCF    FA6.6
3922:  BCF    FA6.7
3924:  BSF    FA6.0
3926:  MOVF   FA8,W
3928:  MOVLB  1
392A:  BTFSC  xAE.7
392C:  BSF    FF2.7
392E:  XORLW  FF
3930:  ANDLW  F7
3932:  XORLW  FF
3934:  MOVWF  xAF
3936:  MOVF   FF2,W
3938:  MOVWF  00
393A:  BCF    FF2.7
393C:  CLRF   FA9
393E:  MOVFF  1AF,FA8
3942:  BCF    FA6.6
3944:  BCF    FA6.7
3946:  BSF    FA6.2
3948:  MOVLB  F
394A:  MOVLW  55
394C:  MOVWF  FA7
394E:  MOVLW  AA
3950:  MOVWF  FA7
3952:  BSF    FA6.1
3954:  BTFSC  FA6.1
3956:  BRA    3954
3958:  BCF    FA6.2
395A:  MOVF   00,W
395C:  IORWF  FF2,F
....................                   config=~read_eeprom(0x00); 
395E:  MOVFF  FF2,1AE
3962:  BCF    FF2.7
3964:  CLRF   FA9
3966:  BCF    FA6.6
3968:  BCF    FA6.7
396A:  BSF    FA6.0
396C:  MOVF   FA8,W
396E:  MOVLB  1
3970:  BTFSC  xAE.7
3972:  BSF    FF2.7
3974:  XORLW  FF
3976:  MOVWF  1A
....................                   return _Config_Tiempo_Origen_Volver; 
3978:  MOVLW  10
397A:  MOVWF  01
397C:  MOVLB  0
397E:  BRA    3982
....................                     
....................                } 
3980:  BRA    38FE
....................             } 
3982:  GOTO   6538 (RETURN)
....................          } 
....................          int Config_Tiempo_Origen_Absoluto(){ 
....................             Cursor(8,9); 
*
3854:  MOVLW  08
3856:  MOVLB  1
3858:  MOVWF  xC1
385A:  MOVLW  09
385C:  MOVWF  xC2
385E:  MOVLB  0
3860:  CALL   134E
....................             while(1){ 
....................                if(ultimaTecla==_X){ 
3864:  MOVF   1B,W
3866:  SUBLW  0A
3868:  BNZ   3874
....................                   ultimaTecla=_VISTO; 
386A:  MOVLW  0C
386C:  MOVWF  1B
....................                   return _Config_Tiempo_Origen_Volver; 
386E:  MOVLW  10
3870:  MOVWF  01
3872:  BRA    38EA
....................                     
....................                } 
....................                if(ultimaTecla==_TICK){ 
3874:  MOVF   1B,W
3876:  SUBLW  0B
3878:  BNZ   38E8
....................                   ultimaTecla=_VISTO; 
387A:  MOVLW  0C
387C:  MOVWF  1B
....................                   write_eeprom(0x00,~(((~read_eeprom(0x00))&(~8))|8)); 
387E:  MOVFF  FF2,1AE
3882:  BCF    FF2.7
3884:  CLRF   FA9
3886:  BCF    FA6.6
3888:  BCF    FA6.7
388A:  BSF    FA6.0
388C:  MOVF   FA8,W
388E:  MOVLB  1
3890:  BTFSC  xAE.7
3892:  BSF    FF2.7
3894:  XORLW  FF
3896:  ANDLW  F7
3898:  IORLW  08
389A:  XORLW  FF
389C:  MOVWF  xAF
389E:  MOVF   FF2,W
38A0:  MOVWF  00
38A2:  BCF    FF2.7
38A4:  CLRF   FA9
38A6:  MOVFF  1AF,FA8
38AA:  BCF    FA6.6
38AC:  BCF    FA6.7
38AE:  BSF    FA6.2
38B0:  MOVLB  F
38B2:  MOVLW  55
38B4:  MOVWF  FA7
38B6:  MOVLW  AA
38B8:  MOVWF  FA7
38BA:  BSF    FA6.1
38BC:  BTFSC  FA6.1
38BE:  BRA    38BC
38C0:  BCF    FA6.2
38C2:  MOVF   00,W
38C4:  IORWF  FF2,F
....................                   config=~read_eeprom(0x00); 
38C6:  MOVFF  FF2,1AE
38CA:  BCF    FF2.7
38CC:  CLRF   FA9
38CE:  BCF    FA6.6
38D0:  BCF    FA6.7
38D2:  BSF    FA6.0
38D4:  MOVF   FA8,W
38D6:  MOVLB  1
38D8:  BTFSC  xAE.7
38DA:  BSF    FF2.7
38DC:  XORLW  FF
38DE:  MOVWF  1A
....................                   return _Config_Tiempo_Origen_Volver; 
38E0:  MOVLW  10
38E2:  MOVWF  01
38E4:  MOVLB  0
38E6:  BRA    38EA
....................                     
....................                } 
38E8:  BRA    3864
....................             } 
38EA:  GOTO   652C (RETURN)
....................          } 
....................          int Config_Tiempo_Origen_Volver(){ 
....................             Cursor(8,11); 
*
3986:  MOVLW  08
3988:  MOVLB  1
398A:  MOVWF  xC1
398C:  MOVLW  0B
398E:  MOVWF  xC2
3990:  MOVLB  0
3992:  CALL   134E
....................             while(1){ 
....................                if(ultimaTecla==_X){ 
3996:  MOVF   1B,W
3998:  SUBLW  0A
399A:  BNZ   39A6
....................                   ultimaTecla=_VISTO; 
399C:  MOVLW  0C
399E:  MOVWF  1B
....................                   return _Config_Tiempo_Origen_Relativo; 
39A0:  MOVLW  0F
39A2:  MOVWF  01
39A4:  BRA    39BA
....................                     
....................                } 
....................                if(ultimaTecla==_TICK){ 
39A6:  MOVF   1B,W
39A8:  SUBLW  0B
39AA:  BNZ   39B8
....................                   ultimaTecla=_VISTO; 
39AC:  MOVLW  0C
39AE:  MOVWF  1B
....................                   printTiempo(); 
39B0:  RCALL  33EE
....................                   return _Config_Tiempo_Origen; 
39B2:  MOVLW  0D
39B4:  MOVWF  01
39B6:  BRA    39BA
....................                     
....................                } 
39B8:  BRA    3996
....................             } 
39BA:  GOTO   6544 (RETURN)
....................          } 
....................       int Config_Tiempo_Volver(){ 
....................          Cursor(5,9); 
39BE:  MOVLW  05
39C0:  MOVLB  1
39C2:  MOVWF  xC1
39C4:  MOVLW  09
39C6:  MOVWF  xC2
39C8:  MOVLB  0
39CA:  CALL   134E
....................          while(1){ 
....................             if(ultimaTecla==_X){ 
39CE:  MOVF   1B,W
39D0:  SUBLW  0A
39D2:  BNZ   39DE
....................                ultimaTecla=_VISTO; 
39D4:  MOVLW  0C
39D6:  MOVWF  1B
....................                return _Config_Tiempo_Formato; 
39D8:  MOVLW  09
39DA:  MOVWF  01
39DC:  BRA    39F2
....................                  
....................             } 
....................             if(ultimaTecla==_TICK){ 
39DE:  MOVF   1B,W
39E0:  SUBLW  0B
39E2:  BNZ   39F0
....................                ultimaTecla=_VISTO; 
39E4:  MOVLW  0C
39E6:  MOVWF  1B
....................                printConfiguracion(); 
39E8:  RCALL  327C
....................                return _Config_Tiempo; 
39EA:  MOVLW  08
39EC:  MOVWF  01
39EE:  BRA    39F2
....................                  
....................             } 
39F0:  BRA    39CE
....................          } 
39F2:  GOTO   6550 (RETURN)
....................       } 
....................    int Config_Temp(){ 
....................       Cursor(2,5); 
*
3A8A:  MOVLW  02
3A8C:  MOVLB  1
3A8E:  MOVWF  xC1
3A90:  MOVLW  05
3A92:  MOVWF  xC2
3A94:  MOVLB  0
3A96:  CALL   134E
....................       while(1){ 
....................          if(ultimaTecla==_X){ 
3A9A:  MOVF   1B,W
3A9C:  SUBLW  0A
3A9E:  BNZ   3AAA
....................             ultimaTecla=_VISTO; 
3AA0:  MOVLW  0C
3AA2:  MOVWF  1B
....................             return _Config_Idioma; 
3AA4:  MOVLW  16
3AA6:  MOVWF  01
3AA8:  BRA    3ABE
....................               
....................          } 
....................          if(ultimaTecla==_TICK){ 
3AAA:  MOVF   1B,W
3AAC:  SUBLW  0B
3AAE:  BNZ   3ABC
....................             ultimaTecla=_VISTO; 
3AB0:  MOVLW  0C
3AB2:  MOVWF  1B
....................             printTemperatura(); 
3AB4:  BRA    39F6
....................             return _Config_Temp_C; 
3AB6:  MOVLW  13
3AB8:  MOVWF  01
3ABA:  BRA    3ABE
....................               
....................          } 
3ABC:  BRA    3A9A
....................       } 
3ABE:  GOTO   655C (RETURN)
....................    } 
....................       int Config_Temp_C(){ 
....................          Cursor(5,5); 
3AC2:  MOVLW  05
3AC4:  MOVLB  1
3AC6:  MOVWF  xC1
3AC8:  MOVWF  xC2
3ACA:  MOVLB  0
3ACC:  CALL   134E
....................          while(1){ 
....................             if(ultimaTecla==_X){ 
3AD0:  MOVF   1B,W
3AD2:  SUBLW  0A
3AD4:  BNZ   3AE0
....................                ultimaTecla=_VISTO; 
3AD6:  MOVLW  0C
3AD8:  MOVWF  1B
....................                return _Config_Temp_F; 
3ADA:  MOVLW  14
3ADC:  MOVWF  01
3ADE:  BRA    3B54
....................                  
....................             } 
....................             if(ultimaTecla==_TICK){ 
3AE0:  MOVF   1B,W
3AE2:  SUBLW  0B
3AE4:  BNZ   3B52
....................                ultimaTecla=_VISTO; 
3AE6:  MOVLW  0C
3AE8:  MOVWF  1B
....................                write_eeprom(0x00,~(((~read_eeprom(0x00))&(~4))|0)); 
3AEA:  MOVFF  FF2,1AE
3AEE:  BCF    FF2.7
3AF0:  CLRF   FA9
3AF2:  BCF    FA6.6
3AF4:  BCF    FA6.7
3AF6:  BSF    FA6.0
3AF8:  MOVF   FA8,W
3AFA:  MOVLB  1
3AFC:  BTFSC  xAE.7
3AFE:  BSF    FF2.7
3B00:  XORLW  FF
3B02:  ANDLW  FB
3B04:  XORLW  FF
3B06:  MOVWF  xAF
3B08:  MOVF   FF2,W
3B0A:  MOVWF  00
3B0C:  BCF    FF2.7
3B0E:  CLRF   FA9
3B10:  MOVFF  1AF,FA8
3B14:  BCF    FA6.6
3B16:  BCF    FA6.7
3B18:  BSF    FA6.2
3B1A:  MOVLB  F
3B1C:  MOVLW  55
3B1E:  MOVWF  FA7
3B20:  MOVLW  AA
3B22:  MOVWF  FA7
3B24:  BSF    FA6.1
3B26:  BTFSC  FA6.1
3B28:  BRA    3B26
3B2A:  BCF    FA6.2
3B2C:  MOVF   00,W
3B2E:  IORWF  FF2,F
....................                config=~read_eeprom(0x00); 
3B30:  MOVFF  FF2,1AE
3B34:  BCF    FF2.7
3B36:  CLRF   FA9
3B38:  BCF    FA6.6
3B3A:  BCF    FA6.7
3B3C:  BSF    FA6.0
3B3E:  MOVF   FA8,W
3B40:  MOVLB  1
3B42:  BTFSC  xAE.7
3B44:  BSF    FF2.7
3B46:  XORLW  FF
3B48:  MOVWF  1A
....................                return _Config_Temp_Volver; 
3B4A:  MOVLW  15
3B4C:  MOVWF  01
3B4E:  MOVLB  0
3B50:  BRA    3B54
....................                  
....................             } 
3B52:  BRA    3AD0
....................          } 
3B54:  GOTO   6568 (RETURN)
....................       } 
....................       int Config_Temp_F(){ 
....................          Cursor(5,7); 
3B58:  MOVLW  05
3B5A:  MOVLB  1
3B5C:  MOVWF  xC1
3B5E:  MOVLW  07
3B60:  MOVWF  xC2
3B62:  MOVLB  0
3B64:  CALL   134E
....................          while(1){ 
....................             if(ultimaTecla==_X){ 
3B68:  MOVF   1B,W
3B6A:  SUBLW  0A
3B6C:  BNZ   3B78
....................                ultimaTecla=_VISTO; 
3B6E:  MOVLW  0C
3B70:  MOVWF  1B
....................                return _Config_Temp_Volver; 
3B72:  MOVLW  15
3B74:  MOVWF  01
3B76:  BRA    3BEE
....................             } 
....................             if(ultimaTecla==_TICK){ 
3B78:  MOVF   1B,W
3B7A:  SUBLW  0B
3B7C:  BNZ   3BEC
....................                ultimaTecla=_VISTO; 
3B7E:  MOVLW  0C
3B80:  MOVWF  1B
....................                write_eeprom(0x00,~(((~read_eeprom(0x00))&(~4))|4)); 
3B82:  MOVFF  FF2,1AE
3B86:  BCF    FF2.7
3B88:  CLRF   FA9
3B8A:  BCF    FA6.6
3B8C:  BCF    FA6.7
3B8E:  BSF    FA6.0
3B90:  MOVF   FA8,W
3B92:  MOVLB  1
3B94:  BTFSC  xAE.7
3B96:  BSF    FF2.7
3B98:  XORLW  FF
3B9A:  ANDLW  FB
3B9C:  IORLW  04
3B9E:  XORLW  FF
3BA0:  MOVWF  xAF
3BA2:  MOVF   FF2,W
3BA4:  MOVWF  00
3BA6:  BCF    FF2.7
3BA8:  CLRF   FA9
3BAA:  MOVFF  1AF,FA8
3BAE:  BCF    FA6.6
3BB0:  BCF    FA6.7
3BB2:  BSF    FA6.2
3BB4:  MOVLB  F
3BB6:  MOVLW  55
3BB8:  MOVWF  FA7
3BBA:  MOVLW  AA
3BBC:  MOVWF  FA7
3BBE:  BSF    FA6.1
3BC0:  BTFSC  FA6.1
3BC2:  BRA    3BC0
3BC4:  BCF    FA6.2
3BC6:  MOVF   00,W
3BC8:  IORWF  FF2,F
....................                config=~read_eeprom(0x00); 
3BCA:  MOVFF  FF2,1AE
3BCE:  BCF    FF2.7
3BD0:  CLRF   FA9
3BD2:  BCF    FA6.6
3BD4:  BCF    FA6.7
3BD6:  BSF    FA6.0
3BD8:  MOVF   FA8,W
3BDA:  MOVLB  1
3BDC:  BTFSC  xAE.7
3BDE:  BSF    FF2.7
3BE0:  XORLW  FF
3BE2:  MOVWF  1A
....................                return _Config_Temp_Volver; 
3BE4:  MOVLW  15
3BE6:  MOVWF  01
3BE8:  MOVLB  0
3BEA:  BRA    3BEE
....................             } 
3BEC:  BRA    3B68
....................          } 
3BEE:  GOTO   6574 (RETURN)
....................       } 
....................       int Config_Temp_Volver(){ 
....................          Cursor(5,9); 
3BF2:  MOVLW  05
3BF4:  MOVLB  1
3BF6:  MOVWF  xC1
3BF8:  MOVLW  09
3BFA:  MOVWF  xC2
3BFC:  MOVLB  0
3BFE:  CALL   134E
....................          while(1){ 
....................             if(ultimaTecla==_X){ 
3C02:  MOVF   1B,W
3C04:  SUBLW  0A
3C06:  BNZ   3C12
....................                ultimaTecla=_VISTO; 
3C08:  MOVLW  0C
3C0A:  MOVWF  1B
....................                return _Config_Temp_C; 
3C0C:  MOVLW  13
3C0E:  MOVWF  01
3C10:  BRA    3C28
....................                  
....................             } 
....................             if(ultimaTecla==_TICK){ 
3C12:  MOVF   1B,W
3C14:  SUBLW  0B
3C16:  BNZ   3C26
....................                ultimaTecla=_VISTO; 
3C18:  MOVLW  0C
3C1A:  MOVWF  1B
....................                printConfiguracion(); 
3C1C:  CALL   327C
....................                return _Config_Temp; 
3C20:  MOVLW  12
3C22:  MOVWF  01
3C24:  BRA    3C28
....................                  
....................             } 
3C26:  BRA    3C02
....................          } 
3C28:  GOTO   6580 (RETURN)
....................       } 
....................    int Config_Idioma(){ 
....................       Cursor(2,7); 
*
3CEA:  MOVLW  02
3CEC:  MOVLB  1
3CEE:  MOVWF  xC1
3CF0:  MOVLW  07
3CF2:  MOVWF  xC2
3CF4:  MOVLB  0
3CF6:  CALL   134E
....................       while(1){ 
....................          if(ultimaTecla==_X){ 
3CFA:  MOVF   1B,W
3CFC:  SUBLW  0A
3CFE:  BNZ   3D0A
....................             ultimaTecla=_VISTO; 
3D00:  MOVLW  0C
3D02:  MOVWF  1B
....................             return _Config_Volver; 
3D04:  MOVLW  1C
3D06:  MOVWF  01
3D08:  BRA    3D1E
....................               
....................          } 
....................          if(ultimaTecla==_TICK){ 
3D0A:  MOVF   1B,W
3D0C:  SUBLW  0B
3D0E:  BNZ   3D1C
....................             ultimaTecla=_VISTO; 
3D10:  MOVLW  0C
3D12:  MOVWF  1B
....................             printIdioma(); 
3D14:  RCALL  3C2C
....................             return _Config_Idioma_Es;   
3D16:  MOVLW  17
3D18:  MOVWF  01
3D1A:  BRA    3D1E
....................          } 
3D1C:  BRA    3CFA
....................       } 
3D1E:  GOTO   658C (RETURN)
....................    } 
....................       int Config_Idioma_Es(){ 
....................          Cursor(5,5); 
3D22:  MOVLW  05
3D24:  MOVLB  1
3D26:  MOVWF  xC1
3D28:  MOVWF  xC2
3D2A:  MOVLB  0
3D2C:  CALL   134E
....................          while(1){ 
....................             if(ultimaTecla==_X){ 
3D30:  MOVF   1B,W
3D32:  SUBLW  0A
3D34:  BNZ   3D40
....................                ultimaTecla=_VISTO; 
3D36:  MOVLW  0C
3D38:  MOVWF  1B
....................                return _Config_Idioma_En; 
3D3A:  MOVLW  18
3D3C:  MOVWF  01
3D3E:  BRA    3DB6
....................                  
....................             } 
....................             if(ultimaTecla==_TICK){ 
3D40:  MOVF   1B,W
3D42:  SUBLW  0B
3D44:  BNZ   3DB4
....................                ultimaTecla=_VISTO; 
3D46:  MOVLW  0C
3D48:  MOVWF  1B
....................                write_eeprom(0x00,~(((~read_eeprom(0x00))&(~3))|0)); 
3D4A:  MOVFF  FF2,1AE
3D4E:  BCF    FF2.7
3D50:  CLRF   FA9
3D52:  BCF    FA6.6
3D54:  BCF    FA6.7
3D56:  BSF    FA6.0
3D58:  MOVF   FA8,W
3D5A:  MOVLB  1
3D5C:  BTFSC  xAE.7
3D5E:  BSF    FF2.7
3D60:  XORLW  FF
3D62:  ANDLW  FC
3D64:  XORLW  FF
3D66:  MOVWF  xAF
3D68:  MOVF   FF2,W
3D6A:  MOVWF  00
3D6C:  BCF    FF2.7
3D6E:  CLRF   FA9
3D70:  MOVFF  1AF,FA8
3D74:  BCF    FA6.6
3D76:  BCF    FA6.7
3D78:  BSF    FA6.2
3D7A:  MOVLB  F
3D7C:  MOVLW  55
3D7E:  MOVWF  FA7
3D80:  MOVLW  AA
3D82:  MOVWF  FA7
3D84:  BSF    FA6.1
3D86:  BTFSC  FA6.1
3D88:  BRA    3D86
3D8A:  BCF    FA6.2
3D8C:  MOVF   00,W
3D8E:  IORWF  FF2,F
....................                config=~read_eeprom(0x00); 
3D90:  MOVFF  FF2,1AE
3D94:  BCF    FF2.7
3D96:  CLRF   FA9
3D98:  BCF    FA6.6
3D9A:  BCF    FA6.7
3D9C:  BSF    FA6.0
3D9E:  MOVF   FA8,W
3DA0:  MOVLB  1
3DA2:  BTFSC  xAE.7
3DA4:  BSF    FF2.7
3DA6:  XORLW  FF
3DA8:  MOVWF  1A
....................                printIdioma(); 
3DAA:  MOVLB  0
3DAC:  RCALL  3C2C
....................                return _Config_Idioma_Volver; 
3DAE:  MOVLW  1B
3DB0:  MOVWF  01
3DB2:  BRA    3DB6
....................                  
....................             } 
3DB4:  BRA    3D30
....................          } 
3DB6:  GOTO   6598 (RETURN)
....................       } 
....................       int Config_Idioma_En(){ 
....................          Cursor(5,7); 
3DBA:  MOVLW  05
3DBC:  MOVLB  1
3DBE:  MOVWF  xC1
3DC0:  MOVLW  07
3DC2:  MOVWF  xC2
3DC4:  MOVLB  0
3DC6:  CALL   134E
....................          while(1){ 
....................             if(ultimaTecla==_X){ 
3DCA:  MOVF   1B,W
3DCC:  SUBLW  0A
3DCE:  BNZ   3DDA
....................                ultimaTecla=_VISTO; 
3DD0:  MOVLW  0C
3DD2:  MOVWF  1B
....................                return _Config_Idioma_Fr; 
3DD4:  MOVLW  19
3DD6:  MOVWF  01
3DD8:  BRA    3E52
....................                  
....................             } 
....................             if(ultimaTecla==_TICK){ 
3DDA:  MOVF   1B,W
3DDC:  SUBLW  0B
3DDE:  BNZ   3E50
....................                ultimaTecla=_VISTO; 
3DE0:  MOVLW  0C
3DE2:  MOVWF  1B
....................                write_eeprom(0x00,~(((~read_eeprom(0x00))&(~3))|1)); 
3DE4:  MOVFF  FF2,1AE
3DE8:  BCF    FF2.7
3DEA:  CLRF   FA9
3DEC:  BCF    FA6.6
3DEE:  BCF    FA6.7
3DF0:  BSF    FA6.0
3DF2:  MOVF   FA8,W
3DF4:  MOVLB  1
3DF6:  BTFSC  xAE.7
3DF8:  BSF    FF2.7
3DFA:  XORLW  FF
3DFC:  ANDLW  FC
3DFE:  IORLW  01
3E00:  XORLW  FF
3E02:  MOVWF  xAF
3E04:  MOVF   FF2,W
3E06:  MOVWF  00
3E08:  BCF    FF2.7
3E0A:  CLRF   FA9
3E0C:  MOVFF  1AF,FA8
3E10:  BCF    FA6.6
3E12:  BCF    FA6.7
3E14:  BSF    FA6.2
3E16:  MOVLB  F
3E18:  MOVLW  55
3E1A:  MOVWF  FA7
3E1C:  MOVLW  AA
3E1E:  MOVWF  FA7
3E20:  BSF    FA6.1
3E22:  BTFSC  FA6.1
3E24:  BRA    3E22
3E26:  BCF    FA6.2
3E28:  MOVF   00,W
3E2A:  IORWF  FF2,F
....................                config=~read_eeprom(0x00); 
3E2C:  MOVFF  FF2,1AE
3E30:  BCF    FF2.7
3E32:  CLRF   FA9
3E34:  BCF    FA6.6
3E36:  BCF    FA6.7
3E38:  BSF    FA6.0
3E3A:  MOVF   FA8,W
3E3C:  MOVLB  1
3E3E:  BTFSC  xAE.7
3E40:  BSF    FF2.7
3E42:  XORLW  FF
3E44:  MOVWF  1A
....................                printIdioma(); 
3E46:  MOVLB  0
3E48:  RCALL  3C2C
....................                return _Config_Idioma_Volver; 
3E4A:  MOVLW  1B
3E4C:  MOVWF  01
3E4E:  BRA    3E52
....................                  
....................             } 
3E50:  BRA    3DCA
....................          } 
3E52:  GOTO   65A4 (RETURN)
....................       } 
....................       int Config_Idioma_Fr(){ 
....................          Cursor(5,9); 
3E56:  MOVLW  05
3E58:  MOVLB  1
3E5A:  MOVWF  xC1
3E5C:  MOVLW  09
3E5E:  MOVWF  xC2
3E60:  MOVLB  0
3E62:  CALL   134E
....................          while(1){ 
....................             if(ultimaTecla==_X){ 
3E66:  MOVF   1B,W
3E68:  SUBLW  0A
3E6A:  BNZ   3E76
....................                ultimaTecla=_VISTO; 
3E6C:  MOVLW  0C
3E6E:  MOVWF  1B
....................                return _Config_Idioma_Ru; 
3E70:  MOVLW  1A
3E72:  MOVWF  01
3E74:  BRA    3EEE
....................                  
....................             } 
....................             if(ultimaTecla==_TICK){ 
3E76:  MOVF   1B,W
3E78:  SUBLW  0B
3E7A:  BNZ   3EEC
....................                ultimaTecla=_VISTO; 
3E7C:  MOVLW  0C
3E7E:  MOVWF  1B
....................                write_eeprom(0x00,~(((~read_eeprom(0x00))&(~3))|2)); 
3E80:  MOVFF  FF2,1AE
3E84:  BCF    FF2.7
3E86:  CLRF   FA9
3E88:  BCF    FA6.6
3E8A:  BCF    FA6.7
3E8C:  BSF    FA6.0
3E8E:  MOVF   FA8,W
3E90:  MOVLB  1
3E92:  BTFSC  xAE.7
3E94:  BSF    FF2.7
3E96:  XORLW  FF
3E98:  ANDLW  FC
3E9A:  IORLW  02
3E9C:  XORLW  FF
3E9E:  MOVWF  xAF
3EA0:  MOVF   FF2,W
3EA2:  MOVWF  00
3EA4:  BCF    FF2.7
3EA6:  CLRF   FA9
3EA8:  MOVFF  1AF,FA8
3EAC:  BCF    FA6.6
3EAE:  BCF    FA6.7
3EB0:  BSF    FA6.2
3EB2:  MOVLB  F
3EB4:  MOVLW  55
3EB6:  MOVWF  FA7
3EB8:  MOVLW  AA
3EBA:  MOVWF  FA7
3EBC:  BSF    FA6.1
3EBE:  BTFSC  FA6.1
3EC0:  BRA    3EBE
3EC2:  BCF    FA6.2
3EC4:  MOVF   00,W
3EC6:  IORWF  FF2,F
....................                config=~read_eeprom(0x00); 
3EC8:  MOVFF  FF2,1AE
3ECC:  BCF    FF2.7
3ECE:  CLRF   FA9
3ED0:  BCF    FA6.6
3ED2:  BCF    FA6.7
3ED4:  BSF    FA6.0
3ED6:  MOVF   FA8,W
3ED8:  MOVLB  1
3EDA:  BTFSC  xAE.7
3EDC:  BSF    FF2.7
3EDE:  XORLW  FF
3EE0:  MOVWF  1A
....................                printIdioma(); 
3EE2:  MOVLB  0
3EE4:  RCALL  3C2C
....................                return _Config_Idioma_Volver; 
3EE6:  MOVLW  1B
3EE8:  MOVWF  01
3EEA:  BRA    3EEE
....................                  
....................             } 
3EEC:  BRA    3E66
....................          } 
3EEE:  GOTO   65B0 (RETURN)
....................       } 
....................       int Config_Idioma_Ru(){ 
....................          Cursor(5,11); 
3EF2:  MOVLW  05
3EF4:  MOVLB  1
3EF6:  MOVWF  xC1
3EF8:  MOVLW  0B
3EFA:  MOVWF  xC2
3EFC:  MOVLB  0
3EFE:  CALL   134E
....................          while(1){ 
....................             if(ultimaTecla==_X){ 
3F02:  MOVF   1B,W
3F04:  SUBLW  0A
3F06:  BNZ   3F12
....................                ultimaTecla=_VISTO; 
3F08:  MOVLW  0C
3F0A:  MOVWF  1B
....................                return _Config_Idioma_Volver; 
3F0C:  MOVLW  1B
3F0E:  MOVWF  01
3F10:  BRA    3F8A
....................                  
....................             } 
....................             if(ultimaTecla==_TICK){ 
3F12:  MOVF   1B,W
3F14:  SUBLW  0B
3F16:  BNZ   3F88
....................                ultimaTecla=_VISTO; 
3F18:  MOVLW  0C
3F1A:  MOVWF  1B
....................                write_eeprom(0x00,~(((~read_eeprom(0x00))&(~3))|3)); 
3F1C:  MOVFF  FF2,1AE
3F20:  BCF    FF2.7
3F22:  CLRF   FA9
3F24:  BCF    FA6.6
3F26:  BCF    FA6.7
3F28:  BSF    FA6.0
3F2A:  MOVF   FA8,W
3F2C:  MOVLB  1
3F2E:  BTFSC  xAE.7
3F30:  BSF    FF2.7
3F32:  XORLW  FF
3F34:  ANDLW  FC
3F36:  IORLW  03
3F38:  XORLW  FF
3F3A:  MOVWF  xAF
3F3C:  MOVF   FF2,W
3F3E:  MOVWF  00
3F40:  BCF    FF2.7
3F42:  CLRF   FA9
3F44:  MOVFF  1AF,FA8
3F48:  BCF    FA6.6
3F4A:  BCF    FA6.7
3F4C:  BSF    FA6.2
3F4E:  MOVLB  F
3F50:  MOVLW  55
3F52:  MOVWF  FA7
3F54:  MOVLW  AA
3F56:  MOVWF  FA7
3F58:  BSF    FA6.1
3F5A:  BTFSC  FA6.1
3F5C:  BRA    3F5A
3F5E:  BCF    FA6.2
3F60:  MOVF   00,W
3F62:  IORWF  FF2,F
....................                config=~read_eeprom(0x00); 
3F64:  MOVFF  FF2,1AE
3F68:  BCF    FF2.7
3F6A:  CLRF   FA9
3F6C:  BCF    FA6.6
3F6E:  BCF    FA6.7
3F70:  BSF    FA6.0
3F72:  MOVF   FA8,W
3F74:  MOVLB  1
3F76:  BTFSC  xAE.7
3F78:  BSF    FF2.7
3F7A:  XORLW  FF
3F7C:  MOVWF  1A
....................                printIdioma(); 
3F7E:  MOVLB  0
3F80:  RCALL  3C2C
....................                return _Config_Idioma_Volver; 
3F82:  MOVLW  1B
3F84:  MOVWF  01
3F86:  BRA    3F8A
....................                  
....................             } 
3F88:  BRA    3F02
....................          } 
3F8A:  GOTO   65BC (RETURN)
....................       } 
....................       int Config_Idioma_Volver(){ 
....................          Cursor(5,13); 
3F8E:  MOVLW  05
3F90:  MOVLB  1
3F92:  MOVWF  xC1
3F94:  MOVLW  0D
3F96:  MOVWF  xC2
3F98:  MOVLB  0
3F9A:  CALL   134E
....................          while(1){ 
....................             if(ultimaTecla==_X){ 
3F9E:  MOVF   1B,W
3FA0:  SUBLW  0A
3FA2:  BNZ   3FAE
....................                ultimaTecla=_VISTO; 
3FA4:  MOVLW  0C
3FA6:  MOVWF  1B
....................                return _Config_Idioma_Es; 
3FA8:  MOVLW  17
3FAA:  MOVWF  01
3FAC:  BRA    3FC4
....................                  
....................             } 
....................             if(ultimaTecla==_TICK){ 
3FAE:  MOVF   1B,W
3FB0:  SUBLW  0B
3FB2:  BNZ   3FC2
....................                ultimaTecla=_VISTO; 
3FB4:  MOVLW  0C
3FB6:  MOVWF  1B
....................                printConfiguracion(); 
3FB8:  CALL   327C
....................                return _Config_Idioma; 
3FBC:  MOVLW  16
3FBE:  MOVWF  01
3FC0:  BRA    3FC4
....................                  
....................             } 
3FC2:  BRA    3F9E
....................          } 
3FC4:  GOTO   65C8 (RETURN)
....................       } 
....................    int Config_Volver(){ 
....................       Cursor(2,9); 
3FC8:  MOVLW  02
3FCA:  MOVLB  1
3FCC:  MOVWF  xC1
3FCE:  MOVLW  09
3FD0:  MOVWF  xC2
3FD2:  MOVLB  0
3FD4:  CALL   134E
....................       while(1){ 
....................          if(ultimaTecla==_X){ 
3FD8:  MOVF   1B,W
3FDA:  SUBLW  0A
3FDC:  BNZ   3FE8
....................             ultimaTecla=_VISTO; 
3FDE:  MOVLW  0C
3FE0:  MOVWF  1B
....................             return _Config_Tiempo; 
3FE2:  MOVLW  08
3FE4:  MOVWF  01
3FE6:  BRA    3FFE
....................               
....................          } 
....................          if(ultimaTecla==_TICK){ 
3FE8:  MOVF   1B,W
3FEA:  SUBLW  0B
3FEC:  BNZ   3FFC
....................             ultimaTecla=_VISTO; 
3FEE:  MOVLW  0C
3FF0:  MOVWF  1B
....................             printMenuPrincipal(); 
3FF2:  CALL   123C
....................             return _Configuracion; 
3FF6:  MOVLW  07
3FF8:  MOVWF  01
3FFA:  BRA    3FFE
....................               
....................          } 
3FFC:  BRA    3FD8
....................       } 
3FFE:  GOTO   65D4 (RETURN)
....................    } 
.................... int CargarPunto(int *nPuntos,struct Punto *Curva){ 
*
4DA8:  MOVLB  1
4DAA:  CLRF   xB4
4DAC:  CLRF   xB6
4DAE:  CLRF   xB5
4DB0:  MOVLW  43
4DB2:  MOVWF  xB7
....................    int temp=0; 
....................    long tiempo=0; 
....................    char unidad='C'; 
....................    if((config&4)>>2)unidad='F'; 
4DB4:  MOVF   1A,W
4DB6:  ANDLW  04
4DB8:  MOVWF  00
4DBA:  RRCF   00,F
4DBC:  RRCF   00,F
4DBE:  MOVLW  3F
4DC0:  ANDWF  00,F
4DC2:  MOVF   00,W
4DC4:  BZ    4DCA
4DC6:  MOVLW  46
4DC8:  MOVWF  xB7
....................    int subestado=_CargarTemperatura; 
4DCA:  MOVLW  64
4DCC:  MOVWF  xB8
....................    tft_gotoxy(0,1); 
4DCE:  CLRF   xDC
4DD0:  MOVLW  01
4DD2:  MOVWF  xDD
4DD4:  MOVLB  0
4DD6:  CALL   0EA2
....................    switch(config&0x03){ 
4DDA:  MOVF   1A,W
4DDC:  ANDLW  03
4DDE:  ADDLW  FC
4DE0:  BC    4E1E
4DE2:  ADDLW  04
4DE4:  GOTO   4F86
....................       case 0: 
....................          printf(tft_putc,"PUNTO"); 
4DE8:  MOVLW  40
4DEA:  MOVWF  FF6
4DEC:  MOVLW  08
4DEE:  MOVWF  FF7
4DF0:  CALL   1108
....................          break; 
4DF4:  BRA    4E1E
....................       case 1: 
....................          printf(tft_putc,"POINT"); 
4DF6:  MOVLW  46
4DF8:  MOVWF  FF6
4DFA:  MOVLW  08
4DFC:  MOVWF  FF7
4DFE:  CALL   1108
....................          break; 
4E02:  BRA    4E1E
....................       case 2: 
....................          printf(tft_putc,"POINT"); 
4E04:  MOVLW  4C
4E06:  MOVWF  FF6
4E08:  MOVLW  08
4E0A:  MOVWF  FF7
4E0C:  CALL   1108
....................          break; 
4E10:  BRA    4E1E
....................       case 3: 
....................          printf(tft_putc,"TO×KA"); 
4E12:  MOVLW  52
4E14:  MOVWF  FF6
4E16:  MOVLW  08
4E18:  MOVWF  FF7
4E1A:  CALL   1108
....................          break; 
....................    } 
....................    printf(tft_putc," %d:",*nPuntos); 
4E1E:  MOVFF  1B1,03
4E22:  MOVLB  1
4E24:  MOVFF  1B0,FE9
4E28:  MOVFF  1B1,FEA
4E2C:  MOVFF  FEF,1B9
4E30:  MOVLW  20
4E32:  MOVWF  xDB
4E34:  MOVLB  0
4E36:  CALL   0FA0
4E3A:  MOVFF  1B9,1BA
4E3E:  MOVLW  18
4E40:  MOVLB  1
4E42:  MOVWF  xBB
4E44:  MOVLB  0
4E46:  CALL   2BCC
4E4A:  MOVLW  3A
4E4C:  MOVLB  1
4E4E:  MOVWF  xDB
4E50:  MOVLB  0
4E52:  CALL   0FA0
....................    fillRect(X,10,_width-30-X,8,BG_COLOR); 
4E56:  MOVLW  1E
4E58:  MOVLB  1
4E5A:  SUBWF  x68,W
4E5C:  BSF    FD8.0
4E5E:  SUBFWB x73,W
4E60:  MOVWF  xB9
4E62:  CLRF   xE9
4E64:  MOVFF  173,1E8
4E68:  MOVLW  0A
4E6A:  MOVWF  xEA
4E6C:  MOVFF  1B9,1EB
4E70:  MOVLW  08
4E72:  MOVWF  xEC
4E74:  CLRF   xEE
4E76:  CLRF   xED
4E78:  MOVLB  0
4E7A:  CALL   0C9E
....................    tft_gotoxy(X_MAX-1,0); 
4E7E:  MOVLW  01
4E80:  MOVLB  1
4E82:  SUBWF  x6F,W
4E84:  MOVWF  xB9
4E86:  MOVWF  xDC
4E88:  CLRF   xDD
4E8A:  MOVLB  0
4E8C:  CALL   0EA2
....................    printf(tft_putc,"°%c",unidad); 
4E90:  MOVLW  B0
4E92:  MOVLB  1
4E94:  MOVWF  xDB
4E96:  MOVLB  0
4E98:  CALL   0FA0
4E9C:  MOVFF  1B7,1DB
4EA0:  CALL   0FA0
....................    print_temp(0); 
4EA4:  MOVLB  1
4EA6:  CLRF   xC1
4EA8:  CLRF   xC0
4EAA:  MOVLB  0
4EAC:  CALL   4002
....................    print_tiempo(0); 
4EB0:  MOVLB  1
4EB2:  CLRF   xBF
4EB4:  CLRF   xBE
4EB6:  MOVLB  0
4EB8:  CALL   414A
....................    tecl_mode(escaneo); 
4EBC:  MOVLW  01
4EBE:  MOVLB  1
4EC0:  MOVWF  xC4
4EC2:  MOVLB  0
4EC4:  CALL   08A2
....................    while(1){ 
....................       switch(subestado){ 
4EC8:  MOVLB  1
4ECA:  MOVF   xB8,W
4ECC:  XORLW  64
4ECE:  MOVLB  0
4ED0:  BZ    4EE4
4ED2:  XORLW  01
4ED4:  BZ    4F02
4ED6:  XORLW  03
4ED8:  BZ    4F18
4EDA:  XORLW  01
4EDC:  BZ    4F2E
4EDE:  XORLW  0F
4EE0:  BZ    4F44
4EE2:  BRA    4F72
....................          case _CargarTemperatura: 
....................             subestado=CargarTemperatura(&temp,nPuntos); 
4EE4:  MOVLW  01
4EE6:  MOVLB  1
4EE8:  MOVWF  xBA
4EEA:  MOVLW  B4
4EEC:  MOVWF  xB9
4EEE:  MOVFF  1B1,1BC
4EF2:  MOVFF  1B0,1BB
4EF6:  MOVLB  0
4EF8:  GOTO   4242
4EFC:  MOVFF  01,1B8
....................             break; 
4F00:  BRA    4F7C
....................          case _CargarMinutos: 
....................             subestado=CargarMinutos(&tiempo); 
4F02:  MOVLW  01
4F04:  MOVLB  1
4F06:  MOVWF  xBA
4F08:  MOVLW  B5
4F0A:  MOVWF  xB9
4F0C:  MOVLB  0
4F0E:  GOTO   44BA
4F12:  MOVFF  01,1B8
....................             break; 
4F16:  BRA    4F7C
....................          case _CargarSegundos: 
....................             subestado=CargarSegundos(&tiempo); 
4F18:  MOVLW  01
4F1A:  MOVLB  1
4F1C:  MOVWF  xBA
4F1E:  MOVLW  B5
4F20:  MOVWF  xB9
4F22:  MOVLB  0
4F24:  GOTO   4648
4F28:  MOVFF  01,1B8
....................             break; 
4F2C:  BRA    4F7C
....................          case _CargarTiempo: 
....................             subestado=CargarTiempo(&tiempo); 
4F2E:  MOVLW  01
4F30:  MOVLB  1
4F32:  MOVWF  xBA
4F34:  MOVLW  B5
4F36:  MOVWF  xB9
4F38:  MOVLB  0
4F3A:  GOTO   4730
4F3E:  MOVFF  01,1B8
....................             break; 
4F42:  BRA    4F7C
....................          case _CheckearSiValido: 
....................             subestado=CheckearSiValido(tiempo, temp, *nPuntos, Curva); 
4F44:  MOVFF  1B1,03
4F48:  MOVFF  1B0,FE9
4F4C:  MOVFF  1B1,FEA
4F50:  MOVFF  FEF,1BD
4F54:  MOVFF  1B6,1BB
4F58:  MOVFF  1B5,1BA
4F5C:  MOVFF  1B4,1BC
4F60:  MOVFF  1B3,1BF
4F64:  MOVFF  1B2,1BE
4F68:  MOVLB  0
4F6A:  BRA    4C5C
4F6C:  MOVFF  01,1B8
....................             break; 
4F70:  BRA    4F7C
....................          default: 
....................             return subestado; 
4F72:  MOVLB  1
4F74:  MOVFF  1B8,01
4F78:  BRA    4F80
4F7A:  MOVLB  0
....................       } 
4F7C:  BRA    4EC8
4F7E:  MOVLB  1
....................    } 
4F80:  MOVLB  0
4F82:  GOTO   65F4 (RETURN)
.................... } 
.................... int Iniciar(int *nPuntos,struct Punto *Curva){ 
....................    fillRect(X_BEGIN,Y_BEGIN-8,_width,16,BG_COLOR); 
*
501E:  MOVLW  08
5020:  MOVLB  1
5022:  SUBWF  x72,W
5024:  MOVWF  xB4
5026:  CLRF   xE9
5028:  MOVFF  170,1E8
502C:  MOVWF  xEA
502E:  MOVFF  168,1EB
5032:  MOVLW  10
5034:  MOVWF  xEC
5036:  CLRF   xEE
5038:  CLRF   xED
503A:  MOVLB  0
503C:  CALL   0C9E
....................    tft_gotoxy(0,0); 
5040:  MOVLB  1
5042:  CLRF   xDC
5044:  CLRF   xDD
5046:  MOVLB  0
5048:  CALL   0EA2
....................    printIniciar(); 
504C:  BRA    4FA8
....................    while(1){ 
....................       if(ultimaTecla==_X){ 
504E:  MOVF   1B,W
5050:  SUBLW  0A
5052:  BNZ   506E
....................          ultimaTecla=_VISTO; 
5054:  MOVLW  0C
5056:  MOVWF  1B
....................          *nPuntos=1; 
5058:  MOVLB  1
505A:  MOVFF  1B0,FE9
505E:  MOVFF  1B1,FEA
5062:  MOVLW  01
5064:  MOVWF  FEF
....................          return _SeleccionDePerfil; 
5066:  MOVLW  00
5068:  MOVWF  01
506A:  BRA    5118
506C:  MOVLB  0
....................            
....................       } 
....................       if(ultimaTecla==_TICK){ 
506E:  MOVF   1B,W
5070:  SUBLW  0B
5072:  BNZ   5114
....................          ultimaTecla=_VISTO; 
5074:  MOVLW  0C
5076:  MOVWF  1B
....................          Graf(*nPuntos, Curva, 0); 
5078:  MOVFF  1B1,03
507C:  MOVLB  1
507E:  MOVFF  1B0,FE9
5082:  MOVFF  1B1,FEA
5086:  MOVFF  FEF,1C4
508A:  MOVFF  1B3,1C6
508E:  MOVFF  1B2,1C5
5092:  CLRF   xC7
5094:  MOVLB  0
5096:  CALL   1CAA
....................          if((config&0xE0)!=((~read_eeprom(0x00))&0xE0)) write_eeprom(0x00,~(((~read_eeprom(0x00))&(~0xE0))|(config&0xE0))); 
509A:  MOVF   1A,W
509C:  ANDLW  E0
509E:  MOVLB  1
50A0:  MOVWF  xB4
50A2:  MOVFF  FF2,1B5
50A6:  BCF    FF2.7
50A8:  CLRF   FA9
50AA:  BCF    FA6.6
50AC:  BCF    FA6.7
50AE:  BSF    FA6.0
50B0:  MOVF   FA8,W
50B2:  BTFSC  xB5.7
50B4:  BSF    FF2.7
50B6:  XORLW  FF
50B8:  ANDLW  E0
50BA:  SUBWF  xB4,W
50BC:  BZ    510C
50BE:  MOVFF  FF2,1B4
50C2:  BCF    FF2.7
50C4:  CLRF   FA9
50C6:  BCF    FA6.6
50C8:  BCF    FA6.7
50CA:  BSF    FA6.0
50CC:  MOVF   FA8,W
50CE:  BTFSC  xB4.7
50D0:  BSF    FF2.7
50D2:  XORLW  FF
50D4:  ANDLW  1F
50D6:  MOVWF  xB5
50D8:  MOVF   1A,W
50DA:  ANDLW  E0
50DC:  IORWF  xB5,W
50DE:  XORLW  FF
50E0:  MOVWF  xB5
50E2:  MOVF   FF2,W
50E4:  MOVWF  00
50E6:  BCF    FF2.7
50E8:  CLRF   FA9
50EA:  MOVFF  1B5,FA8
50EE:  BCF    FA6.6
50F0:  BCF    FA6.7
50F2:  BSF    FA6.2
50F4:  MOVLB  F
50F6:  MOVLW  55
50F8:  MOVWF  FA7
50FA:  MOVLW  AA
50FC:  MOVWF  FA7
50FE:  BSF    FA6.1
5100:  BTFSC  FA6.1
5102:  BRA    5100
5104:  BCF    FA6.2
5106:  MOVF   00,W
5108:  IORWF  FF2,F
510A:  MOVLB  1
....................          return _Soldando; 
510C:  MOVLW  21
510E:  MOVWF  01
5110:  BRA    5118
5112:  MOVLB  0
....................            
....................       } 
5114:  BRA    504E
5116:  MOVLB  1
....................    } 
5118:  MOVLB  0
511A:  GOTO   6614 (RETURN)
.................... } 
.................... int PuntoNoValido(){ 
....................    tecl_mode(escaneo); 
511E:  MOVLW  01
5120:  MOVLB  1
5122:  MOVWF  xC4
5124:  MOVLB  0
5126:  CALL   08A2
....................    disable_interrupts(global); 
512A:  BCF    FF2.6
512C:  BCF    FF2.7
512E:  BTFSC  FF2.7
5130:  BRA    512C
....................    tft_gotoxy(0,1); 
5132:  MOVLB  1
5134:  CLRF   xDC
5136:  MOVLW  01
5138:  MOVWF  xDD
513A:  MOVLB  0
513C:  CALL   0EA2
....................    switch(config&0x03){ 
5140:  MOVF   1A,W
5142:  ANDLW  03
5144:  ADDLW  FC
5146:  BC    5184
5148:  ADDLW  04
514A:  GOTO   51C6
....................       case 0: 
....................          printf(tft_putc,"PUNTO NO VALIDO"); 
514E:  MOVLW  58
5150:  MOVWF  FF6
5152:  MOVLW  08
5154:  MOVWF  FF7
5156:  CALL   1108
....................          break; 
515A:  BRA    5184
....................       case 1: 
....................          printf(tft_putc,"POINT NOT VALID"); 
515C:  MOVLW  68
515E:  MOVWF  FF6
5160:  MOVLW  08
5162:  MOVWF  FF7
5164:  CALL   1108
....................          break; 
5168:  BRA    5184
....................       case 2: 
....................          printf(tft_putc,"POINT NON VALIDE"); 
516A:  MOVLW  78
516C:  MOVWF  FF6
516E:  MOVLW  08
5170:  MOVWF  FF7
5172:  CALL   1108
....................          break; 
5176:  BRA    5184
....................       case 3: 
....................          printf(tft_putc,"TO×KA HE\nÄE]CTB\\TEËÜHA"); 
5178:  MOVLW  8A
517A:  MOVWF  FF6
517C:  MOVLW  08
517E:  MOVWF  FF7
5180:  CALL   1108
....................          break; 
....................    } 
....................    tft_gotoxy(X_MAX-5,1); 
5184:  MOVLW  05
5186:  MOVLB  1
5188:  SUBWF  x6F,W
518A:  MOVWF  xAE
518C:  MOVWF  xDC
518E:  MOVLW  01
5190:  MOVWF  xDD
5192:  MOVLB  0
5194:  CALL   0EA2
....................    printf(tft_putc," "); 
5198:  MOVLW  20
519A:  MOVLB  1
519C:  MOVWF  xDB
519E:  MOVLB  0
51A0:  CALL   0FA0
....................    enable_interrupts(global); 
51A4:  MOVLW  C0
51A6:  IORWF  FF2,F
....................    while(ultimaTecla==_VISTO){} 
51A8:  MOVF   1B,W
51AA:  SUBLW  0C
51AC:  BTFSC  FD8.2
51AE:  BRA    51A8
....................    ultimaTecla=_VISTO; 
51B0:  MOVLW  0C
51B2:  MOVWF  1B
....................    tecl_mode(estatico); 
51B4:  MOVLB  1
51B6:  CLRF   xC4
51B8:  MOVLB  0
51BA:  CALL   08A2
....................    return _CargarPunto; 
51BE:  MOVLW  1D
51C0:  MOVWF  01
51C2:  GOTO   6620 (RETURN)
....................         
.................... } 
.................... int OtroPunto(int *nPuntos, struct Punto *Curva){ 
*
5276:  MOVF   1A,W
5278:  ANDLW  E0
527A:  MOVWF  00
527C:  SWAPF  00,W
527E:  MOVLB  1
5280:  MOVWF  xB4
5282:  RRCF   xB4,F
5284:  MOVLW  07
5286:  ANDWF  xB4,F
....................    int nPerfil=(config&0xE0)>>5; 
....................    tft_gotoxy(0,1); 
5288:  CLRF   xDC
528A:  MOVLW  01
528C:  MOVWF  xDD
528E:  MOVLB  0
5290:  CALL   0EA2
....................    printOtroPunto();  
5294:  BRA    51E8
....................    tft_gotoxy(X_MAX-5,1); 
5296:  MOVLW  05
5298:  MOVLB  1
529A:  SUBWF  x6F,W
529C:  MOVWF  xB5
529E:  MOVWF  xDC
52A0:  MOVLW  01
52A2:  MOVWF  xDD
52A4:  MOVLB  0
52A6:  CALL   0EA2
....................    printf(tft_putc," ");  
52AA:  MOVLW  20
52AC:  MOVLB  1
52AE:  MOVWF  xDB
52B0:  MOVLB  0
52B2:  CALL   0FA0
....................    while(1){ 
....................       if(ultimaTecla==_X){ 
52B6:  MOVF   1B,W
52B8:  SUBLW  0A
52BA:  BNZ   52E6
....................          ultimaTecla=_VISTO; 
52BC:  MOVLW  0C
52BE:  MOVWF  1B
....................          return guardarPuntos(nPerfil,*nPuntos,Curva);  
52C0:  MOVFF  1B1,03
52C4:  MOVFF  1B0,FE9
52C8:  MOVFF  1B1,FEA
52CC:  MOVFF  FEF,1C5
52D0:  MOVFF  1B4,1C4
52D4:  MOVFF  1B3,1C7
52D8:  MOVFF  1B2,1C6
52DC:  MOVLB  0
52DE:  CALL   4864
52E2:  MOVF   01,W
52E4:  BRA    5306
....................       } 
....................       if(ultimaTecla==_TICK){ 
52E6:  MOVF   1B,W
52E8:  SUBLW  0B
52EA:  BNZ   5304
....................          ultimaTecla=_VISTO; 
52EC:  MOVLW  0C
52EE:  MOVWF  1B
....................          (*nPuntos)++; 
52F0:  MOVLB  1
52F2:  MOVFF  1B0,FE9
52F6:  MOVFF  1B1,FEA
52FA:  INCF   FEF,F
....................          return _CargarPunto; 
52FC:  MOVLW  1D
52FE:  MOVWF  01
5300:  MOVLB  0
5302:  BRA    5306
....................       } 
5304:  BRA    52B6
....................    }   
5306:  GOTO   6640 (RETURN)
.................... } 
.................... int Soldando(int nPuntos, struct punto *Curva){ 
....................    printSoldando(); //No solo imprime tmb in habilita el tick 
*
5720:  RCALL  530A
....................    //Varibles para el seguimiento e inicializacion de los modulos 
....................    int1 EtapaEnCurso, TemperauraNoAlcanzada, SoldandoEnPantalla = TRUE; 
....................    float Temp, K; 
5722:  MOVLB  1
5724:  BSF    xB2.2
....................    timer1_init(); 
5726:  MOVLB  0
5728:  BRA    53B8
....................    K=(freq)/(4*65536*presc); //Frecuencia de saturacion del Timer1 
572A:  MOVLB  1
572C:  CLRF   xBA
572E:  CLRF   xB9
5730:  MOVLW  60
5732:  MOVWF  xB8
5734:  MOVLW  81
5736:  MOVWF  xB7
....................    adc_init(); 
5738:  MOVLB  0
573A:  BRA    53C6
....................    delay_ms(1); 
573C:  MOVLW  01
573E:  MOVLB  1
5740:  MOVWF  xDE
5742:  MOVLB  0
5744:  CALL   08DC
....................    Temp=MedirTemp(); 
5748:  RCALL  53DE
574A:  MOVFF  03,1B6
574E:  MOVFF  02,1B5
5752:  MOVFF  01,1B4
5756:  MOVFF  00,1B3
....................    delay_ms(1); 
575A:  MOVLW  01
575C:  MOVLB  1
575E:  MOVWF  xDE
5760:  MOVLB  0
5762:  CALL   08DC
....................    Setpoint=Temp; 
5766:  MOVFF  1B6,23
576A:  MOVFF  1B5,22
576E:  MOVFF  1B4,21
5772:  MOVFF  1B3,20
....................    //Variables dibujo 
....................    long contTotal=0,prevCont=0, Pixel_X=0; 
....................    int yM=(_height-13), xM=(_width-30); 
....................    struct Punto Max; 
5776:  MOVLB  1
5778:  CLRF   xBC
577A:  CLRF   xBB
577C:  CLRF   xBE
577E:  CLRF   xBD
5780:  CLRF   xC0
5782:  CLRF   xBF
5784:  MOVLW  0D
5786:  SUBWF  x69,W
5788:  MOVWF  xC1
578A:  MOVLW  1E
578C:  SUBWF  x68,W
578E:  MOVWF  xC2
....................    Max.Tiempo = 0; 
5790:  CLRF   xC5
5792:  CLRF   xC4
....................    Max.Temperatura = 0; 
5794:  CLRF   xC3
....................    for(int i=0; i<nPuntos; i++){ 
5796:  CLRF   xC6
5798:  MOVF   xAF,W
579A:  SUBWF  xC6,W
579C:  BC    5832
....................       if(Curva[i].Temperatura>Max.Temperatura)Max.Temperatura=Curva[i].Temperatura; 
579E:  CLRF   xEE
57A0:  MOVFF  1C6,1ED
57A4:  CLRF   xF0
57A6:  MOVLW  03
57A8:  MOVWF  xEF
57AA:  MOVLB  0
57AC:  CALL   0E16
57B0:  MOVFF  02,1D1
57B4:  MOVFF  01,1D0
57B8:  MOVLB  1
57BA:  MOVF   xB0,W
57BC:  ADDWF  01,W
57BE:  MOVWF  FE9
57C0:  MOVF   xB1,W
57C2:  ADDWFC 02,W
57C4:  MOVWF  FEA
57C6:  MOVF   FEF,W
57C8:  SUBWF  xC3,W
57CA:  BC    57F0
57CC:  CLRF   xEE
57CE:  MOVFF  1C6,1ED
57D2:  CLRF   xF0
57D4:  MOVLW  03
57D6:  MOVWF  xEF
57D8:  MOVLB  0
57DA:  CALL   0E16
57DE:  MOVLB  1
57E0:  MOVF   xB0,W
57E2:  ADDWF  01,W
57E4:  MOVWF  FE9
57E6:  MOVF   xB1,W
57E8:  ADDWFC 02,W
57EA:  MOVWF  FEA
57EC:  MOVFF  FEF,1C3
....................       Max.Tiempo += Curva[i].Tiempo; 
57F0:  CLRF   xEE
57F2:  MOVFF  1C6,1ED
57F6:  CLRF   xF0
57F8:  MOVLW  03
57FA:  MOVWF  xEF
57FC:  MOVLB  0
57FE:  CALL   0E16
5802:  MOVFF  01,1D0
5806:  MOVLW  01
5808:  MOVLB  1
580A:  ADDWF  01,W
580C:  MOVWF  01
580E:  MOVLW  00
5810:  ADDWFC 02,W
5812:  MOVWF  03
5814:  MOVF   01,W
5816:  ADDWF  xB0,W
5818:  MOVWF  FE9
581A:  MOVF   xB1,W
581C:  ADDWFC 03,W
581E:  MOVWF  FEA
5820:  MOVFF  FEC,03
5824:  MOVF   FED,F
5826:  MOVF   FEF,W
5828:  ADDWF  xC4,F
582A:  MOVF   03,W
582C:  ADDWFC xC5,F
582E:  INCF   xC6,F
5830:  BRA    5798
....................    } 
....................    float prev_y=yM; 
....................    float Kd=(float)(xM-1)/Max.Tiempo; //Pixeles/segundo 
5832:  CLRF   xED
5834:  MOVFF  1C1,1EC
5838:  MOVLB  0
583A:  CALL   1750
583E:  MOVFF  03,1CA
5842:  MOVFF  02,1C9
5846:  MOVFF  01,1C8
584A:  MOVFF  00,1C7
584E:  MOVLW  01
5850:  MOVLB  1
5852:  SUBWF  xC2,W
5854:  CLRF   xED
5856:  MOVWF  xEC
5858:  MOVLB  0
585A:  CALL   1750
585E:  MOVFF  03,1D3
5862:  MOVFF  02,1D2
5866:  MOVFF  01,1D1
586A:  MOVFF  00,1D0
586E:  MOVFF  1C5,1ED
5872:  MOVFF  1C4,1EC
5876:  CALL   1750
587A:  MOVFF  1D3,1ED
587E:  MOVFF  1D2,1EC
5882:  MOVFF  1D1,1EB
5886:  MOVFF  1D0,1EA
588A:  MOVFF  03,1F1
588E:  MOVFF  02,1F0
5892:  MOVFF  01,1EF
5896:  MOVFF  00,1EE
589A:  CALL   1786
589E:  MOVFF  03,1CE
58A2:  MOVFF  02,1CD
58A6:  MOVFF  01,1CC
58AA:  MOVFF  00,1CB
....................    //Bucle de soldado 
....................    for(int i=0; i<nPuntos; i++){ 
58AE:  MOVLB  1
58B0:  CLRF   xCF
58B2:  MOVF   xAF,W
58B4:  SUBWF  xCF,W
58B6:  BTFSC  FD8.0
58B8:  GOTO   6118
....................       //Determinar el delta termico de la etapa 
....................       dt=((float)Curva[i].Temperatura-Temp)/(Curva[i].Tiempo*K); 
58BC:  CLRF   xEE
58BE:  MOVFF  1CF,1ED
58C2:  CLRF   xF0
58C4:  MOVLW  03
58C6:  MOVWF  xEF
58C8:  MOVLB  0
58CA:  CALL   0E16
58CE:  MOVFF  02,1D1
58D2:  MOVFF  01,1D0
58D6:  MOVLB  1
58D8:  MOVF   xB0,W
58DA:  ADDWF  01,W
58DC:  MOVWF  FE9
58DE:  MOVF   xB1,W
58E0:  ADDWFC 02,W
58E2:  MOVWF  FEA
58E4:  MOVF   FEF,W
58E6:  CLRF   xED
58E8:  MOVWF  xEC
58EA:  MOVLB  0
58EC:  CALL   1750
58F0:  MOVFF  03,1D5
58F4:  MOVFF  02,1D4
58F8:  MOVFF  01,1D3
58FC:  MOVFF  00,1D2
5900:  MOVFF  FEA,1D7
5904:  MOVFF  FE9,1D6
5908:  BSF    FD8.1
590A:  CLRF   19
590C:  BTFSC  FF2.7
590E:  BSF    19.7
5910:  BCF    FF2.7
5912:  MOVFF  03,20A
5916:  MOVFF  02,209
591A:  MOVFF  01,208
591E:  MOVFF  00,207
5922:  MOVFF  1B6,20E
5926:  MOVFF  1B5,20D
592A:  MOVFF  1B4,20C
592E:  MOVFF  1B3,20B
5932:  CALL   04EA
5936:  BTFSC  19.7
5938:  BSF    FF2.7
593A:  MOVFF  1D7,FEA
593E:  MOVFF  1D6,FE9
5942:  MOVFF  03,1D5
5946:  MOVFF  02,1D4
594A:  MOVFF  01,1D3
594E:  MOVFF  00,1D2
5952:  MOVLB  1
5954:  CLRF   xEE
5956:  MOVFF  1CF,1ED
595A:  CLRF   xF0
595C:  MOVLW  03
595E:  MOVWF  xEF
5960:  MOVLB  0
5962:  CALL   0E16
5966:  MOVFF  01,1D8
596A:  MOVLW  01
596C:  MOVLB  1
596E:  ADDWF  01,W
5970:  MOVWF  01
5972:  MOVLW  00
5974:  ADDWFC 02,W
5976:  MOVWF  03
5978:  MOVF   01,W
597A:  ADDWF  xB0,W
597C:  MOVWF  FE9
597E:  MOVF   xB1,W
5980:  ADDWFC 03,W
5982:  MOVWF  FEA
5984:  MOVFF  FEC,1ED
5988:  MOVF   FED,F
598A:  MOVFF  FEF,1EC
598E:  MOVLB  0
5990:  CALL   1750
5994:  MOVFF  03,1EF
5998:  MOVFF  02,1EE
599C:  MOVFF  01,1ED
59A0:  MOVFF  00,1EC
59A4:  MOVFF  1BA,1F3
59A8:  MOVFF  1B9,1F2
59AC:  MOVFF  1B8,1F1
59B0:  MOVFF  1B7,1F0
59B4:  CALL   18E4
59B8:  MOVFF  1D5,1ED
59BC:  MOVFF  1D4,1EC
59C0:  MOVFF  1D3,1EB
59C4:  MOVFF  1D2,1EA
59C8:  MOVFF  03,1F1
59CC:  MOVFF  02,1F0
59D0:  MOVFF  01,1EF
59D4:  MOVFF  00,1EE
59D8:  CALL   1786
59DC:  MOVFF  03,1F
59E0:  MOVFF  02,1E
59E4:  MOVFF  01,1D
59E8:  MOVFF  00,1C
....................       //Resetear los flags de finalizacion 
....................       EtapaEnCurso = TRUE; 
59EC:  MOVLB  1
59EE:  BSF    xB2.0
....................       TemperauraNoAlcanzada = TRUE; 
59F0:  BSF    xB2.1
....................       cont = 0; 
59F2:  CLRF   27
59F4:  CLRF   26
59F6:  CLRF   25
59F8:  CLRF   24
....................       //Bucle de la etapa 
....................       while(EtapaEnCurso||TemperauraNoAlcanzada){ 
59FA:  BTFSC  xB2.0
59FC:  BRA    5A02
59FE:  BTFSS  xB2.1
5A00:  BRA    6112
....................          //Etapa terminada 
....................          if(cont >= k*Curva[i].Tiempo) EtapaEnCurso = FALSE; 
5A02:  CLRF   xEE
5A04:  MOVFF  1CF,1ED
5A08:  CLRF   xF0
5A0A:  MOVLW  03
5A0C:  MOVWF  xEF
5A0E:  MOVLB  0
5A10:  CALL   0E16
5A14:  MOVFF  02,1D1
5A18:  MOVFF  01,1D0
5A1C:  MOVLW  01
5A1E:  MOVLB  1
5A20:  ADDWF  01,W
5A22:  MOVWF  01
5A24:  MOVLW  00
5A26:  ADDWFC 02,W
5A28:  MOVWF  03
5A2A:  MOVF   01,W
5A2C:  ADDWF  xB0,W
5A2E:  MOVWF  FE9
5A30:  MOVF   xB1,W
5A32:  ADDWFC 03,W
5A34:  MOVWF  FEA
5A36:  MOVFF  FEC,03
5A3A:  MOVF   FED,F
5A3C:  MOVFF  FEF,1EC
5A40:  MOVFF  03,1ED
5A44:  MOVLB  0
5A46:  CALL   1750
5A4A:  MOVFF  1BA,1EF
5A4E:  MOVFF  1B9,1EE
5A52:  MOVFF  1B8,1ED
5A56:  MOVFF  1B7,1EC
5A5A:  MOVFF  03,1F3
5A5E:  MOVFF  02,1F2
5A62:  MOVFF  01,1F1
5A66:  MOVFF  00,1F0
5A6A:  CALL   18E4
5A6E:  MOVFF  03,1D3
5A72:  MOVFF  02,1D2
5A76:  MOVFF  01,1D1
5A7A:  MOVFF  00,1D0
5A7E:  MOVFF  27,1D7
5A82:  MOVFF  26,1D6
5A86:  MOVFF  25,1D5
5A8A:  MOVFF  24,1D4
5A8E:  BRA    5632
5A90:  MOVFF  1D3,1EB
5A94:  MOVFF  1D2,1EA
5A98:  MOVFF  1D1,1E9
5A9C:  MOVFF  1D0,1E8
5AA0:  MOVFF  03,1EF
5AA4:  MOVFF  02,1EE
5AA8:  MOVFF  01,1ED
5AAC:  MOVFF  00,1EC
5AB0:  CALL   19DA
5AB4:  BC    5AB8
5AB6:  BNZ   5ABE
5AB8:  MOVLB  1
5ABA:  BCF    xB2.0
5ABC:  MOVLB  0
....................          //Medir temperatura 
....................          Temp=MedirTemp(); 
5ABE:  RCALL  53DE
5AC0:  MOVFF  03,1B6
5AC4:  MOVFF  02,1B5
5AC8:  MOVFF  01,1B4
5ACC:  MOVFF  00,1B3
....................          //Prender o apagar los elementos activos del horno 
....................          if(Temp<=(Setpoint-_H)) ON(SALIDA); 
5AD0:  BSF    FD8.1
5AD2:  CLRF   19
5AD4:  BTFSC  FF2.7
5AD6:  BSF    19.7
5AD8:  BCF    FF2.7
5ADA:  MOVFF  23,20A
5ADE:  MOVFF  22,209
5AE2:  MOVFF  21,208
5AE6:  MOVFF  20,207
5AEA:  MOVLB  2
5AEC:  CLRF   x0E
5AEE:  CLRF   x0D
5AF0:  CLRF   x0C
5AF2:  MOVLW  80
5AF4:  MOVWF  x0B
5AF6:  MOVLB  0
5AF8:  CALL   04EA
5AFC:  BTFSC  19.7
5AFE:  BSF    FF2.7
5B00:  MOVFF  1B6,1EB
5B04:  MOVFF  1B5,1EA
5B08:  MOVFF  1B4,1E9
5B0C:  MOVFF  1B3,1E8
5B10:  MOVFF  03,1EF
5B14:  MOVFF  02,1EE
5B18:  MOVFF  01,1ED
5B1C:  MOVFF  00,1EC
5B20:  CALL   19DA
5B24:  BC    5B28
5B26:  BNZ   5B2C
5B28:  BCF    F92.6
5B2A:  BSF    F89.6
....................          if(Temp>=(Setpoint+_H)) OFF(SALIDA); 
5B2C:  BCF    FD8.1
5B2E:  CLRF   19
5B30:  BTFSC  FF2.7
5B32:  BSF    19.7
5B34:  BCF    FF2.7
5B36:  MOVFF  23,20A
5B3A:  MOVFF  22,209
5B3E:  MOVFF  21,208
5B42:  MOVFF  20,207
5B46:  MOVLB  2
5B48:  CLRF   x0E
5B4A:  CLRF   x0D
5B4C:  CLRF   x0C
5B4E:  MOVLW  80
5B50:  MOVWF  x0B
5B52:  MOVLB  0
5B54:  CALL   04EA
5B58:  BTFSC  19.7
5B5A:  BSF    FF2.7
5B5C:  MOVFF  03,1EB
5B60:  MOVFF  02,1EA
5B64:  MOVFF  01,1E9
5B68:  MOVFF  00,1E8
5B6C:  MOVFF  1B6,1EF
5B70:  MOVFF  1B5,1EE
5B74:  MOVFF  1B4,1ED
5B78:  MOVFF  1B3,1EC
5B7C:  CALL   19DA
5B80:  BC    5B84
5B82:  BNZ   5B88
5B84:  BCF    F92.6
5B86:  BCF    F89.6
....................          //Temperatura Alcanzada 
....................          if(abs(Temp-Curva[i].Temperatura)<_H) TemperauraNoAlcanzada = FALSE; 
5B88:  MOVLB  1
5B8A:  CLRF   xEE
5B8C:  MOVFF  1CF,1ED
5B90:  CLRF   xF0
5B92:  MOVLW  03
5B94:  MOVWF  xEF
5B96:  MOVLB  0
5B98:  CALL   0E16
5B9C:  MOVFF  02,1D1
5BA0:  MOVFF  01,1D0
5BA4:  MOVLB  1
5BA6:  MOVF   xB0,W
5BA8:  ADDWF  01,W
5BAA:  MOVWF  FE9
5BAC:  MOVF   xB1,W
5BAE:  ADDWFC 02,W
5BB0:  MOVWF  FEA
5BB2:  MOVF   FEF,W
5BB4:  CLRF   xED
5BB6:  MOVWF  xEC
5BB8:  MOVLB  0
5BBA:  CALL   1750
5BBE:  MOVFF  FEA,1D3
5BC2:  MOVFF  FE9,1D2
5BC6:  BSF    FD8.1
5BC8:  CLRF   19
5BCA:  BTFSC  FF2.7
5BCC:  BSF    19.7
5BCE:  BCF    FF2.7
5BD0:  MOVFF  1B6,20A
5BD4:  MOVFF  1B5,209
5BD8:  MOVFF  1B4,208
5BDC:  MOVFF  1B3,207
5BE0:  MOVFF  03,20E
5BE4:  MOVFF  02,20D
5BE8:  MOVFF  01,20C
5BEC:  MOVFF  00,20B
5BF0:  CALL   04EA
5BF4:  BTFSC  19.7
5BF6:  BSF    FF2.7
5BF8:  MOVFF  1D3,FEA
5BFC:  MOVFF  1D2,FE9
5C00:  MOVFF  03,1D7
5C04:  MOVFF  02,1D6
5C08:  MOVFF  01,1D5
5C0C:  MOVFF  00,1D4
5C10:  MOVFF  00,00
5C14:  MOVFF  01,01
5C18:  MOVFF  02,02
5C1C:  MOVFF  03,03
5C20:  BCF    01.7
5C22:  MOVFF  03,1D7
5C26:  MOVFF  02,1D6
5C2A:  MOVFF  01,1D5
5C2E:  MOVFF  00,1D4
5C32:  MOVFF  03,1EB
5C36:  MOVFF  02,1EA
5C3A:  MOVFF  01,1E9
5C3E:  MOVFF  00,1E8
5C42:  MOVLB  1
5C44:  CLRF   xEF
5C46:  CLRF   xEE
5C48:  CLRF   xED
5C4A:  MOVLW  80
5C4C:  MOVWF  xEC
5C4E:  MOVLB  0
5C50:  CALL   19DA
5C54:  BNC   5C5C
5C56:  MOVLB  1
5C58:  BCF    xB2.1
5C5A:  MOVLB  0
....................          //Manejo de teclas 
....................          if(ultimaTecla==_X){ 
5C5C:  MOVF   1B,W
5C5E:  SUBLW  0A
5C60:  BNZ   5C82
....................             ultimaTecla=_VISTO; 
5C62:  MOVLW  0C
5C64:  MOVWF  1B
....................             if(SoldandoEnPantalla){ 
5C66:  MOVLB  1
5C68:  BTFSS  xB2.2
5C6A:  BRA    5C76
....................                SoldandoEnPantalla = FALSE; 
5C6C:  BCF    xB2.2
....................                printCancelar(); 
5C6E:  MOVLB  0
5C70:  BRA    566C
....................             } else { 
5C72:  BRA    5C82
5C74:  MOVLB  1
....................                printSoldando(); 
5C76:  MOVLB  0
5C78:  CALL   530A
....................                SoldandoEnPantalla = TRUE; 
5C7C:  MOVLB  1
5C7E:  BSF    xB2.2
5C80:  MOVLB  0
....................             } 
....................          } 
....................          if(ultimaTecla==_TICK && SoldandoEnPantalla==FALSE){  
5C82:  MOVF   1B,W
5C84:  SUBLW  0B
5C86:  BNZ   5C9E
5C88:  MOVLB  1
5C8A:  BTFSS  xB2.2
5C8C:  BRA    5C92
5C8E:  MOVLB  0
5C90:  BRA    5C9E
....................             ultimaTecla=_VISTO; 
5C92:  MOVLW  0C
5C94:  MOVWF  1B
....................             return _Terminado; 
5C96:  MOVLW  22
5C98:  MOVWF  01
5C9A:  BRA    611C
5C9C:  MOVLB  0
....................          } 
....................          if(prevCont!=Cont){ 
5C9E:  MOVF   24,W
5CA0:  MOVLB  1
5CA2:  SUBWF  xBD,W
5CA4:  BNZ   5CB6
5CA6:  MOVF   25,W
5CA8:  SUBWF  xBE,W
5CAA:  BNZ   5CB6
5CAC:  MOVF   26,F
5CAE:  BNZ   5CB6
5CB0:  MOVF   27,F
5CB2:  BTFSC  FD8.2
5CB4:  BRA    6110
....................             prevCont=Cont; 
5CB6:  MOVFF  25,1BE
5CBA:  MOVFF  24,1BD
....................             ContTotal++; 
5CBE:  INCF   xBB,F
5CC0:  BTFSC  FD8.2
5CC2:  INCF   xBC,F
....................             Pixel_X = (float)ContTotal*(Kd/K); 
5CC4:  MOVFF  1BC,1ED
5CC8:  MOVFF  1BB,1EC
5CCC:  MOVLB  0
5CCE:  CALL   1750
5CD2:  MOVFF  03,1D3
5CD6:  MOVFF  02,1D2
5CDA:  MOVFF  01,1D1
5CDE:  MOVFF  00,1D0
5CE2:  MOVFF  1CE,1ED
5CE6:  MOVFF  1CD,1EC
5CEA:  MOVFF  1CC,1EB
5CEE:  MOVFF  1CB,1EA
5CF2:  MOVFF  1BA,1F1
5CF6:  MOVFF  1B9,1F0
5CFA:  MOVFF  1B8,1EF
5CFE:  MOVFF  1B7,1EE
5D02:  CALL   1786
5D06:  MOVFF  1D3,1EF
5D0A:  MOVFF  1D2,1EE
5D0E:  MOVFF  1D1,1ED
5D12:  MOVFF  1D0,1EC
5D16:  MOVFF  03,1F3
5D1A:  MOVFF  02,1F2
5D1E:  MOVFF  01,1F1
5D22:  MOVFF  00,1F0
5D26:  CALL   18E4
5D2A:  MOVFF  03,1E9
5D2E:  MOVFF  02,1E8
5D32:  MOVFF  01,1E7
5D36:  MOVFF  00,1E6
5D3A:  CALL   1A54
5D3E:  MOVFF  02,1C0
5D42:  MOVFF  01,1BF
....................             y = yM-((float)(_height-36)/Max.Temperatura)*Temp; 
5D46:  MOVLW  24
5D48:  MOVLB  1
5D4A:  SUBWF  x69,W
5D4C:  CLRF   xED
5D4E:  MOVWF  xEC
5D50:  MOVLB  0
5D52:  CALL   1750
5D56:  MOVFF  03,1D3
5D5A:  MOVFF  02,1D2
5D5E:  MOVFF  01,1D1
5D62:  MOVFF  00,1D0
5D66:  MOVLB  1
5D68:  CLRF   xED
5D6A:  MOVFF  1C3,1EC
5D6E:  MOVLB  0
5D70:  CALL   1750
5D74:  MOVFF  1D3,1ED
5D78:  MOVFF  1D2,1EC
5D7C:  MOVFF  1D1,1EB
5D80:  MOVFF  1D0,1EA
5D84:  MOVFF  03,1F1
5D88:  MOVFF  02,1F0
5D8C:  MOVFF  01,1EF
5D90:  MOVFF  00,1EE
5D94:  CALL   1786
5D98:  MOVFF  03,1D3
5D9C:  MOVFF  02,1D2
5DA0:  MOVFF  01,1D1
5DA4:  MOVFF  00,1D0
5DA8:  MOVFF  03,1EF
5DAC:  MOVFF  02,1EE
5DB0:  MOVFF  01,1ED
5DB4:  MOVFF  00,1EC
5DB8:  MOVFF  1B6,1F3
5DBC:  MOVFF  1B5,1F2
5DC0:  MOVFF  1B4,1F1
5DC4:  MOVFF  1B3,1F0
5DC8:  CALL   18E4
5DCC:  MOVFF  03,1D3
5DD0:  MOVFF  02,1D2
5DD4:  MOVFF  01,1D1
5DD8:  MOVFF  00,1D0
5DDC:  MOVLB  1
5DDE:  CLRF   xED
5DE0:  MOVFF  1C1,1EC
5DE4:  MOVLB  0
5DE6:  CALL   1750
5DEA:  BSF    FD8.1
5DEC:  CLRF   19
5DEE:  BTFSC  FF2.7
5DF0:  BSF    19.7
5DF2:  BCF    FF2.7
5DF4:  MOVFF  03,20A
5DF8:  MOVFF  02,209
5DFC:  MOVFF  01,208
5E00:  MOVFF  00,207
5E04:  MOVFF  1D3,20E
5E08:  MOVFF  1D2,20D
5E0C:  MOVFF  1D1,20C
5E10:  MOVFF  1D0,20B
5E14:  CALL   04EA
5E18:  BTFSC  19.7
5E1A:  BSF    FF2.7
5E1C:  MOVFF  03,1E9
5E20:  MOVFF  02,1E8
5E24:  MOVFF  01,1E7
5E28:  MOVFF  00,1E6
5E2C:  CALL   1A54
5E30:  MOVFF  01,174
....................             if(prev_y-y>=0) drawVLine(Pixel_X+22,y,abs(y-prev_y)+1,HeatMap(0,255,~(int)Temp)); 
5E34:  MOVLB  1
5E36:  CLRF   xED
5E38:  MOVFF  174,1EC
5E3C:  MOVLB  0
5E3E:  CALL   1750
5E42:  BSF    FD8.1
5E44:  CLRF   19
5E46:  BTFSC  FF2.7
5E48:  BSF    19.7
5E4A:  BCF    FF2.7
5E4C:  MOVFF  1CA,20A
5E50:  MOVFF  1C9,209
5E54:  MOVFF  1C8,208
5E58:  MOVFF  1C7,207
5E5C:  MOVFF  03,20E
5E60:  MOVFF  02,20D
5E64:  MOVFF  01,20C
5E68:  MOVFF  00,20B
5E6C:  CALL   04EA
5E70:  BTFSC  19.7
5E72:  BSF    FF2.7
5E74:  MOVFF  03,1D3
5E78:  MOVFF  02,1D2
5E7C:  MOVFF  01,1D1
5E80:  MOVFF  00,1D0
5E84:  MOVLB  1
5E86:  CLRF   xEB
5E88:  CLRF   xEA
5E8A:  CLRF   xE9
5E8C:  CLRF   xE8
5E8E:  MOVFF  03,1EF
5E92:  MOVFF  02,1EE
5E96:  MOVFF  01,1ED
5E9A:  MOVFF  00,1EC
5E9E:  MOVLB  0
5EA0:  CALL   19DA
5EA4:  BC    5EAA
5EA6:  BTFSS  FD8.2
5EA8:  BRA    5FC0
5EAA:  MOVLW  16
5EAC:  MOVLB  1
5EAE:  ADDWF  xBF,W
5EB0:  MOVWF  xD0
5EB2:  MOVLW  00
5EB4:  ADDWFC xC0,W
5EB6:  MOVWF  xD1
5EB8:  CLRF   xED
5EBA:  MOVFF  174,1EC
5EBE:  MOVLB  0
5EC0:  CALL   1750
5EC4:  BSF    FD8.1
5EC6:  CLRF   19
5EC8:  BTFSC  FF2.7
5ECA:  BSF    19.7
5ECC:  BCF    FF2.7
5ECE:  MOVFF  03,20A
5ED2:  MOVFF  02,209
5ED6:  MOVFF  01,208
5EDA:  MOVFF  00,207
5EDE:  MOVFF  1CA,20E
5EE2:  MOVFF  1C9,20D
5EE6:  MOVFF  1C8,20C
5EEA:  MOVFF  1C7,20B
5EEE:  CALL   04EA
5EF2:  BTFSC  19.7
5EF4:  BSF    FF2.7
5EF6:  MOVFF  03,1D5
5EFA:  MOVFF  02,1D4
5EFE:  MOVFF  01,1D3
5F02:  MOVFF  00,1D2
5F06:  MOVFF  00,00
5F0A:  MOVFF  01,01
5F0E:  MOVFF  02,02
5F12:  MOVFF  03,03
5F16:  BCF    01.7
5F18:  MOVFF  03,1D5
5F1C:  MOVFF  02,1D4
5F20:  MOVFF  01,1D3
5F24:  MOVFF  00,1D2
5F28:  BCF    FD8.1
5F2A:  CLRF   19
5F2C:  BTFSC  FF2.7
5F2E:  BSF    19.7
5F30:  BCF    FF2.7
5F32:  MOVFF  03,20A
5F36:  MOVFF  02,209
5F3A:  MOVFF  01,208
5F3E:  MOVFF  00,207
5F42:  MOVLB  2
5F44:  CLRF   x0E
5F46:  CLRF   x0D
5F48:  CLRF   x0C
5F4A:  MOVLW  7F
5F4C:  MOVWF  x0B
5F4E:  MOVLB  0
5F50:  CALL   04EA
5F54:  BTFSC  19.7
5F56:  BSF    FF2.7
5F58:  MOVFF  03,1E9
5F5C:  MOVFF  02,1E8
5F60:  MOVFF  01,1E7
5F64:  MOVFF  00,1E6
5F68:  CALL   1A54
5F6C:  MOVFF  01,1D2
5F70:  MOVFF  1B6,1E9
5F74:  MOVFF  1B5,1E8
5F78:  MOVFF  1B4,1E7
5F7C:  MOVFF  1B3,1E6
5F80:  CALL   1A54
5F84:  MOVFF  01,1D3
5F88:  MOVLB  1
5F8A:  COMF   xD3,F
5F8C:  CLRF   xE7
5F8E:  SETF   xE8
5F90:  MOVFF  1D3,1E9
5F94:  MOVLB  0
5F96:  CALL   1AD6
5F9A:  MOVFF  02,1D4
5F9E:  MOVFF  01,1D3
5FA2:  MOVFF  1D1,1E6
5FA6:  MOVFF  1D0,1E5
5FAA:  MOVFF  174,1E7
5FAE:  MOVFF  1D2,1E8
5FB2:  MOVFF  02,1EA
5FB6:  MOVFF  01,1E9
5FBA:  CALL   14EE
5FBE:  BRA    60F0
....................             else drawVLine(Pixel_X+22,prev_y,abs(y-prev_y)+1,HeatMap(0,255,~(int)Temp)); 
5FC0:  MOVLW  16
5FC2:  MOVLB  1
5FC4:  ADDWF  xBF,W
5FC6:  MOVWF  xD0
5FC8:  MOVLW  00
5FCA:  ADDWFC xC0,W
5FCC:  MOVWF  xD1
5FCE:  MOVFF  1CA,1E9
5FD2:  MOVFF  1C9,1E8
5FD6:  MOVFF  1C8,1E7
5FDA:  MOVFF  1C7,1E6
5FDE:  MOVLB  0
5FE0:  CALL   1A54
5FE4:  MOVFF  01,1D2
5FE8:  MOVLB  1
5FEA:  CLRF   xED
5FEC:  MOVFF  174,1EC
5FF0:  MOVLB  0
5FF2:  CALL   1750
5FF6:  BSF    FD8.1
5FF8:  CLRF   19
5FFA:  BTFSC  FF2.7
5FFC:  BSF    19.7
5FFE:  BCF    FF2.7
6000:  MOVFF  03,20A
6004:  MOVFF  02,209
6008:  MOVFF  01,208
600C:  MOVFF  00,207
6010:  MOVFF  1CA,20E
6014:  MOVFF  1C9,20D
6018:  MOVFF  1C8,20C
601C:  MOVFF  1C7,20B
6020:  CALL   04EA
6024:  BTFSC  19.7
6026:  BSF    FF2.7
6028:  MOVFF  03,1D6
602C:  MOVFF  02,1D5
6030:  MOVFF  01,1D4
6034:  MOVFF  00,1D3
6038:  MOVFF  00,00
603C:  MOVFF  01,01
6040:  MOVFF  02,02
6044:  MOVFF  03,03
6048:  BCF    01.7
604A:  MOVFF  03,1D6
604E:  MOVFF  02,1D5
6052:  MOVFF  01,1D4
6056:  MOVFF  00,1D3
605A:  BCF    FD8.1
605C:  CLRF   19
605E:  BTFSC  FF2.7
6060:  BSF    19.7
6062:  BCF    FF2.7
6064:  MOVFF  03,20A
6068:  MOVFF  02,209
606C:  MOVFF  01,208
6070:  MOVFF  00,207
6074:  MOVLB  2
6076:  CLRF   x0E
6078:  CLRF   x0D
607A:  CLRF   x0C
607C:  MOVLW  7F
607E:  MOVWF  x0B
6080:  MOVLB  0
6082:  CALL   04EA
6086:  BTFSC  19.7
6088:  BSF    FF2.7
608A:  MOVFF  03,1E9
608E:  MOVFF  02,1E8
6092:  MOVFF  01,1E7
6096:  MOVFF  00,1E6
609A:  CALL   1A54
609E:  MOVFF  01,1D3
60A2:  MOVFF  1B6,1E9
60A6:  MOVFF  1B5,1E8
60AA:  MOVFF  1B4,1E7
60AE:  MOVFF  1B3,1E6
60B2:  CALL   1A54
60B6:  MOVFF  01,1D4
60BA:  MOVLB  1
60BC:  COMF   xD4,F
60BE:  CLRF   xE7
60C0:  SETF   xE8
60C2:  MOVFF  1D4,1E9
60C6:  MOVLB  0
60C8:  CALL   1AD6
60CC:  MOVFF  02,1D5
60D0:  MOVFF  01,1D4
60D4:  MOVFF  1D1,1E6
60D8:  MOVFF  1D0,1E5
60DC:  MOVFF  1D2,1E7
60E0:  MOVFF  1D3,1E8
60E4:  MOVFF  02,1EA
60E8:  MOVFF  01,1E9
60EC:  CALL   14EE
....................             prev_y=y; 
60F0:  MOVLB  1
60F2:  CLRF   xED
60F4:  MOVFF  174,1EC
60F8:  MOVLB  0
60FA:  CALL   1750
60FE:  MOVFF  03,1CA
6102:  MOVFF  02,1C9
6106:  MOVFF  01,1C8
610A:  MOVFF  00,1C7
610E:  MOVLB  1
....................          } 
6110:  BRA    59FA
....................       } 
6112:  INCF   xCF,F
6114:  GOTO   58B2
....................    } 
....................    return _Terminado; 
6118:  MOVLW  22
611A:  MOVWF  01
611C:  MOVLB  0
611E:  GOTO   665C (RETURN)
.................... } 
.................... int Terminado(struct punto *Curva){ 
....................    tecl_mode(escaneo); 
*
61C6:  MOVLW  01
61C8:  MOVLB  1
61CA:  MOVWF  xC4
61CC:  MOVLB  0
61CE:  CALL   08A2
....................    disable_interrupts(INT_TIMER1); 
61D2:  BCF    F9D.0
....................    OFF(SALIDA); 
61D4:  BCF    F92.6
61D6:  BCF    F89.6
....................    printTermiando(); 
61D8:  BRA    6122
....................    while(ultimaTecla==_VISTO){} 
61DA:  MOVF   1B,W
61DC:  SUBLW  0C
61DE:  BTFSC  FD8.2
61E0:  BRA    61DA
....................    ultimaTecla=_VISTO; 
61E2:  MOVLW  0C
61E4:  MOVWF  1B
....................    tecl_mode(estatico); 
61E6:  MOVLB  1
61E8:  CLRF   xC4
61EA:  MOVLB  0
61EC:  CALL   08A2
....................    curva_init(Curva); 
61F0:  MOVFF  1AF,1B1
61F4:  MOVFF  1AE,1B0
61F8:  CALL   0E38
....................    fillScreen(BG_COLOR); 
61FC:  MOVLB  1
61FE:  CLRF   xB1
6200:  CLRF   xB0
6202:  MOVLB  0
6204:  CALL   0DA0
....................    printMenuPrincipal(); 
6208:  CALL   123C
....................    if((config&0xE0)>>5==0) return _CargarValores; 
620C:  MOVF   1A,W
620E:  ANDLW  E0
6210:  MOVWF  00
6212:  SWAPF  00,F
6214:  RRCF   00,F
6216:  MOVLW  07
6218:  ANDWF  00,F
621A:  MOVF   00,W
621C:  BNZ   6224
621E:  MOVLW  06
6220:  MOVWF  01
6222:  BRA    6228
....................    return _SeleccionDePerfil;   
6224:  MOVLW  00
6226:  MOVWF  01
6228:  GOTO   6672 (RETURN)
.................... } 
.................... #endif 
....................  
....................  
.................... void main(){ 
622C:  CLRF   FF8
622E:  BCF    FD0.7
6230:  BSF    07.7
6232:  MOVLW  70
6234:  MOVWF  FD3
6236:  MOVF   FD3,W
6238:  BCF    FC6.5
623A:  MOVLW  40
623C:  MOVWF  FC7
623E:  MOVLW  30
6240:  MOVWF  FC6
6242:  BCF    F94.7
6244:  BSF    F93.0
6246:  BCF    F93.1
6248:  MOVFF  FF2,1AE
624C:  BCF    FF2.7
624E:  CLRF   FA9
6250:  BCF    FA6.6
6252:  BCF    FA6.7
6254:  BSF    FA6.0
6256:  MOVF   FA8,W
6258:  MOVLB  1
625A:  BTFSC  xAE.7
625C:  BSF    FF2.7
625E:  XORLW  FF
6260:  MOVWF  1A
6262:  CLRF   x78
6264:  CLRF   x77
6266:  MOVF   FC1,W
6268:  ANDLW  C0
626A:  IORLW  0F
626C:  MOVWF  FC1
626E:  MOVLW  07
6270:  MOVWF  FB4
6272:  BRA    63B6
6274:  DATA 06,40
6276:  DATA 28,00
6278:  DATA D7,80
627A:  DATA 02,05
627C:  DATA 02,00
627E:  DATA 3E,41
6280:  DATA C1,41
6282:  DATA 22,7C
6284:  DATA 55,56
6286:  DATA 54,54
6288:  DATA 7C,54
628A:  DATA 56,55
628C:  DATA 54,30
628E:  DATA 48,45
6290:  DATA 40,20
6292:  DATA 20,41
6294:  DATA 3F,01
6296:  DATA 7F,7F
6298:  DATA 49,49
629A:  DATA 49,73
629C:  DATA 7F,40
629E:  DATA 7F,40
62A0:  DATA FF,7F
62A2:  DATA 01,01
62A4:  DATA 01,03
62A6:  DATA 70,29
62A8:  DATA 27,21
62AA:  DATA 7F,7F
62AC:  DATA 48,30
62AE:  DATA 00,7F
62B0:  DATA 00,50
62B2:  DATA 30,00
62B4:  DATA 00,7F
62B6:  DATA 48,48
62B8:  DATA 48,38
62BA:  DATA 00,30
62BC:  DATA 30,00
62BE:  DATA 00,7F
62C0:  DATA 08,3E
62C2:  DATA 41,3E
62C4:  DATA 3E,51
62C6:  DATA 49,45
62C8:  DATA 3E,00
62CA:  DATA 42,7F
62CC:  DATA 40,00
62CE:  DATA 42,61
62D0:  DATA 51,49
62D2:  DATA 46,21
62D4:  DATA 41,45
62D6:  DATA 4B,31
62D8:  DATA 18,14
62DA:  DATA 12,7F
62DC:  DATA 10,27
62DE:  DATA 45,45
62E0:  DATA 45,39
62E2:  DATA 3C,4A
62E4:  DATA 49,49
62E6:  DATA 30,01
62E8:  DATA 71,09
62EA:  DATA 05,03
62EC:  DATA 36,49
62EE:  DATA 49,49
62F0:  DATA 36,06
62F2:  DATA 49,49
62F4:  DATA 29,1E
62F6:  DATA 00,36
62F8:  DATA 36,00
62FA:  DATA 00,7F
62FC:  DATA 01,01
62FE:  DATA 01,7F
6300:  DATA 38,44
6302:  DATA 46,45
6304:  DATA 38,7D
6306:  DATA 0A,12
6308:  DATA 21,7D
630A:  DATA 00,41
630C:  DATA 22,14
630E:  DATA 08,02
6310:  DATA 01,51
6312:  DATA 09,06
6314:  DATA 46,29
6316:  DATA 19,09
6318:  DATA 7F,7E
631A:  DATA 11,11
631C:  DATA 11,7E
631E:  DATA 7F,49
6320:  DATA 49,49
6322:  DATA 36,3E
6324:  DATA 41,41
6326:  DATA 41,22
6328:  DATA 7F,41
632A:  DATA 41,41
632C:  DATA 3E,7F
632E:  DATA 49,49
6330:  DATA 49,41
6332:  DATA 7F,09
6334:  DATA 09,09
6336:  DATA 01,3E
6338:  DATA 41,49
633A:  DATA 49,7A
633C:  DATA 7F,08
633E:  DATA 08,08
6340:  DATA 7F,00
6342:  DATA 41,7F
6344:  DATA 41,00
6346:  DATA 20,40
6348:  DATA 41,3F
634A:  DATA 01,7F
634C:  DATA 08,14
634E:  DATA 22,41
6350:  DATA 7F,04
6352:  DATA C0,40
6354:  DATA 5F,80
6356:  DATA 7F,02
6358:  DATA 04,02
635A:  DATA 7F,7F
635C:  DATA 04,08
635E:  DATA 10,7F
6360:  DATA 3E,41
6362:  DATA 41,41
6364:  DATA 3E,7F
6366:  DATA 09,09
6368:  DATA 09,06
636A:  DATA 3E,41
636C:  DATA 51,21
636E:  DATA 5E,7F
6370:  DATA 09,19
6372:  DATA 29,46
6374:  DATA 46,49
6376:  DATA 49,49
6378:  DATA 31,01
637A:  DATA 01,7F
637C:  DATA 01,01
637E:  DATA 3F,40
6380:  DATA 40,40
6382:  DATA 3F,1F
6384:  DATA 20,40
6386:  DATA 20,1F
6388:  DATA 3F,40
638A:  DATA 38,40
638C:  DATA 3F,63
638E:  DATA 14,08
6390:  DATA 14,63
6392:  DATA 07,08
6394:  DATA 70,08
6396:  DATA 07,61
6398:  DATA 51,49
639A:  DATA 45,43
639C:  DATA 41,49
639E:  DATA 49,49
63A0:  DATA 36,7F
63A2:  DATA 10,08
63A4:  DATA 04,7F
63A6:  DATA 7C,21
63A8:  DATA 12,09
63AA:  DATA 7C,1C
63AC:  DATA 22,7F
63AE:  DATA 22,1C
63B0:  DATA 07,08
63B2:  DATA 08,08
63B4:  DATA 7F,00
63B6:  MOVLW  00
63B8:  MOVWF  FF8
63BA:  MOVLW  62
63BC:  MOVWF  FF7
63BE:  MOVLW  74
63C0:  MOVWF  FF6
63C2:  TBLRD*+
63C4:  MOVF   FF5,W
63C6:  MOVWF  00
63C8:  XORLW  00
63CA:  BZ    63F2
63CC:  TBLRD*+
63CE:  MOVF   FF5,W
63D0:  MOVWF  01
63D2:  BTFSC  FE8.7
63D4:  BRA    63E0
63D6:  ANDLW  0F
63D8:  MOVWF  FEA
63DA:  TBLRD*+
63DC:  MOVFF  FF5,FE9
63E0:  BTFSC  01.6
63E2:  TBLRD*+
63E4:  BTFSS  01.6
63E6:  TBLRD*+
63E8:  MOVFF  FF5,FEE
63EC:  DCFSNZ 00,F
63EE:  BRA    63C2
63F0:  BRA    63E4
63F2:  CLRF   FF8
....................    tecl_init(); 
63F4:  MOVLB  0
63F6:  GOTO   08C4
....................    delay_ms(1); 
63FA:  MOVLW  01
63FC:  MOVLB  1
63FE:  MOVWF  xDE
6400:  MOVLB  0
6402:  CALL   08DC
....................    tft_init(); 
6406:  GOTO   0DBE
....................    ON(CS2); 
640A:  BCF    F92.4
640C:  BSF    F89.4
....................    delay_ms(10); 
640E:  MOVLW  0A
6410:  MOVLB  1
6412:  MOVWF  xDE
6414:  MOVLB  0
6416:  CALL   08DC
....................     
....................    int estado=_SeleccionDePerfil, nPuntos=1; 
641A:  MOVLB  1
641C:  CLRF   x79
641E:  MOVLW  01
6420:  MOVWF  x7A
....................    if((config&0xE0)>>5==0)estado=_CargarValores; 
6422:  MOVF   1A,W
6424:  ANDLW  E0
6426:  MOVWF  00
6428:  SWAPF  00,F
642A:  RRCF   00,F
642C:  MOVLW  07
642E:  ANDWF  00,F
6430:  MOVF   00,W
6432:  BNZ   6438
6434:  MOVLW  06
6436:  MOVWF  x79
....................    struct Punto Curva[17]; 
....................    curva_init(Curva); 
6438:  MOVLW  01
643A:  MOVWF  xB1
643C:  MOVLW  7B
643E:  MOVWF  xB0
6440:  MOVLB  0
6442:  CALL   0E38
....................    enable_interrupts(global); 
6446:  MOVLW  C0
6448:  IORWF  FF2,F
....................    
....................    printMenuPrincipal(); 
644A:  CALL   123C
....................   
....................    while(1){ 
....................       switch (estado){ 
644E:  MOVLB  1
6450:  MOVF   x79,W
6452:  ADDLW  DD
6454:  BTFSC  FD8.0
6456:  BRA    667C
6458:  ADDLW  23
645A:  MOVLB  0
645C:  GOTO   6680
....................          case _SeleccionDePerfil: 
....................             estado=SeleccionDePerfil(); 
6460:  GOTO   1372
6464:  MOVFF  01,179
....................             break; 
6468:  MOVLB  1
646A:  BRA    667C
....................          case _Perfiles: 
....................             estado=Perfiles(&nPuntos, Curva); 
646C:  MOVLW  01
646E:  MOVLB  1
6470:  MOVWF  xB1
6472:  MOVLW  7A
6474:  MOVWF  xB0
6476:  MOVLW  01
6478:  MOVWF  xB3
647A:  MOVLW  7B
647C:  MOVWF  xB2
647E:  MOVLB  0
6480:  GOTO   2C94
6484:  MOVFF  01,179
....................             break; 
6488:  MOVLB  1
648A:  BRA    667C
....................          case _Perfil_Crear: 
....................             estado=Perfil_Crear(); 
648C:  GOTO   2FFC
6490:  MOVFF  01,179
....................             break; 
6494:  MOVLB  1
6496:  BRA    667C
....................          case _Perfil_Cargar: 
....................             estado=Perfil_Cargar(); 
6498:  GOTO   3022
649C:  MOVFF  01,179
....................             break; 
64A0:  MOVLB  1
64A2:  BRA    667C
....................          case _Perfil_Editar: 
....................             estado=Perfil_Editar(); 
64A4:  GOTO   3056
64A8:  MOVFF  01,179
....................             break; 
64AC:  MOVLB  1
64AE:  BRA    667C
....................          case _Perfil_Volver: 
....................             estado=Perfil_Volver(); 
64B0:  GOTO   308C
64B4:  MOVFF  01,179
....................             break; 
64B8:  MOVLB  1
64BA:  BRA    667C
....................          case _CargarValores: 
....................             estado=CargarValores(&nPuntos); 
64BC:  MOVLW  01
64BE:  MOVLB  1
64C0:  MOVWF  xAF
64C2:  MOVLW  7A
64C4:  MOVWF  xAE
64C6:  MOVLB  0
64C8:  GOTO   30C2
64CC:  MOVFF  01,179
....................             break; 
64D0:  MOVLB  1
64D2:  BRA    667C
....................          case _Configuracion: 
....................             estado=Configuracion(); 
64D4:  GOTO   32C6
64D8:  MOVFF  01,179
....................             break; 
64DC:  MOVLB  1
64DE:  BRA    667C
....................          case _Config_Tiempo: 
....................             estado=Config_Tiempo(); 
64E0:  GOTO   343A
64E4:  MOVFF  01,179
....................             break; 
64E8:  MOVLB  1
64EA:  BRA    667C
....................          case _Config_Tiempo_Formato: 
....................             estado=Config_Tiempo_Formato(); 
64EC:  GOTO   3542
64F0:  MOVFF  01,179
....................             break; 
64F4:  MOVLB  1
64F6:  BRA    667C
....................          case _Config_Tiempo_Formato_mmss: 
....................             estado=Config_Tiempo_Formato_mmss(); 
64F8:  GOTO   3578
64FC:  MOVFF  01,179
....................             break; 
6500:  MOVLB  1
6502:  BRA    667C
....................          case _Config_Tiempo_Formato_ssss: 
....................             estado=Config_Tiempo_Formato_ssss(); 
6504:  GOTO   3610
6508:  MOVFF  01,179
....................             break; 
650C:  MOVLB  1
650E:  BRA    667C
....................          case _Config_Tiempo_Formato_Volver: 
....................             estado=Config_Tiempo_Formato_Volver(); 
6510:  GOTO   36A8
6514:  MOVFF  01,179
....................             break; 
6518:  MOVLB  1
651A:  BRA    667C
....................          case _Config_Tiempo_Origen: 
....................             estado=Config_Tiempo_Origen(); 
651C:  GOTO   381C
6520:  MOVFF  01,179
....................             break; 
6524:  MOVLB  1
6526:  BRA    667C
....................          case _Config_Tiempo_Origen_Absoluto: 
....................             estado=Config_Tiempo_Origen_Absoluto(); 
6528:  GOTO   3854
652C:  MOVFF  01,179
....................             break; 
6530:  MOVLB  1
6532:  BRA    667C
....................          case _Config_Tiempo_Origen_Relativo: 
....................             estado=Config_Tiempo_Origen_Relativo(); 
6534:  GOTO   38EE
6538:  MOVFF  01,179
....................             break; 
653C:  MOVLB  1
653E:  BRA    667C
....................          case _Config_Tiempo_Origen_Volver: 
....................             estado=Config_Tiempo_Origen_Volver(); 
6540:  GOTO   3986
6544:  MOVFF  01,179
....................             break; 
6548:  MOVLB  1
654A:  BRA    667C
....................          case _Config_Tiempo_Volver: 
....................             estado=Config_Tiempo_Volver(); 
654C:  GOTO   39BE
6550:  MOVFF  01,179
....................             break; 
6554:  MOVLB  1
6556:  BRA    667C
....................          case _Config_Temp: 
....................             estado=Config_Temp(); 
6558:  GOTO   3A8A
655C:  MOVFF  01,179
....................             break; 
6560:  MOVLB  1
6562:  BRA    667C
....................          case _Config_Temp_C: 
....................             estado=Config_Temp_C(); 
6564:  GOTO   3AC2
6568:  MOVFF  01,179
....................             break; 
656C:  MOVLB  1
656E:  BRA    667C
....................          case _Config_Temp_F: 
....................             estado=Config_Temp_F(); 
6570:  GOTO   3B58
6574:  MOVFF  01,179
....................             break; 
6578:  MOVLB  1
657A:  BRA    667C
....................          case _Config_Temp_Volver: 
....................             estado=Config_Temp_Volver(); 
657C:  GOTO   3BF2
6580:  MOVFF  01,179
....................             break; 
6584:  MOVLB  1
6586:  BRA    667C
....................          case _Config_Idioma: 
....................             estado=Config_Idioma(); 
6588:  GOTO   3CEA
658C:  MOVFF  01,179
....................             break; 
6590:  MOVLB  1
6592:  BRA    667C
....................          case _Config_Idioma_Es: 
....................             estado=Config_Idioma_Es(); 
6594:  GOTO   3D22
6598:  MOVFF  01,179
....................             break; 
659C:  MOVLB  1
659E:  BRA    667C
....................          case _Config_Idioma_En: 
....................             estado=Config_Idioma_En(); 
65A0:  GOTO   3DBA
65A4:  MOVFF  01,179
....................             break; 
65A8:  MOVLB  1
65AA:  BRA    667C
....................          case _Config_Idioma_Fr: 
....................             estado=Config_Idioma_Fr(); 
65AC:  GOTO   3E56
65B0:  MOVFF  01,179
....................             break; 
65B4:  MOVLB  1
65B6:  BRA    667C
....................          case _Config_Idioma_Ru: 
....................             estado=Config_Idioma_Ru(); 
65B8:  GOTO   3EF2
65BC:  MOVFF  01,179
....................             break; 
65C0:  MOVLB  1
65C2:  BRA    667C
....................          case _Config_Idioma_Volver: 
....................             estado=Config_Idioma_Volver(); 
65C4:  GOTO   3F8E
65C8:  MOVFF  01,179
....................             break; 
65CC:  MOVLB  1
65CE:  BRA    667C
....................          case _Config_Volver: 
....................             estado=Config_Volver(); 
65D0:  GOTO   3FC8
65D4:  MOVFF  01,179
....................             break; 
65D8:  MOVLB  1
65DA:  BRA    667C
....................          case _CargarPunto: 
....................             estado=CargarPunto(&nPuntos, Curva); 
65DC:  MOVLW  01
65DE:  MOVLB  1
65E0:  MOVWF  xB1
65E2:  MOVLW  7A
65E4:  MOVWF  xB0
65E6:  MOVLW  01
65E8:  MOVWF  xB3
65EA:  MOVLW  7B
65EC:  MOVWF  xB2
65EE:  MOVLB  0
65F0:  GOTO   4DA8
65F4:  MOVFF  01,179
....................             break; 
65F8:  MOVLB  1
65FA:  BRA    667C
....................          case _Iniciar: 
....................             estado=Iniciar(&nPuntos, Curva); 
65FC:  MOVLW  01
65FE:  MOVLB  1
6600:  MOVWF  xB1
6602:  MOVLW  7A
6604:  MOVWF  xB0
6606:  MOVLW  01
6608:  MOVWF  xB3
660A:  MOVLW  7B
660C:  MOVWF  xB2
660E:  MOVLB  0
6610:  GOTO   501E
6614:  MOVFF  01,179
....................             break; 
6618:  MOVLB  1
661A:  BRA    667C
....................          case _PuntoNoValido: 
....................             estado=PuntoNoValido(); 
661C:  GOTO   511E
6620:  MOVFF  01,179
....................             break; 
6624:  MOVLB  1
6626:  BRA    667C
....................          case _OtroPunto: 
....................             estado=OtroPunto(&nPuntos, Curva); 
6628:  MOVLW  01
662A:  MOVLB  1
662C:  MOVWF  xB1
662E:  MOVLW  7A
6630:  MOVWF  xB0
6632:  MOVLW  01
6634:  MOVWF  xB3
6636:  MOVLW  7B
6638:  MOVWF  xB2
663A:  MOVLB  0
663C:  GOTO   5276
6640:  MOVFF  01,179
....................             break; 
6644:  MOVLB  1
6646:  BRA    667C
....................          case _Soldando: 
....................             estado=Soldando(nPuntos, Curva); 
6648:  MOVFF  17A,1AF
664C:  MOVLW  01
664E:  MOVLB  1
6650:  MOVWF  xB1
6652:  MOVLW  7B
6654:  MOVWF  xB0
6656:  MOVLB  0
6658:  GOTO   5720
665C:  MOVFF  01,179
....................             break; 
6660:  MOVLB  1
6662:  BRA    667C
....................          case _Terminado: 
....................             estado=Terminado(Curva); 
6664:  MOVLW  01
6666:  MOVLB  1
6668:  MOVWF  xAF
666A:  MOVLW  7B
666C:  MOVWF  xAE
666E:  MOVLB  0
6670:  BRA    61C6
6672:  MOVFF  01,179
....................             break; 
6676:  MOVLB  1
6678:  BRA    667C
667A:  MOVLB  1
....................       } 
667C:  BRA    6450
....................    } 
.................... } 
667E:  SLEEP 

Configuration Fuses:
   Word  1: C827   PLL12 CPUDIV1 USBDIV INTRC_IO FCMEN IESO
   Word  2: 1E3E   PUT BROWNOUT BORV21 VREGEN NOWDT WDT32768
   Word  3: 0700   CCP2C1 PBADEN LPT1OSC NOMCLR
   Word  4: 0081   STVREN NOLVP NOXINST NODEBUG
   Word  5: C00F   NOPROTECT NOCPB NOCPD
   Word  6: E00F   NOWRT NOWRTC NOWRTB NOWRTD
   Word  7: 400F   NOEBTR NOEBTRB

ROM data:
007FDC: 09 01 80 96 11 80 FF 3A 81 55 0A 36 01 08 2A 04    .......:.U.6..*.
007FEC: 00 00 00 F0 2B 04 00 00 01 40 21 80 0A 13 80 0A    ....+....@!.....
007FFC: 29 80 FF                                           )..
